
Firmware.elf:     file format elf32-littlearm

Sections:
Idx Name          Size      VMA       LMA       File off  Algn
  0 .isr_vector   000001d8  08000000  08000000  00001000  2**0
                  CONTENTS, ALLOC, LOAD, READONLY, DATA
  1 .text         000068e8  080001e0  080001e0  000011e0  2**4
                  CONTENTS, ALLOC, LOAD, READONLY, CODE
  2 .rodata       00000274  08006ac8  08006ac8  00007ac8  2**2
                  CONTENTS, ALLOC, LOAD, READONLY, DATA
  3 .ARM.extab    00000000  08006d3c  08006d3c  00008244  2**0
                  CONTENTS
  4 .ARM          00000000  08006d3c  08006d3c  00008244  2**0
                  CONTENTS
  5 .preinit_array 00000000  08006d3c  08006d3c  00008244  2**0
                  CONTENTS, ALLOC, LOAD, DATA
  6 .init_array   00000008  08006d3c  08006d3c  00007d3c  2**2
                  CONTENTS, ALLOC, LOAD, DATA
  7 .fini_array   00000004  08006d44  08006d44  00007d44  2**2
                  CONTENTS, ALLOC, LOAD, DATA
  8 .data         00000244  20000000  08006d48  00008000  2**2
                  CONTENTS, ALLOC, LOAD, DATA
  9 .bss          000027b0  20000244  08006f8c  00008244  2**2
                  ALLOC
 10 ._user_heap_stack 00000604  200029f4  08006f8c  000089f4  2**0
                  ALLOC
 11 .ARM.attributes 00000030  00000000  00000000  00008244  2**0
                  CONTENTS, READONLY
 12 .comment      00000043  00000000  00000000  00008274  2**0
                  CONTENTS, READONLY
 13 .debug_frame  000004f0  00000000  00000000  000082b8  2**2
                  CONTENTS, READONLY, DEBUGGING, OCTETS

Disassembly of section .text:

080001e0 <__do_global_dtors_aux>:
 80001e0:	b510      	push	{r4, lr}
 80001e2:	4c05      	ldr	r4, [pc, #20]	@ (80001f8 <__do_global_dtors_aux+0x18>)
 80001e4:	7823      	ldrb	r3, [r4, #0]
 80001e6:	b933      	cbnz	r3, 80001f6 <__do_global_dtors_aux+0x16>
 80001e8:	4b04      	ldr	r3, [pc, #16]	@ (80001fc <__do_global_dtors_aux+0x1c>)
 80001ea:	b113      	cbz	r3, 80001f2 <__do_global_dtors_aux+0x12>
 80001ec:	4804      	ldr	r0, [pc, #16]	@ (8000200 <__do_global_dtors_aux+0x20>)
 80001ee:	f3af 8000 	nop.w
 80001f2:	2301      	movs	r3, #1
 80001f4:	7023      	strb	r3, [r4, #0]
 80001f6:	bd10      	pop	{r4, pc}
 80001f8:	20000244 	.word	0x20000244
 80001fc:	00000000 	.word	0x00000000
 8000200:	08006ab0 	.word	0x08006ab0

08000204 <frame_dummy>:
 8000204:	b508      	push	{r3, lr}
 8000206:	4b03      	ldr	r3, [pc, #12]	@ (8000214 <frame_dummy+0x10>)
 8000208:	b11b      	cbz	r3, 8000212 <frame_dummy+0xe>
 800020a:	4903      	ldr	r1, [pc, #12]	@ (8000218 <frame_dummy+0x14>)
 800020c:	4803      	ldr	r0, [pc, #12]	@ (800021c <frame_dummy+0x18>)
 800020e:	f3af 8000 	nop.w
 8000212:	bd08      	pop	{r3, pc}
 8000214:	00000000 	.word	0x00000000
 8000218:	20000248 	.word	0x20000248
 800021c:	08006ab0 	.word	0x08006ab0

08000220 <__aeabi_dmul>:
 8000220:	b570      	push	{r4, r5, r6, lr}
 8000222:	f04f 0cff 	mov.w	ip, #255	@ 0xff
 8000226:	f44c 6ce0 	orr.w	ip, ip, #1792	@ 0x700
 800022a:	ea1c 5411 	ands.w	r4, ip, r1, lsr #20
 800022e:	bf1d      	ittte	ne
 8000230:	ea1c 5513 	andsne.w	r5, ip, r3, lsr #20
 8000234:	ea94 0f0c 	teqne	r4, ip
 8000238:	ea95 0f0c 	teqne	r5, ip
 800023c:	f000 f8de 	bleq	80003fc <__aeabi_dmul+0x1dc>
 8000240:	442c      	add	r4, r5
 8000242:	ea81 0603 	eor.w	r6, r1, r3
 8000246:	ea21 514c 	bic.w	r1, r1, ip, lsl #21
 800024a:	ea23 534c 	bic.w	r3, r3, ip, lsl #21
 800024e:	ea50 3501 	orrs.w	r5, r0, r1, lsl #12
 8000252:	bf18      	it	ne
 8000254:	ea52 3503 	orrsne.w	r5, r2, r3, lsl #12
 8000258:	f441 1180 	orr.w	r1, r1, #1048576	@ 0x100000
 800025c:	f443 1380 	orr.w	r3, r3, #1048576	@ 0x100000
 8000260:	d038      	beq.n	80002d4 <__aeabi_dmul+0xb4>
 8000262:	fba0 ce02 	umull	ip, lr, r0, r2
 8000266:	f04f 0500 	mov.w	r5, #0
 800026a:	fbe1 e502 	umlal	lr, r5, r1, r2
 800026e:	f006 4200 	and.w	r2, r6, #2147483648	@ 0x80000000
 8000272:	fbe0 e503 	umlal	lr, r5, r0, r3
 8000276:	f04f 0600 	mov.w	r6, #0
 800027a:	fbe1 5603 	umlal	r5, r6, r1, r3
 800027e:	f09c 0f00 	teq	ip, #0
 8000282:	bf18      	it	ne
 8000284:	f04e 0e01 	orrne.w	lr, lr, #1
 8000288:	f1a4 04ff 	sub.w	r4, r4, #255	@ 0xff
 800028c:	f5b6 7f00 	cmp.w	r6, #512	@ 0x200
 8000290:	f564 7440 	sbc.w	r4, r4, #768	@ 0x300
 8000294:	d204      	bcs.n	80002a0 <__aeabi_dmul+0x80>
 8000296:	ea5f 0e4e 	movs.w	lr, lr, lsl #1
 800029a:	416d      	adcs	r5, r5
 800029c:	eb46 0606 	adc.w	r6, r6, r6
 80002a0:	ea42 21c6 	orr.w	r1, r2, r6, lsl #11
 80002a4:	ea41 5155 	orr.w	r1, r1, r5, lsr #21
 80002a8:	ea4f 20c5 	mov.w	r0, r5, lsl #11
 80002ac:	ea40 505e 	orr.w	r0, r0, lr, lsr #21
 80002b0:	ea4f 2ece 	mov.w	lr, lr, lsl #11
 80002b4:	f1b4 0cfd 	subs.w	ip, r4, #253	@ 0xfd
 80002b8:	bf88      	it	hi
 80002ba:	f5bc 6fe0 	cmphi.w	ip, #1792	@ 0x700
 80002be:	d81e      	bhi.n	80002fe <__aeabi_dmul+0xde>
 80002c0:	f1be 4f00 	cmp.w	lr, #2147483648	@ 0x80000000
 80002c4:	bf08      	it	eq
 80002c6:	ea5f 0e50 	movseq.w	lr, r0, lsr #1
 80002ca:	f150 0000 	adcs.w	r0, r0, #0
 80002ce:	eb41 5104 	adc.w	r1, r1, r4, lsl #20
 80002d2:	bd70      	pop	{r4, r5, r6, pc}
 80002d4:	f006 4600 	and.w	r6, r6, #2147483648	@ 0x80000000
 80002d8:	ea46 0101 	orr.w	r1, r6, r1
 80002dc:	ea40 0002 	orr.w	r0, r0, r2
 80002e0:	ea81 0103 	eor.w	r1, r1, r3
 80002e4:	ebb4 045c 	subs.w	r4, r4, ip, lsr #1
 80002e8:	bfc2      	ittt	gt
 80002ea:	ebd4 050c 	rsbsgt	r5, r4, ip
 80002ee:	ea41 5104 	orrgt.w	r1, r1, r4, lsl #20
 80002f2:	bd70      	popgt	{r4, r5, r6, pc}
 80002f4:	f441 1180 	orr.w	r1, r1, #1048576	@ 0x100000
 80002f8:	f04f 0e00 	mov.w	lr, #0
 80002fc:	3c01      	subs	r4, #1
 80002fe:	f300 80ab 	bgt.w	8000458 <__aeabi_dmul+0x238>
 8000302:	f114 0f36 	cmn.w	r4, #54	@ 0x36
 8000306:	bfde      	ittt	le
 8000308:	2000      	movle	r0, #0
 800030a:	f001 4100 	andle.w	r1, r1, #2147483648	@ 0x80000000
 800030e:	bd70      	pople	{r4, r5, r6, pc}
 8000310:	f1c4 0400 	rsb	r4, r4, #0
 8000314:	3c20      	subs	r4, #32
 8000316:	da35      	bge.n	8000384 <__aeabi_dmul+0x164>
 8000318:	340c      	adds	r4, #12
 800031a:	dc1b      	bgt.n	8000354 <__aeabi_dmul+0x134>
 800031c:	f104 0414 	add.w	r4, r4, #20
 8000320:	f1c4 0520 	rsb	r5, r4, #32
 8000324:	fa00 f305 	lsl.w	r3, r0, r5
 8000328:	fa20 f004 	lsr.w	r0, r0, r4
 800032c:	fa01 f205 	lsl.w	r2, r1, r5
 8000330:	ea40 0002 	orr.w	r0, r0, r2
 8000334:	f001 4200 	and.w	r2, r1, #2147483648	@ 0x80000000
 8000338:	f021 4100 	bic.w	r1, r1, #2147483648	@ 0x80000000
 800033c:	eb10 70d3 	adds.w	r0, r0, r3, lsr #31
 8000340:	fa21 f604 	lsr.w	r6, r1, r4
 8000344:	eb42 0106 	adc.w	r1, r2, r6
 8000348:	ea5e 0e43 	orrs.w	lr, lr, r3, lsl #1
 800034c:	bf08      	it	eq
 800034e:	ea20 70d3 	biceq.w	r0, r0, r3, lsr #31
 8000352:	bd70      	pop	{r4, r5, r6, pc}
 8000354:	f1c4 040c 	rsb	r4, r4, #12
 8000358:	f1c4 0520 	rsb	r5, r4, #32
 800035c:	fa00 f304 	lsl.w	r3, r0, r4
 8000360:	fa20 f005 	lsr.w	r0, r0, r5
 8000364:	fa01 f204 	lsl.w	r2, r1, r4
 8000368:	ea40 0002 	orr.w	r0, r0, r2
 800036c:	f001 4100 	and.w	r1, r1, #2147483648	@ 0x80000000
 8000370:	eb10 70d3 	adds.w	r0, r0, r3, lsr #31
 8000374:	f141 0100 	adc.w	r1, r1, #0
 8000378:	ea5e 0e43 	orrs.w	lr, lr, r3, lsl #1
 800037c:	bf08      	it	eq
 800037e:	ea20 70d3 	biceq.w	r0, r0, r3, lsr #31
 8000382:	bd70      	pop	{r4, r5, r6, pc}
 8000384:	f1c4 0520 	rsb	r5, r4, #32
 8000388:	fa00 f205 	lsl.w	r2, r0, r5
 800038c:	ea4e 0e02 	orr.w	lr, lr, r2
 8000390:	fa20 f304 	lsr.w	r3, r0, r4
 8000394:	fa01 f205 	lsl.w	r2, r1, r5
 8000398:	ea43 0302 	orr.w	r3, r3, r2
 800039c:	fa21 f004 	lsr.w	r0, r1, r4
 80003a0:	f001 4100 	and.w	r1, r1, #2147483648	@ 0x80000000
 80003a4:	fa21 f204 	lsr.w	r2, r1, r4
 80003a8:	ea20 0002 	bic.w	r0, r0, r2
 80003ac:	eb00 70d3 	add.w	r0, r0, r3, lsr #31
 80003b0:	ea5e 0e43 	orrs.w	lr, lr, r3, lsl #1
 80003b4:	bf08      	it	eq
 80003b6:	ea20 70d3 	biceq.w	r0, r0, r3, lsr #31
 80003ba:	bd70      	pop	{r4, r5, r6, pc}
 80003bc:	f094 0f00 	teq	r4, #0
 80003c0:	d10f      	bne.n	80003e2 <__aeabi_dmul+0x1c2>
 80003c2:	f001 4600 	and.w	r6, r1, #2147483648	@ 0x80000000
 80003c6:	0040      	lsls	r0, r0, #1
 80003c8:	eb41 0101 	adc.w	r1, r1, r1
 80003cc:	f411 1f80 	tst.w	r1, #1048576	@ 0x100000
 80003d0:	bf08      	it	eq
 80003d2:	3c01      	subeq	r4, #1
 80003d4:	d0f7      	beq.n	80003c6 <__aeabi_dmul+0x1a6>
 80003d6:	ea41 0106 	orr.w	r1, r1, r6
 80003da:	f095 0f00 	teq	r5, #0
 80003de:	bf18      	it	ne
 80003e0:	4770      	bxne	lr
 80003e2:	f003 4600 	and.w	r6, r3, #2147483648	@ 0x80000000
 80003e6:	0052      	lsls	r2, r2, #1
 80003e8:	eb43 0303 	adc.w	r3, r3, r3
 80003ec:	f413 1f80 	tst.w	r3, #1048576	@ 0x100000
 80003f0:	bf08      	it	eq
 80003f2:	3d01      	subeq	r5, #1
 80003f4:	d0f7      	beq.n	80003e6 <__aeabi_dmul+0x1c6>
 80003f6:	ea43 0306 	orr.w	r3, r3, r6
 80003fa:	4770      	bx	lr
 80003fc:	ea94 0f0c 	teq	r4, ip
 8000400:	ea0c 5513 	and.w	r5, ip, r3, lsr #20
 8000404:	bf18      	it	ne
 8000406:	ea95 0f0c 	teqne	r5, ip
 800040a:	d00c      	beq.n	8000426 <__aeabi_dmul+0x206>
 800040c:	ea50 0641 	orrs.w	r6, r0, r1, lsl #1
 8000410:	bf18      	it	ne
 8000412:	ea52 0643 	orrsne.w	r6, r2, r3, lsl #1
 8000416:	d1d1      	bne.n	80003bc <__aeabi_dmul+0x19c>
 8000418:	ea81 0103 	eor.w	r1, r1, r3
 800041c:	f001 4100 	and.w	r1, r1, #2147483648	@ 0x80000000
 8000420:	f04f 0000 	mov.w	r0, #0
 8000424:	bd70      	pop	{r4, r5, r6, pc}
 8000426:	ea50 0641 	orrs.w	r6, r0, r1, lsl #1
 800042a:	bf06      	itte	eq
 800042c:	4610      	moveq	r0, r2
 800042e:	4619      	moveq	r1, r3
 8000430:	ea52 0643 	orrsne.w	r6, r2, r3, lsl #1
 8000434:	d019      	beq.n	800046a <__aeabi_dmul+0x24a>
 8000436:	ea94 0f0c 	teq	r4, ip
 800043a:	d102      	bne.n	8000442 <__aeabi_dmul+0x222>
 800043c:	ea50 3601 	orrs.w	r6, r0, r1, lsl #12
 8000440:	d113      	bne.n	800046a <__aeabi_dmul+0x24a>
 8000442:	ea95 0f0c 	teq	r5, ip
 8000446:	d105      	bne.n	8000454 <__aeabi_dmul+0x234>
 8000448:	ea52 3603 	orrs.w	r6, r2, r3, lsl #12
 800044c:	bf1c      	itt	ne
 800044e:	4610      	movne	r0, r2
 8000450:	4619      	movne	r1, r3
 8000452:	d10a      	bne.n	800046a <__aeabi_dmul+0x24a>
 8000454:	ea81 0103 	eor.w	r1, r1, r3
 8000458:	f001 4100 	and.w	r1, r1, #2147483648	@ 0x80000000
 800045c:	f041 41fe 	orr.w	r1, r1, #2130706432	@ 0x7f000000
 8000460:	f441 0170 	orr.w	r1, r1, #15728640	@ 0xf00000
 8000464:	f04f 0000 	mov.w	r0, #0
 8000468:	bd70      	pop	{r4, r5, r6, pc}
 800046a:	f041 41fe 	orr.w	r1, r1, #2130706432	@ 0x7f000000
 800046e:	f441 0178 	orr.w	r1, r1, #16252928	@ 0xf80000
 8000472:	bd70      	pop	{r4, r5, r6, pc}

08000474 <__aeabi_drsub>:
 8000474:	f081 4100 	eor.w	r1, r1, #2147483648	@ 0x80000000
 8000478:	e002      	b.n	8000480 <__adddf3>
 800047a:	bf00      	nop

0800047c <__aeabi_dsub>:
 800047c:	f083 4300 	eor.w	r3, r3, #2147483648	@ 0x80000000

08000480 <__adddf3>:
 8000480:	b530      	push	{r4, r5, lr}
 8000482:	ea4f 0441 	mov.w	r4, r1, lsl #1
 8000486:	ea4f 0543 	mov.w	r5, r3, lsl #1
 800048a:	ea94 0f05 	teq	r4, r5
 800048e:	bf08      	it	eq
 8000490:	ea90 0f02 	teqeq	r0, r2
 8000494:	bf1f      	itttt	ne
 8000496:	ea54 0c00 	orrsne.w	ip, r4, r0
 800049a:	ea55 0c02 	orrsne.w	ip, r5, r2
 800049e:	ea7f 5c64 	mvnsne.w	ip, r4, asr #21
 80004a2:	ea7f 5c65 	mvnsne.w	ip, r5, asr #21
 80004a6:	f000 80e2 	beq.w	800066e <__adddf3+0x1ee>
 80004aa:	ea4f 5454 	mov.w	r4, r4, lsr #21
 80004ae:	ebd4 5555 	rsbs	r5, r4, r5, lsr #21
 80004b2:	bfb8      	it	lt
 80004b4:	426d      	neglt	r5, r5
 80004b6:	dd0c      	ble.n	80004d2 <__adddf3+0x52>
 80004b8:	442c      	add	r4, r5
 80004ba:	ea80 0202 	eor.w	r2, r0, r2
 80004be:	ea81 0303 	eor.w	r3, r1, r3
 80004c2:	ea82 0000 	eor.w	r0, r2, r0
 80004c6:	ea83 0101 	eor.w	r1, r3, r1
 80004ca:	ea80 0202 	eor.w	r2, r0, r2
 80004ce:	ea81 0303 	eor.w	r3, r1, r3
 80004d2:	2d36      	cmp	r5, #54	@ 0x36
 80004d4:	bf88      	it	hi
 80004d6:	bd30      	pophi	{r4, r5, pc}
 80004d8:	f011 4f00 	tst.w	r1, #2147483648	@ 0x80000000
 80004dc:	ea4f 3101 	mov.w	r1, r1, lsl #12
 80004e0:	f44f 1c80 	mov.w	ip, #1048576	@ 0x100000
 80004e4:	ea4c 3111 	orr.w	r1, ip, r1, lsr #12
 80004e8:	d002      	beq.n	80004f0 <__adddf3+0x70>
 80004ea:	4240      	negs	r0, r0
 80004ec:	eb61 0141 	sbc.w	r1, r1, r1, lsl #1
 80004f0:	f013 4f00 	tst.w	r3, #2147483648	@ 0x80000000
 80004f4:	ea4f 3303 	mov.w	r3, r3, lsl #12
 80004f8:	ea4c 3313 	orr.w	r3, ip, r3, lsr #12
 80004fc:	d002      	beq.n	8000504 <__adddf3+0x84>
 80004fe:	4252      	negs	r2, r2
 8000500:	eb63 0343 	sbc.w	r3, r3, r3, lsl #1
 8000504:	ea94 0f05 	teq	r4, r5
 8000508:	f000 80a7 	beq.w	800065a <__adddf3+0x1da>
 800050c:	f1a4 0401 	sub.w	r4, r4, #1
 8000510:	f1d5 0e20 	rsbs	lr, r5, #32
 8000514:	db0d      	blt.n	8000532 <__adddf3+0xb2>
 8000516:	fa02 fc0e 	lsl.w	ip, r2, lr
 800051a:	fa22 f205 	lsr.w	r2, r2, r5
 800051e:	1880      	adds	r0, r0, r2
 8000520:	f141 0100 	adc.w	r1, r1, #0
 8000524:	fa03 f20e 	lsl.w	r2, r3, lr
 8000528:	1880      	adds	r0, r0, r2
 800052a:	fa43 f305 	asr.w	r3, r3, r5
 800052e:	4159      	adcs	r1, r3
 8000530:	e00e      	b.n	8000550 <__adddf3+0xd0>
 8000532:	f1a5 0520 	sub.w	r5, r5, #32
 8000536:	f10e 0e20 	add.w	lr, lr, #32
 800053a:	2a01      	cmp	r2, #1
 800053c:	fa03 fc0e 	lsl.w	ip, r3, lr
 8000540:	bf28      	it	cs
 8000542:	f04c 0c02 	orrcs.w	ip, ip, #2
 8000546:	fa43 f305 	asr.w	r3, r3, r5
 800054a:	18c0      	adds	r0, r0, r3
 800054c:	eb51 71e3 	adcs.w	r1, r1, r3, asr #31
 8000550:	f001 4500 	and.w	r5, r1, #2147483648	@ 0x80000000
 8000554:	d507      	bpl.n	8000566 <__adddf3+0xe6>
 8000556:	f04f 0e00 	mov.w	lr, #0
 800055a:	f1dc 0c00 	rsbs	ip, ip, #0
 800055e:	eb7e 0000 	sbcs.w	r0, lr, r0
 8000562:	eb6e 0101 	sbc.w	r1, lr, r1
 8000566:	f5b1 1f80 	cmp.w	r1, #1048576	@ 0x100000
 800056a:	d31b      	bcc.n	80005a4 <__adddf3+0x124>
 800056c:	f5b1 1f00 	cmp.w	r1, #2097152	@ 0x200000
 8000570:	d30c      	bcc.n	800058c <__adddf3+0x10c>
 8000572:	0849      	lsrs	r1, r1, #1
 8000574:	ea5f 0030 	movs.w	r0, r0, rrx
 8000578:	ea4f 0c3c 	mov.w	ip, ip, rrx
 800057c:	f104 0401 	add.w	r4, r4, #1
 8000580:	ea4f 5244 	mov.w	r2, r4, lsl #21
 8000584:	f512 0f80 	cmn.w	r2, #4194304	@ 0x400000
 8000588:	f080 809a 	bcs.w	80006c0 <__adddf3+0x240>
 800058c:	f1bc 4f00 	cmp.w	ip, #2147483648	@ 0x80000000
 8000590:	bf08      	it	eq
 8000592:	ea5f 0c50 	movseq.w	ip, r0, lsr #1
 8000596:	f150 0000 	adcs.w	r0, r0, #0
 800059a:	eb41 5104 	adc.w	r1, r1, r4, lsl #20
 800059e:	ea41 0105 	orr.w	r1, r1, r5
 80005a2:	bd30      	pop	{r4, r5, pc}
 80005a4:	ea5f 0c4c 	movs.w	ip, ip, lsl #1
 80005a8:	4140      	adcs	r0, r0
 80005aa:	eb41 0101 	adc.w	r1, r1, r1
 80005ae:	3c01      	subs	r4, #1
 80005b0:	bf28      	it	cs
 80005b2:	f5b1 1f80 	cmpcs.w	r1, #1048576	@ 0x100000
 80005b6:	d2e9      	bcs.n	800058c <__adddf3+0x10c>
 80005b8:	f091 0f00 	teq	r1, #0
 80005bc:	bf04      	itt	eq
 80005be:	4601      	moveq	r1, r0
 80005c0:	2000      	moveq	r0, #0
 80005c2:	fab1 f381 	clz	r3, r1
 80005c6:	bf08      	it	eq
 80005c8:	3320      	addeq	r3, #32
 80005ca:	f1a3 030b 	sub.w	r3, r3, #11
 80005ce:	f1b3 0220 	subs.w	r2, r3, #32
 80005d2:	da0c      	bge.n	80005ee <__adddf3+0x16e>
 80005d4:	320c      	adds	r2, #12
 80005d6:	dd08      	ble.n	80005ea <__adddf3+0x16a>
 80005d8:	f102 0c14 	add.w	ip, r2, #20
 80005dc:	f1c2 020c 	rsb	r2, r2, #12
 80005e0:	fa01 f00c 	lsl.w	r0, r1, ip
 80005e4:	fa21 f102 	lsr.w	r1, r1, r2
 80005e8:	e00c      	b.n	8000604 <__adddf3+0x184>
 80005ea:	f102 0214 	add.w	r2, r2, #20
 80005ee:	bfd8      	it	le
 80005f0:	f1c2 0c20 	rsble	ip, r2, #32
 80005f4:	fa01 f102 	lsl.w	r1, r1, r2
 80005f8:	fa20 fc0c 	lsr.w	ip, r0, ip
 80005fc:	bfdc      	itt	le
 80005fe:	ea41 010c 	orrle.w	r1, r1, ip
 8000602:	4090      	lslle	r0, r2
 8000604:	1ae4      	subs	r4, r4, r3
 8000606:	bfa2      	ittt	ge
 8000608:	eb01 5104 	addge.w	r1, r1, r4, lsl #20
 800060c:	4329      	orrge	r1, r5
 800060e:	bd30      	popge	{r4, r5, pc}
 8000610:	ea6f 0404 	mvn.w	r4, r4
 8000614:	3c1f      	subs	r4, #31
 8000616:	da1c      	bge.n	8000652 <__adddf3+0x1d2>
 8000618:	340c      	adds	r4, #12
 800061a:	dc0e      	bgt.n	800063a <__adddf3+0x1ba>
 800061c:	f104 0414 	add.w	r4, r4, #20
 8000620:	f1c4 0220 	rsb	r2, r4, #32
 8000624:	fa20 f004 	lsr.w	r0, r0, r4
 8000628:	fa01 f302 	lsl.w	r3, r1, r2
 800062c:	ea40 0003 	orr.w	r0, r0, r3
 8000630:	fa21 f304 	lsr.w	r3, r1, r4
 8000634:	ea45 0103 	orr.w	r1, r5, r3
 8000638:	bd30      	pop	{r4, r5, pc}
 800063a:	f1c4 040c 	rsb	r4, r4, #12
 800063e:	f1c4 0220 	rsb	r2, r4, #32
 8000642:	fa20 f002 	lsr.w	r0, r0, r2
 8000646:	fa01 f304 	lsl.w	r3, r1, r4
 800064a:	ea40 0003 	orr.w	r0, r0, r3
 800064e:	4629      	mov	r1, r5
 8000650:	bd30      	pop	{r4, r5, pc}
 8000652:	fa21 f004 	lsr.w	r0, r1, r4
 8000656:	4629      	mov	r1, r5
 8000658:	bd30      	pop	{r4, r5, pc}
 800065a:	f094 0f00 	teq	r4, #0
 800065e:	f483 1380 	eor.w	r3, r3, #1048576	@ 0x100000
 8000662:	bf06      	itte	eq
 8000664:	f481 1180 	eoreq.w	r1, r1, #1048576	@ 0x100000
 8000668:	3401      	addeq	r4, #1
 800066a:	3d01      	subne	r5, #1
 800066c:	e74e      	b.n	800050c <__adddf3+0x8c>
 800066e:	ea7f 5c64 	mvns.w	ip, r4, asr #21
 8000672:	bf18      	it	ne
 8000674:	ea7f 5c65 	mvnsne.w	ip, r5, asr #21
 8000678:	d029      	beq.n	80006ce <__adddf3+0x24e>
 800067a:	ea94 0f05 	teq	r4, r5
 800067e:	bf08      	it	eq
 8000680:	ea90 0f02 	teqeq	r0, r2
 8000684:	d005      	beq.n	8000692 <__adddf3+0x212>
 8000686:	ea54 0c00 	orrs.w	ip, r4, r0
 800068a:	bf04      	itt	eq
 800068c:	4619      	moveq	r1, r3
 800068e:	4610      	moveq	r0, r2
 8000690:	bd30      	pop	{r4, r5, pc}
 8000692:	ea91 0f03 	teq	r1, r3
 8000696:	bf1e      	ittt	ne
 8000698:	2100      	movne	r1, #0
 800069a:	2000      	movne	r0, #0
 800069c:	bd30      	popne	{r4, r5, pc}
 800069e:	ea5f 5c54 	movs.w	ip, r4, lsr #21
 80006a2:	d105      	bne.n	80006b0 <__adddf3+0x230>
 80006a4:	0040      	lsls	r0, r0, #1
 80006a6:	4149      	adcs	r1, r1
 80006a8:	bf28      	it	cs
 80006aa:	f041 4100 	orrcs.w	r1, r1, #2147483648	@ 0x80000000
 80006ae:	bd30      	pop	{r4, r5, pc}
 80006b0:	f514 0480 	adds.w	r4, r4, #4194304	@ 0x400000
 80006b4:	bf3c      	itt	cc
 80006b6:	f501 1180 	addcc.w	r1, r1, #1048576	@ 0x100000
 80006ba:	bd30      	popcc	{r4, r5, pc}
 80006bc:	f001 4500 	and.w	r5, r1, #2147483648	@ 0x80000000
 80006c0:	f045 41fe 	orr.w	r1, r5, #2130706432	@ 0x7f000000
 80006c4:	f441 0170 	orr.w	r1, r1, #15728640	@ 0xf00000
 80006c8:	f04f 0000 	mov.w	r0, #0
 80006cc:	bd30      	pop	{r4, r5, pc}
 80006ce:	ea7f 5c64 	mvns.w	ip, r4, asr #21
 80006d2:	bf1a      	itte	ne
 80006d4:	4619      	movne	r1, r3
 80006d6:	4610      	movne	r0, r2
 80006d8:	ea7f 5c65 	mvnseq.w	ip, r5, asr #21
 80006dc:	bf1c      	itt	ne
 80006de:	460b      	movne	r3, r1
 80006e0:	4602      	movne	r2, r0
 80006e2:	ea50 3401 	orrs.w	r4, r0, r1, lsl #12
 80006e6:	bf06      	itte	eq
 80006e8:	ea52 3503 	orrseq.w	r5, r2, r3, lsl #12
 80006ec:	ea91 0f03 	teqeq	r1, r3
 80006f0:	f441 2100 	orrne.w	r1, r1, #524288	@ 0x80000
 80006f4:	bd30      	pop	{r4, r5, pc}
 80006f6:	bf00      	nop

080006f8 <__aeabi_ui2d>:
 80006f8:	f090 0f00 	teq	r0, #0
 80006fc:	bf04      	itt	eq
 80006fe:	2100      	moveq	r1, #0
 8000700:	4770      	bxeq	lr
 8000702:	b530      	push	{r4, r5, lr}
 8000704:	f44f 6480 	mov.w	r4, #1024	@ 0x400
 8000708:	f104 0432 	add.w	r4, r4, #50	@ 0x32
 800070c:	f04f 0500 	mov.w	r5, #0
 8000710:	f04f 0100 	mov.w	r1, #0
 8000714:	e750      	b.n	80005b8 <__adddf3+0x138>
 8000716:	bf00      	nop

08000718 <__aeabi_i2d>:
 8000718:	f090 0f00 	teq	r0, #0
 800071c:	bf04      	itt	eq
 800071e:	2100      	moveq	r1, #0
 8000720:	4770      	bxeq	lr
 8000722:	b530      	push	{r4, r5, lr}
 8000724:	f44f 6480 	mov.w	r4, #1024	@ 0x400
 8000728:	f104 0432 	add.w	r4, r4, #50	@ 0x32
 800072c:	f010 4500 	ands.w	r5, r0, #2147483648	@ 0x80000000
 8000730:	bf48      	it	mi
 8000732:	4240      	negmi	r0, r0
 8000734:	f04f 0100 	mov.w	r1, #0
 8000738:	e73e      	b.n	80005b8 <__adddf3+0x138>
 800073a:	bf00      	nop

0800073c <__aeabi_f2d>:
 800073c:	0042      	lsls	r2, r0, #1
 800073e:	ea4f 01e2 	mov.w	r1, r2, asr #3
 8000742:	ea4f 0131 	mov.w	r1, r1, rrx
 8000746:	ea4f 7002 	mov.w	r0, r2, lsl #28
 800074a:	bf1f      	itttt	ne
 800074c:	f012 437f 	andsne.w	r3, r2, #4278190080	@ 0xff000000
 8000750:	f093 4f7f 	teqne	r3, #4278190080	@ 0xff000000
 8000754:	f081 5160 	eorne.w	r1, r1, #939524096	@ 0x38000000
 8000758:	4770      	bxne	lr
 800075a:	f032 427f 	bics.w	r2, r2, #4278190080	@ 0xff000000
 800075e:	bf08      	it	eq
 8000760:	4770      	bxeq	lr
 8000762:	f093 4f7f 	teq	r3, #4278190080	@ 0xff000000
 8000766:	bf04      	itt	eq
 8000768:	f441 2100 	orreq.w	r1, r1, #524288	@ 0x80000
 800076c:	4770      	bxeq	lr
 800076e:	b530      	push	{r4, r5, lr}
 8000770:	f44f 7460 	mov.w	r4, #896	@ 0x380
 8000774:	f001 4500 	and.w	r5, r1, #2147483648	@ 0x80000000
 8000778:	f021 4100 	bic.w	r1, r1, #2147483648	@ 0x80000000
 800077c:	e71c      	b.n	80005b8 <__adddf3+0x138>
 800077e:	bf00      	nop

08000780 <__aeabi_ul2d>:
 8000780:	ea50 0201 	orrs.w	r2, r0, r1
 8000784:	bf08      	it	eq
 8000786:	4770      	bxeq	lr
 8000788:	b530      	push	{r4, r5, lr}
 800078a:	f04f 0500 	mov.w	r5, #0
 800078e:	e00a      	b.n	80007a6 <__aeabi_l2d+0x16>

08000790 <__aeabi_l2d>:
 8000790:	ea50 0201 	orrs.w	r2, r0, r1
 8000794:	bf08      	it	eq
 8000796:	4770      	bxeq	lr
 8000798:	b530      	push	{r4, r5, lr}
 800079a:	f011 4500 	ands.w	r5, r1, #2147483648	@ 0x80000000
 800079e:	d502      	bpl.n	80007a6 <__aeabi_l2d+0x16>
 80007a0:	4240      	negs	r0, r0
 80007a2:	eb61 0141 	sbc.w	r1, r1, r1, lsl #1
 80007a6:	f44f 6480 	mov.w	r4, #1024	@ 0x400
 80007aa:	f104 0432 	add.w	r4, r4, #50	@ 0x32
 80007ae:	ea5f 5c91 	movs.w	ip, r1, lsr #22
 80007b2:	f43f aed8 	beq.w	8000566 <__adddf3+0xe6>
 80007b6:	f04f 0203 	mov.w	r2, #3
 80007ba:	ea5f 0cdc 	movs.w	ip, ip, lsr #3
 80007be:	bf18      	it	ne
 80007c0:	3203      	addne	r2, #3
 80007c2:	ea5f 0cdc 	movs.w	ip, ip, lsr #3
 80007c6:	bf18      	it	ne
 80007c8:	3203      	addne	r2, #3
 80007ca:	eb02 02dc 	add.w	r2, r2, ip, lsr #3
 80007ce:	f1c2 0320 	rsb	r3, r2, #32
 80007d2:	fa00 fc03 	lsl.w	ip, r0, r3
 80007d6:	fa20 f002 	lsr.w	r0, r0, r2
 80007da:	fa01 fe03 	lsl.w	lr, r1, r3
 80007de:	ea40 000e 	orr.w	r0, r0, lr
 80007e2:	fa21 f102 	lsr.w	r1, r1, r2
 80007e6:	4414      	add	r4, r2
 80007e8:	e6bd      	b.n	8000566 <__adddf3+0xe6>
 80007ea:	bf00      	nop

080007ec <__aeabi_d2iz>:
 80007ec:	ea4f 0241 	mov.w	r2, r1, lsl #1
 80007f0:	f512 1200 	adds.w	r2, r2, #2097152	@ 0x200000
 80007f4:	d215      	bcs.n	8000822 <__aeabi_d2iz+0x36>
 80007f6:	d511      	bpl.n	800081c <__aeabi_d2iz+0x30>
 80007f8:	f46f 7378 	mvn.w	r3, #992	@ 0x3e0
 80007fc:	ebb3 5262 	subs.w	r2, r3, r2, asr #21
 8000800:	d912      	bls.n	8000828 <__aeabi_d2iz+0x3c>
 8000802:	ea4f 23c1 	mov.w	r3, r1, lsl #11
 8000806:	f043 4300 	orr.w	r3, r3, #2147483648	@ 0x80000000
 800080a:	ea43 5350 	orr.w	r3, r3, r0, lsr #21
 800080e:	f011 4f00 	tst.w	r1, #2147483648	@ 0x80000000
 8000812:	fa23 f002 	lsr.w	r0, r3, r2
 8000816:	bf18      	it	ne
 8000818:	4240      	negne	r0, r0
 800081a:	4770      	bx	lr
 800081c:	f04f 0000 	mov.w	r0, #0
 8000820:	4770      	bx	lr
 8000822:	ea50 3001 	orrs.w	r0, r0, r1, lsl #12
 8000826:	d105      	bne.n	8000834 <__aeabi_d2iz+0x48>
 8000828:	f011 4000 	ands.w	r0, r1, #2147483648	@ 0x80000000
 800082c:	bf08      	it	eq
 800082e:	f06f 4000 	mvneq.w	r0, #2147483648	@ 0x80000000
 8000832:	4770      	bx	lr
 8000834:	f04f 0000 	mov.w	r0, #0
 8000838:	4770      	bx	lr
 800083a:	bf00      	nop

0800083c <__aeabi_frsub>:
 800083c:	f080 4000 	eor.w	r0, r0, #2147483648	@ 0x80000000
 8000840:	e002      	b.n	8000848 <__addsf3>
 8000842:	bf00      	nop

08000844 <__aeabi_fsub>:
 8000844:	f081 4100 	eor.w	r1, r1, #2147483648	@ 0x80000000

08000848 <__addsf3>:
 8000848:	0042      	lsls	r2, r0, #1
 800084a:	bf1f      	itttt	ne
 800084c:	ea5f 0341 	movsne.w	r3, r1, lsl #1
 8000850:	ea92 0f03 	teqne	r2, r3
 8000854:	ea7f 6c22 	mvnsne.w	ip, r2, asr #24
 8000858:	ea7f 6c23 	mvnsne.w	ip, r3, asr #24
 800085c:	d06a      	beq.n	8000934 <__addsf3+0xec>
 800085e:	ea4f 6212 	mov.w	r2, r2, lsr #24
 8000862:	ebd2 6313 	rsbs	r3, r2, r3, lsr #24
 8000866:	bfc1      	itttt	gt
 8000868:	18d2      	addgt	r2, r2, r3
 800086a:	4041      	eorgt	r1, r0
 800086c:	4048      	eorgt	r0, r1
 800086e:	4041      	eorgt	r1, r0
 8000870:	bfb8      	it	lt
 8000872:	425b      	neglt	r3, r3
 8000874:	2b19      	cmp	r3, #25
 8000876:	bf88      	it	hi
 8000878:	4770      	bxhi	lr
 800087a:	f010 4f00 	tst.w	r0, #2147483648	@ 0x80000000
 800087e:	f440 0000 	orr.w	r0, r0, #8388608	@ 0x800000
 8000882:	f020 407f 	bic.w	r0, r0, #4278190080	@ 0xff000000
 8000886:	bf18      	it	ne
 8000888:	4240      	negne	r0, r0
 800088a:	f011 4f00 	tst.w	r1, #2147483648	@ 0x80000000
 800088e:	f441 0100 	orr.w	r1, r1, #8388608	@ 0x800000
 8000892:	f021 417f 	bic.w	r1, r1, #4278190080	@ 0xff000000
 8000896:	bf18      	it	ne
 8000898:	4249      	negne	r1, r1
 800089a:	ea92 0f03 	teq	r2, r3
 800089e:	d03f      	beq.n	8000920 <__addsf3+0xd8>
 80008a0:	f1a2 0201 	sub.w	r2, r2, #1
 80008a4:	fa41 fc03 	asr.w	ip, r1, r3
 80008a8:	eb10 000c 	adds.w	r0, r0, ip
 80008ac:	f1c3 0320 	rsb	r3, r3, #32
 80008b0:	fa01 f103 	lsl.w	r1, r1, r3
 80008b4:	f000 4300 	and.w	r3, r0, #2147483648	@ 0x80000000
 80008b8:	d502      	bpl.n	80008c0 <__addsf3+0x78>
 80008ba:	4249      	negs	r1, r1
 80008bc:	eb60 0040 	sbc.w	r0, r0, r0, lsl #1
 80008c0:	f5b0 0f00 	cmp.w	r0, #8388608	@ 0x800000
 80008c4:	d313      	bcc.n	80008ee <__addsf3+0xa6>
 80008c6:	f1b0 7f80 	cmp.w	r0, #16777216	@ 0x1000000
 80008ca:	d306      	bcc.n	80008da <__addsf3+0x92>
 80008cc:	0840      	lsrs	r0, r0, #1
 80008ce:	ea4f 0131 	mov.w	r1, r1, rrx
 80008d2:	f102 0201 	add.w	r2, r2, #1
 80008d6:	2afe      	cmp	r2, #254	@ 0xfe
 80008d8:	d251      	bcs.n	800097e <__addsf3+0x136>
 80008da:	f1b1 4f00 	cmp.w	r1, #2147483648	@ 0x80000000
 80008de:	eb40 50c2 	adc.w	r0, r0, r2, lsl #23
 80008e2:	bf08      	it	eq
 80008e4:	f020 0001 	biceq.w	r0, r0, #1
 80008e8:	ea40 0003 	orr.w	r0, r0, r3
 80008ec:	4770      	bx	lr
 80008ee:	0049      	lsls	r1, r1, #1
 80008f0:	eb40 0000 	adc.w	r0, r0, r0
 80008f4:	3a01      	subs	r2, #1
 80008f6:	bf28      	it	cs
 80008f8:	f5b0 0f00 	cmpcs.w	r0, #8388608	@ 0x800000
 80008fc:	d2ed      	bcs.n	80008da <__addsf3+0x92>
 80008fe:	fab0 fc80 	clz	ip, r0
 8000902:	f1ac 0c08 	sub.w	ip, ip, #8
 8000906:	ebb2 020c 	subs.w	r2, r2, ip
 800090a:	fa00 f00c 	lsl.w	r0, r0, ip
 800090e:	bfaa      	itet	ge
 8000910:	eb00 50c2 	addge.w	r0, r0, r2, lsl #23
 8000914:	4252      	neglt	r2, r2
 8000916:	4318      	orrge	r0, r3
 8000918:	bfbc      	itt	lt
 800091a:	40d0      	lsrlt	r0, r2
 800091c:	4318      	orrlt	r0, r3
 800091e:	4770      	bx	lr
 8000920:	f092 0f00 	teq	r2, #0
 8000924:	f481 0100 	eor.w	r1, r1, #8388608	@ 0x800000
 8000928:	bf06      	itte	eq
 800092a:	f480 0000 	eoreq.w	r0, r0, #8388608	@ 0x800000
 800092e:	3201      	addeq	r2, #1
 8000930:	3b01      	subne	r3, #1
 8000932:	e7b5      	b.n	80008a0 <__addsf3+0x58>
 8000934:	ea4f 0341 	mov.w	r3, r1, lsl #1
 8000938:	ea7f 6c22 	mvns.w	ip, r2, asr #24
 800093c:	bf18      	it	ne
 800093e:	ea7f 6c23 	mvnsne.w	ip, r3, asr #24
 8000942:	d021      	beq.n	8000988 <__addsf3+0x140>
 8000944:	ea92 0f03 	teq	r2, r3
 8000948:	d004      	beq.n	8000954 <__addsf3+0x10c>
 800094a:	f092 0f00 	teq	r2, #0
 800094e:	bf08      	it	eq
 8000950:	4608      	moveq	r0, r1
 8000952:	4770      	bx	lr
 8000954:	ea90 0f01 	teq	r0, r1
 8000958:	bf1c      	itt	ne
 800095a:	2000      	movne	r0, #0
 800095c:	4770      	bxne	lr
 800095e:	f012 4f7f 	tst.w	r2, #4278190080	@ 0xff000000
 8000962:	d104      	bne.n	800096e <__addsf3+0x126>
 8000964:	0040      	lsls	r0, r0, #1
 8000966:	bf28      	it	cs
 8000968:	f040 4000 	orrcs.w	r0, r0, #2147483648	@ 0x80000000
 800096c:	4770      	bx	lr
 800096e:	f112 7200 	adds.w	r2, r2, #33554432	@ 0x2000000
 8000972:	bf3c      	itt	cc
 8000974:	f500 0000 	addcc.w	r0, r0, #8388608	@ 0x800000
 8000978:	4770      	bxcc	lr
 800097a:	f000 4300 	and.w	r3, r0, #2147483648	@ 0x80000000
 800097e:	f043 40fe 	orr.w	r0, r3, #2130706432	@ 0x7f000000
 8000982:	f440 0000 	orr.w	r0, r0, #8388608	@ 0x800000
 8000986:	4770      	bx	lr
 8000988:	ea7f 6222 	mvns.w	r2, r2, asr #24
 800098c:	bf16      	itet	ne
 800098e:	4608      	movne	r0, r1
 8000990:	ea7f 6323 	mvnseq.w	r3, r3, asr #24
 8000994:	4601      	movne	r1, r0
 8000996:	0242      	lsls	r2, r0, #9
 8000998:	bf06      	itte	eq
 800099a:	ea5f 2341 	movseq.w	r3, r1, lsl #9
 800099e:	ea90 0f01 	teqeq	r0, r1
 80009a2:	f440 0080 	orrne.w	r0, r0, #4194304	@ 0x400000
 80009a6:	4770      	bx	lr

080009a8 <__aeabi_ui2f>:
 80009a8:	f04f 0300 	mov.w	r3, #0
 80009ac:	e004      	b.n	80009b8 <__aeabi_i2f+0x8>
 80009ae:	bf00      	nop

080009b0 <__aeabi_i2f>:
 80009b0:	f010 4300 	ands.w	r3, r0, #2147483648	@ 0x80000000
 80009b4:	bf48      	it	mi
 80009b6:	4240      	negmi	r0, r0
 80009b8:	ea5f 0c00 	movs.w	ip, r0
 80009bc:	bf08      	it	eq
 80009be:	4770      	bxeq	lr
 80009c0:	f043 4396 	orr.w	r3, r3, #1258291200	@ 0x4b000000
 80009c4:	4601      	mov	r1, r0
 80009c6:	f04f 0000 	mov.w	r0, #0
 80009ca:	e01c      	b.n	8000a06 <__aeabi_l2f+0x2a>

080009cc <__aeabi_ul2f>:
 80009cc:	ea50 0201 	orrs.w	r2, r0, r1
 80009d0:	bf08      	it	eq
 80009d2:	4770      	bxeq	lr
 80009d4:	f04f 0300 	mov.w	r3, #0
 80009d8:	e00a      	b.n	80009f0 <__aeabi_l2f+0x14>
 80009da:	bf00      	nop

080009dc <__aeabi_l2f>:
 80009dc:	ea50 0201 	orrs.w	r2, r0, r1
 80009e0:	bf08      	it	eq
 80009e2:	4770      	bxeq	lr
 80009e4:	f011 4300 	ands.w	r3, r1, #2147483648	@ 0x80000000
 80009e8:	d502      	bpl.n	80009f0 <__aeabi_l2f+0x14>
 80009ea:	4240      	negs	r0, r0
 80009ec:	eb61 0141 	sbc.w	r1, r1, r1, lsl #1
 80009f0:	ea5f 0c01 	movs.w	ip, r1
 80009f4:	bf02      	ittt	eq
 80009f6:	4684      	moveq	ip, r0
 80009f8:	4601      	moveq	r1, r0
 80009fa:	2000      	moveq	r0, #0
 80009fc:	f043 43b6 	orr.w	r3, r3, #1526726656	@ 0x5b000000
 8000a00:	bf08      	it	eq
 8000a02:	f1a3 5380 	subeq.w	r3, r3, #268435456	@ 0x10000000
 8000a06:	f5a3 0300 	sub.w	r3, r3, #8388608	@ 0x800000
 8000a0a:	fabc f28c 	clz	r2, ip
 8000a0e:	3a08      	subs	r2, #8
 8000a10:	eba3 53c2 	sub.w	r3, r3, r2, lsl #23
 8000a14:	db10      	blt.n	8000a38 <__aeabi_l2f+0x5c>
 8000a16:	fa01 fc02 	lsl.w	ip, r1, r2
 8000a1a:	4463      	add	r3, ip
 8000a1c:	fa00 fc02 	lsl.w	ip, r0, r2
 8000a20:	f1c2 0220 	rsb	r2, r2, #32
 8000a24:	f1bc 4f00 	cmp.w	ip, #2147483648	@ 0x80000000
 8000a28:	fa20 f202 	lsr.w	r2, r0, r2
 8000a2c:	eb43 0002 	adc.w	r0, r3, r2
 8000a30:	bf08      	it	eq
 8000a32:	f020 0001 	biceq.w	r0, r0, #1
 8000a36:	4770      	bx	lr
 8000a38:	f102 0220 	add.w	r2, r2, #32
 8000a3c:	fa01 fc02 	lsl.w	ip, r1, r2
 8000a40:	f1c2 0220 	rsb	r2, r2, #32
 8000a44:	ea50 004c 	orrs.w	r0, r0, ip, lsl #1
 8000a48:	fa21 f202 	lsr.w	r2, r1, r2
 8000a4c:	eb43 0002 	adc.w	r0, r3, r2
 8000a50:	bf08      	it	eq
 8000a52:	ea20 70dc 	biceq.w	r0, r0, ip, lsr #31
 8000a56:	4770      	bx	lr

08000a58 <_ZN8PUTM_CAN6DeviceINS_13RearboxSafetyEE8set_dataERKNS_14Can_rx_messageE>:
 8000a58:	2301      	movs	r3, #1
 8000a5a:	7183      	strb	r3, [r0, #6]
 8000a5c:	8d0b      	ldrh	r3, [r1, #40]	@ 0x28
 8000a5e:	f8a0 3007 	strh.w	r3, [r0, #7]
 8000a62:	4770      	bx	lr

08000a64 <_ZN8PUTM_CAN6DeviceINS_9DashboardEE8set_dataERKNS_14Can_rx_messageE>:
 8000a64:	2301      	movs	r3, #1
 8000a66:	7183      	strb	r3, [r0, #6]
 8000a68:	f891 3028 	ldrb.w	r3, [r1, #40]	@ 0x28
 8000a6c:	71c3      	strb	r3, [r0, #7]
 8000a6e:	4770      	bx	lr

08000a70 <_ZN8PUTM_CAN6DeviceINS_16DataLoggerStatusEE8set_dataERKNS_14Can_rx_messageE>:
 8000a70:	2301      	movs	r3, #1
 8000a72:	7183      	strb	r3, [r0, #6]
 8000a74:	6a8b      	ldr	r3, [r1, #40]	@ 0x28
 8000a76:	f8c0 3007 	str.w	r3, [r0, #7]
 8000a7a:	8d8b      	ldrh	r3, [r1, #44]	@ 0x2c
 8000a7c:	f8a0 300b 	strh.w	r3, [r0, #11]
 8000a80:	4770      	bx	lr

08000a82 <_ZN8PUTM_CAN6DeviceINS_18BMS_LV_temperatureEE8set_dataERKNS_14Can_rx_messageE>:
 8000a82:	2301      	movs	r3, #1
 8000a84:	7183      	strb	r3, [r0, #6]
 8000a86:	6a8b      	ldr	r3, [r1, #40]	@ 0x28
 8000a88:	f8c0 3007 	str.w	r3, [r0, #7]
 8000a8c:	6acb      	ldr	r3, [r1, #44]	@ 0x2c
 8000a8e:	f8c0 300b 	str.w	r3, [r0, #11]
 8000a92:	4770      	bx	lr

08000a94 <_ZN8PUTM_CAN6DeviceINS_11BMS_LV_mainEE8set_dataERKNS_14Can_rx_messageE>:
 8000a94:	2301      	movs	r3, #1
 8000a96:	7183      	strb	r3, [r0, #6]
 8000a98:	6a8b      	ldr	r3, [r1, #40]	@ 0x28
 8000a9a:	f8c0 3007 	str.w	r3, [r0, #7]
 8000a9e:	8d8b      	ldrh	r3, [r1, #44]	@ 0x2c
 8000aa0:	f8a0 300b 	strh.w	r3, [r0, #11]
 8000aa4:	4770      	bx	lr

08000aa6 <_ZN8PUTM_CAN6DeviceINS_11BMS_HV_mainEE8set_dataERKNS_14Can_rx_messageE>:
 8000aa6:	2301      	movs	r3, #1
 8000aa8:	7183      	strb	r3, [r0, #6]
 8000aaa:	6a8b      	ldr	r3, [r1, #40]	@ 0x28
 8000aac:	f8c0 3007 	str.w	r3, [r0, #7]
 8000ab0:	6acb      	ldr	r3, [r1, #44]	@ 0x2c
 8000ab2:	f8c0 300b 	str.w	r3, [r0, #11]
 8000ab6:	4770      	bx	lr

08000ab8 <_ZN8PUTM_CAN6DeviceINS_9FrontDataEE8set_dataERKNS_14Can_rx_messageE>:
 8000ab8:	2301      	movs	r3, #1
 8000aba:	7183      	strb	r3, [r0, #6]
 8000abc:	6a8b      	ldr	r3, [r1, #40]	@ 0x28
 8000abe:	f8c0 3007 	str.w	r3, [r0, #7]
 8000ac2:	8d8b      	ldrh	r3, [r1, #44]	@ 0x2c
 8000ac4:	f8a0 300b 	strh.w	r3, [r0, #11]
 8000ac8:	f891 302e 	ldrb.w	r3, [r1, #46]	@ 0x2e
 8000acc:	7343      	strb	r3, [r0, #13]
 8000ace:	4770      	bx	lr

08000ad0 <_ZN8PUTM_CAN6DeviceINS_7PduDataEE8set_dataERKNS_14Can_rx_messageE>:
 8000ad0:	2301      	movs	r3, #1
 8000ad2:	7183      	strb	r3, [r0, #6]
 8000ad4:	6a8b      	ldr	r3, [r1, #40]	@ 0x28
 8000ad6:	f8c0 3007 	str.w	r3, [r0, #7]
 8000ada:	6acb      	ldr	r3, [r1, #44]	@ 0x2c
 8000adc:	f8c0 300b 	str.w	r3, [r0, #11]
 8000ae0:	4770      	bx	lr

08000ae2 <_ZN8PUTM_CAN6DeviceINS_10PduChannelEE8set_dataERKNS_14Can_rx_messageE>:
 8000ae2:	2301      	movs	r3, #1
 8000ae4:	7183      	strb	r3, [r0, #6]
 8000ae6:	8d0b      	ldrh	r3, [r1, #40]	@ 0x28
 8000ae8:	f8a0 3007 	strh.w	r3, [r0, #7]
 8000aec:	f891 302a 	ldrb.w	r3, [r1, #42]	@ 0x2a
 8000af0:	7243      	strb	r3, [r0, #9]
 8000af2:	4770      	bx	lr

08000af4 <_ZN8PUTM_CAN6DeviceINS_17PcTemperatureDataEE8set_dataERKNS_14Can_rx_messageE>:
 8000af4:	2301      	movs	r3, #1
 8000af6:	7183      	strb	r3, [r0, #6]
 8000af8:	6a8b      	ldr	r3, [r1, #40]	@ 0x28
 8000afa:	f8c0 3007 	str.w	r3, [r0, #7]
 8000afe:	6acb      	ldr	r3, [r1, #44]	@ 0x2c
 8000b00:	f8c0 300b 	str.w	r3, [r0, #11]
 8000b04:	4770      	bx	lr

08000b06 <_ZN8PUTM_CAN6DeviceINS_14PcLapTimerDataEE8set_dataERKNS_14Can_rx_messageE>:
 8000b06:	2301      	movs	r3, #1
 8000b08:	7183      	strb	r3, [r0, #6]
 8000b0a:	6a8b      	ldr	r3, [r1, #40]	@ 0x28
 8000b0c:	f8c0 3007 	str.w	r3, [r0, #7]
 8000b10:	8d8b      	ldrh	r3, [r1, #44]	@ 0x2c
 8000b12:	f8a0 300b 	strh.w	r3, [r0, #11]
 8000b16:	f891 302e 	ldrb.w	r3, [r1, #46]	@ 0x2e
 8000b1a:	7343      	strb	r3, [r0, #13]
 8000b1c:	4770      	bx	lr

08000b1e <_ZN8PUTM_CAN6DeviceINS_10PcMainDataEE8set_dataERKNS_14Can_rx_messageE>:
 8000b1e:	2301      	movs	r3, #1
 8000b20:	7183      	strb	r3, [r0, #6]
 8000b22:	6a8b      	ldr	r3, [r1, #40]	@ 0x28
 8000b24:	f8c0 3007 	str.w	r3, [r0, #7]
 8000b28:	8d8b      	ldrh	r3, [r1, #44]	@ 0x2c
 8000b2a:	f8a0 300b 	strh.w	r3, [r0, #11]
 8000b2e:	4770      	bx	lr

08000b30 <_ZN8PUTM_CAN6DeviceINS_20RearboxMiscellaneousEE8set_dataERKNS_14Can_rx_messageE>:
 8000b30:	2301      	movs	r3, #1
 8000b32:	7183      	strb	r3, [r0, #6]
 8000b34:	6a8b      	ldr	r3, [r1, #40]	@ 0x28
 8000b36:	f8c0 3007 	str.w	r3, [r0, #7]
 8000b3a:	8d8b      	ldrh	r3, [r1, #44]	@ 0x2c
 8000b3c:	f8a0 300b 	strh.w	r3, [r0, #11]
 8000b40:	4770      	bx	lr

08000b42 <_ZN8PUTM_CAN6DeviceINS_18RearboxTemperatureEE8set_dataERKNS_14Can_rx_messageE>:
 8000b42:	2301      	movs	r3, #1
 8000b44:	7183      	strb	r3, [r0, #6]
 8000b46:	6a8b      	ldr	r3, [r1, #40]	@ 0x28
 8000b48:	f8c0 3007 	str.w	r3, [r0, #7]
 8000b4c:	f891 302c 	ldrb.w	r3, [r1, #44]	@ 0x2c
 8000b50:	72c3      	strb	r3, [r0, #11]
 8000b52:	4770      	bx	lr

08000b54 <_ZN8PUTM_CAN6DeviceINS_22AmkRearRightSetpoints1EE8set_dataERKNS_14Can_rx_messageE>:
 8000b54:	2301      	movs	r3, #1
 8000b56:	7183      	strb	r3, [r0, #6]
 8000b58:	6a8b      	ldr	r3, [r1, #40]	@ 0x28
 8000b5a:	f8c0 3007 	str.w	r3, [r0, #7]
 8000b5e:	6acb      	ldr	r3, [r1, #44]	@ 0x2c
 8000b60:	f8c0 300b 	str.w	r3, [r0, #11]
 8000b64:	4770      	bx	lr

08000b66 <_ZN8PUTM_CAN6DeviceINS_21AmkRearLeftSetpoints1EE8set_dataERKNS_14Can_rx_messageE>:
 8000b66:	2301      	movs	r3, #1
 8000b68:	7183      	strb	r3, [r0, #6]
 8000b6a:	6a8b      	ldr	r3, [r1, #40]	@ 0x28
 8000b6c:	f8c0 3007 	str.w	r3, [r0, #7]
 8000b70:	6acb      	ldr	r3, [r1, #44]	@ 0x2c
 8000b72:	f8c0 300b 	str.w	r3, [r0, #11]
 8000b76:	4770      	bx	lr

08000b78 <_ZN8PUTM_CAN6DeviceINS_23AmkFrontRightSetpoints1EE8set_dataERKNS_14Can_rx_messageE>:
 8000b78:	2301      	movs	r3, #1
 8000b7a:	7183      	strb	r3, [r0, #6]
 8000b7c:	6a8b      	ldr	r3, [r1, #40]	@ 0x28
 8000b7e:	f8c0 3007 	str.w	r3, [r0, #7]
 8000b82:	6acb      	ldr	r3, [r1, #44]	@ 0x2c
 8000b84:	f8c0 300b 	str.w	r3, [r0, #11]
 8000b88:	4770      	bx	lr

08000b8a <_ZN8PUTM_CAN6DeviceINS_22AmkFrontLeftSetpoints1EE8set_dataERKNS_14Can_rx_messageE>:
 8000b8a:	2301      	movs	r3, #1
 8000b8c:	7183      	strb	r3, [r0, #6]
 8000b8e:	6a8b      	ldr	r3, [r1, #40]	@ 0x28
 8000b90:	f8c0 3007 	str.w	r3, [r0, #7]
 8000b94:	6acb      	ldr	r3, [r1, #44]	@ 0x2c
 8000b96:	f8c0 300b 	str.w	r3, [r0, #11]
 8000b9a:	4770      	bx	lr

08000b9c <_ZN8PUTM_CAN6DeviceINS_25AmkRearRightActualValues2EE8set_dataERKNS_14Can_rx_messageE>:
 8000b9c:	2301      	movs	r3, #1
 8000b9e:	7183      	strb	r3, [r0, #6]
 8000ba0:	6a8b      	ldr	r3, [r1, #40]	@ 0x28
 8000ba2:	f8c0 3007 	str.w	r3, [r0, #7]
 8000ba6:	6acb      	ldr	r3, [r1, #44]	@ 0x2c
 8000ba8:	f8c0 300b 	str.w	r3, [r0, #11]
 8000bac:	4770      	bx	lr

08000bae <_ZN8PUTM_CAN6DeviceINS_24AmkRearLeftActualValues2EE8set_dataERKNS_14Can_rx_messageE>:
 8000bae:	2301      	movs	r3, #1
 8000bb0:	7183      	strb	r3, [r0, #6]
 8000bb2:	6a8b      	ldr	r3, [r1, #40]	@ 0x28
 8000bb4:	f8c0 3007 	str.w	r3, [r0, #7]
 8000bb8:	6acb      	ldr	r3, [r1, #44]	@ 0x2c
 8000bba:	f8c0 300b 	str.w	r3, [r0, #11]
 8000bbe:	4770      	bx	lr

08000bc0 <_ZN8PUTM_CAN6DeviceINS_26AmkFrontRightActualValues2EE8set_dataERKNS_14Can_rx_messageE>:
 8000bc0:	2301      	movs	r3, #1
 8000bc2:	7183      	strb	r3, [r0, #6]
 8000bc4:	6a8b      	ldr	r3, [r1, #40]	@ 0x28
 8000bc6:	f8c0 3007 	str.w	r3, [r0, #7]
 8000bca:	6acb      	ldr	r3, [r1, #44]	@ 0x2c
 8000bcc:	f8c0 300b 	str.w	r3, [r0, #11]
 8000bd0:	4770      	bx	lr

08000bd2 <_ZN8PUTM_CAN6DeviceINS_25AmkFrontLeftActualValues2EE8set_dataERKNS_14Can_rx_messageE>:
 8000bd2:	2301      	movs	r3, #1
 8000bd4:	7183      	strb	r3, [r0, #6]
 8000bd6:	6a8b      	ldr	r3, [r1, #40]	@ 0x28
 8000bd8:	f8c0 3007 	str.w	r3, [r0, #7]
 8000bdc:	6acb      	ldr	r3, [r1, #44]	@ 0x2c
 8000bde:	f8c0 300b 	str.w	r3, [r0, #11]
 8000be2:	4770      	bx	lr

08000be4 <_ZN8PUTM_CAN6DeviceINS_25AmkRearRightActualValues1EE8set_dataERKNS_14Can_rx_messageE>:
 8000be4:	2301      	movs	r3, #1
 8000be6:	7183      	strb	r3, [r0, #6]
 8000be8:	6a8b      	ldr	r3, [r1, #40]	@ 0x28
 8000bea:	f8c0 3007 	str.w	r3, [r0, #7]
 8000bee:	6acb      	ldr	r3, [r1, #44]	@ 0x2c
 8000bf0:	f8c0 300b 	str.w	r3, [r0, #11]
 8000bf4:	4770      	bx	lr

08000bf6 <_ZN8PUTM_CAN6DeviceINS_24AmkRearLeftActualValues1EE8set_dataERKNS_14Can_rx_messageE>:
 8000bf6:	2301      	movs	r3, #1
 8000bf8:	7183      	strb	r3, [r0, #6]
 8000bfa:	6a8b      	ldr	r3, [r1, #40]	@ 0x28
 8000bfc:	f8c0 3007 	str.w	r3, [r0, #7]
 8000c00:	6acb      	ldr	r3, [r1, #44]	@ 0x2c
 8000c02:	f8c0 300b 	str.w	r3, [r0, #11]
 8000c06:	4770      	bx	lr

08000c08 <_ZN8PUTM_CAN6DeviceINS_26AmkFrontRightActualValues1EE8set_dataERKNS_14Can_rx_messageE>:
 8000c08:	2301      	movs	r3, #1
 8000c0a:	7183      	strb	r3, [r0, #6]
 8000c0c:	6a8b      	ldr	r3, [r1, #40]	@ 0x28
 8000c0e:	f8c0 3007 	str.w	r3, [r0, #7]
 8000c12:	6acb      	ldr	r3, [r1, #44]	@ 0x2c
 8000c14:	f8c0 300b 	str.w	r3, [r0, #11]
 8000c18:	4770      	bx	lr

08000c1a <_ZN8PUTM_CAN6DeviceINS_25AmkFrontLeftActualValues1EE8set_dataERKNS_14Can_rx_messageE>:
 8000c1a:	2301      	movs	r3, #1
 8000c1c:	7183      	strb	r3, [r0, #6]
 8000c1e:	6a8b      	ldr	r3, [r1, #40]	@ 0x28
 8000c20:	f8c0 3007 	str.w	r3, [r0, #7]
 8000c24:	6acb      	ldr	r3, [r1, #44]	@ 0x2c
 8000c26:	f8c0 300b 	str.w	r3, [r0, #11]
 8000c2a:	4770      	bx	lr

08000c2c <_ZN8PUTM_CAN6DeviceINS_11DriverInputEE8set_dataERKNS_14Can_rx_messageE>:
 8000c2c:	2301      	movs	r3, #1
 8000c2e:	7183      	strb	r3, [r0, #6]
 8000c30:	6a8b      	ldr	r3, [r1, #40]	@ 0x28
 8000c32:	f8c0 3007 	str.w	r3, [r0, #7]
 8000c36:	6acb      	ldr	r3, [r1, #44]	@ 0x2c
 8000c38:	f8c0 300b 	str.w	r3, [r0, #11]
 8000c3c:	4770      	bx	lr
	...

08000c40 <_Z14StartBlinkTaskPv>:
 8000c40:	b570      	push	{r4, r5, r6, lr}
 8000c42:	f44f 70fa 	mov.w	r0, #500	@ 0x1f4
 8000c46:	f004 f931 	bl	8004eac <osDelay>
 8000c4a:	4c10      	ldr	r4, [pc, #64]	@ (8000c8c <_Z14StartBlinkTaskPv+0x4c>)
 8000c4c:	4d10      	ldr	r5, [pc, #64]	@ (8000c90 <_Z14StartBlinkTaskPv+0x50>)
 8000c4e:	f04f 0600 	mov.w	r6, #0
 8000c52:	f894 30f3 	ldrb.w	r3, [r4, #243]	@ 0xf3
 8000c56:	f884 60f3 	strb.w	r6, [r4, #243]	@ 0xf3
 8000c5a:	b12b      	cbz	r3, 8000c68 <_Z14StartBlinkTaskPv+0x28>
 8000c5c:	f894 30f8 	ldrb.w	r3, [r4, #248]	@ 0xf8
 8000c60:	4a0c      	ldr	r2, [pc, #48]	@ (8000c94 <_Z14StartBlinkTaskPv+0x54>)
 8000c62:	f3c3 0340 	ubfx	r3, r3, #1, #1
 8000c66:	7013      	strb	r3, [r2, #0]
 8000c68:	2032      	movs	r0, #50	@ 0x32
 8000c6a:	7566      	strb	r6, [r4, #21]
 8000c6c:	f004 f91e 	bl	8004eac <osDelay>
 8000c70:	2201      	movs	r2, #1
 8000c72:	4628      	mov	r0, r5
 8000c74:	2140      	movs	r1, #64	@ 0x40
 8000c76:	f003 f83d 	bl	8003cf4 <HAL_GPIO_WritePin>
 8000c7a:	4628      	mov	r0, r5
 8000c7c:	2180      	movs	r1, #128	@ 0x80
 8000c7e:	f003 f83e 	bl	8003cfe <HAL_GPIO_TogglePin>
 8000c82:	4805      	ldr	r0, [pc, #20]	@ (8000c98 <_Z14StartBlinkTaskPv+0x58>)
 8000c84:	f003 f844 	bl	8003d10 <HAL_IWDG_Refresh>
 8000c88:	e7e3      	b.n	8000c52 <_Z14StartBlinkTaskPv+0x12>
 8000c8a:	bf00      	nop
 8000c8c:	20000000 	.word	0x20000000
 8000c90:	48000800 	.word	0x48000800
 8000c94:	20000960 	.word	0x20000960
 8000c98:	200002c4 	.word	0x200002c4

08000c9c <_Z13StartMainTaskPv>:
 8000c9c:	e92d 4ff0 	stmdb	sp!, {r4, r5, r6, r7, r8, r9, sl, fp, lr}
 8000ca0:	2110      	movs	r1, #16
 8000ca2:	b09d      	sub	sp, #116	@ 0x74
 8000ca4:	4897      	ldr	r0, [pc, #604]	@ (8000f04 <_Z13StartMainTaskPv+0x268>)
 8000ca6:	4f98      	ldr	r7, [pc, #608]	@ (8000f08 <_Z13StartMainTaskPv+0x26c>)
 8000ca8:	f002 f9cc 	bl	8003044 <HAL_DAC_Start>
 8000cac:	2100      	movs	r1, #0
 8000cae:	4897      	ldr	r0, [pc, #604]	@ (8000f0c <_Z13StartMainTaskPv+0x270>)
 8000cb0:	f002 f9c8 	bl	8003044 <HAL_DAC_Start>
 8000cb4:	f240 739e 	movw	r3, #1950	@ 0x79e
 8000cb8:	2200      	movs	r2, #0
 8000cba:	2110      	movs	r1, #16
 8000cbc:	4891      	ldr	r0, [pc, #580]	@ (8000f04 <_Z13StartMainTaskPv+0x268>)
 8000cbe:	f002 fa01 	bl	80030c4 <HAL_DAC_SetValue>
 8000cc2:	2200      	movs	r2, #0
 8000cc4:	f640 0334 	movw	r3, #2100	@ 0x834
 8000cc8:	4611      	mov	r1, r2
 8000cca:	4890      	ldr	r0, [pc, #576]	@ (8000f0c <_Z13StartMainTaskPv+0x270>)
 8000ccc:	f002 f9fa 	bl	80030c4 <HAL_DAC_SetValue>
 8000cd0:	2200      	movs	r2, #0
 8000cd2:	488f      	ldr	r0, [pc, #572]	@ (8000f10 <_Z13StartMainTaskPv+0x274>)
 8000cd4:	f44f 7180 	mov.w	r1, #256	@ 0x100
 8000cd8:	f003 f80c 	bl	8003cf4 <HAL_GPIO_WritePin>
 8000cdc:	217f      	movs	r1, #127	@ 0x7f
 8000cde:	488d      	ldr	r0, [pc, #564]	@ (8000f14 <_Z13StartMainTaskPv+0x278>)
 8000ce0:	f002 f860 	bl	8002da4 <HAL_ADCEx_Calibration_Start>
 8000ce4:	217f      	movs	r1, #127	@ 0x7f
 8000ce6:	488c      	ldr	r0, [pc, #560]	@ (8000f18 <_Z13StartMainTaskPv+0x27c>)
 8000ce8:	f002 f85c 	bl	8002da4 <HAL_ADCEx_Calibration_Start>
 8000cec:	498b      	ldr	r1, [pc, #556]	@ (8000f1c <_Z13StartMainTaskPv+0x280>)
 8000cee:	4889      	ldr	r0, [pc, #548]	@ (8000f14 <_Z13StartMainTaskPv+0x278>)
 8000cf0:	22c8      	movs	r2, #200	@ 0xc8
 8000cf2:	f001 ff99 	bl	8002c28 <HAL_ADC_Start_DMA>
 8000cf6:	498a      	ldr	r1, [pc, #552]	@ (8000f20 <_Z13StartMainTaskPv+0x284>)
 8000cf8:	4887      	ldr	r0, [pc, #540]	@ (8000f18 <_Z13StartMainTaskPv+0x27c>)
 8000cfa:	22fa      	movs	r2, #250	@ 0xfa
 8000cfc:	f001 ff94 	bl	8002c28 <HAL_ADC_Start_DMA>
 8000d00:	4888      	ldr	r0, [pc, #544]	@ (8000f24 <_Z13StartMainTaskPv+0x288>)
 8000d02:	f003 fd4f 	bl	80047a4 <HAL_TIM_Base_Start>
 8000d06:	4888      	ldr	r0, [pc, #544]	@ (8000f28 <_Z13StartMainTaskPv+0x28c>)
 8000d08:	f002 fd00 	bl	800370c <HAL_FDCAN_Start>
 8000d0c:	2200      	movs	r2, #0
 8000d0e:	2101      	movs	r1, #1
 8000d10:	4885      	ldr	r0, [pc, #532]	@ (8000f28 <_Z13StartMainTaskPv+0x28c>)
 8000d12:	f002 fdf7 	bl	8003904 <HAL_FDCAN_ActivateNotification>
 8000d16:	4885      	ldr	r0, [pc, #532]	@ (8000f2c <_Z13StartMainTaskPv+0x290>)
 8000d18:	2201      	movs	r2, #1
 8000d1a:	2180      	movs	r1, #128	@ 0x80
 8000d1c:	f002 ffea 	bl	8003cf4 <HAL_GPIO_WritePin>
 8000d20:	4882      	ldr	r0, [pc, #520]	@ (8000f2c <_Z13StartMainTaskPv+0x290>)
 8000d22:	2201      	movs	r2, #1
 8000d24:	2140      	movs	r1, #64	@ 0x40
 8000d26:	f002 ffe5 	bl	8003cf4 <HAL_GPIO_WritePin>
 8000d2a:	4879      	ldr	r0, [pc, #484]	@ (8000f10 <_Z13StartMainTaskPv+0x274>)
 8000d2c:	2201      	movs	r2, #1
 8000d2e:	f44f 4100 	mov.w	r1, #32768	@ 0x8000
 8000d32:	f002 ffdf 	bl	8003cf4 <HAL_GPIO_WritePin>
 8000d36:	4876      	ldr	r0, [pc, #472]	@ (8000f10 <_Z13StartMainTaskPv+0x274>)
 8000d38:	2201      	movs	r2, #1
 8000d3a:	f44f 4180 	mov.w	r1, #16384	@ 0x4000
 8000d3e:	f002 ffd9 	bl	8003cf4 <HAL_GPIO_WritePin>
 8000d42:	200c      	movs	r0, #12
 8000d44:	f004 f8b2 	bl	8004eac <osDelay>
 8000d48:	4638      	mov	r0, r7
 8000d4a:	f001 f973 	bl	8002034 <_ZN4Apps17get_value_to_sendEv>
 8000d4e:	4d78      	ldr	r5, [pc, #480]	@ (8000f30 <_Z13StartMainTaskPv+0x294>)
 8000d50:	4978      	ldr	r1, [pc, #480]	@ (8000f34 <_Z13StartMainTaskPv+0x298>)
 8000d52:	4e79      	ldr	r6, [pc, #484]	@ (8000f38 <_Z13StartMainTaskPv+0x29c>)
 8000d54:	8028      	strh	r0, [r5, #0]
 8000d56:	a811      	add	r0, sp, #68	@ 0x44
 8000d58:	f001 f9d2 	bl	8002100 <_ZN6Brakes23get_raw_avg_press_valueEv>
 8000d5c:	9b11      	ldr	r3, [sp, #68]	@ 0x44
 8000d5e:	8033      	strh	r3, [r6, #0]
 8000d60:	4876      	ldr	r0, [pc, #472]	@ (8000f3c <_Z13StartMainTaskPv+0x2a0>)
 8000d62:	9b12      	ldr	r3, [sp, #72]	@ 0x48
 8000d64:	8073      	strh	r3, [r6, #2]
 8000d66:	f001 f83d 	bl	8001de4 <_ZN6Analog21get_steering_positionEv>
 8000d6a:	4c75      	ldr	r4, [pc, #468]	@ (8000f40 <_Z13StartMainTaskPv+0x2a4>)
 8000d6c:	f8df 91fc 	ldr.w	r9, [pc, #508]	@ 8000f6c <_Z13StartMainTaskPv+0x2d0>
 8000d70:	8020      	strh	r0, [r4, #0]
 8000d72:	4872      	ldr	r0, [pc, #456]	@ (8000f3c <_Z13StartMainTaskPv+0x2a0>)
 8000d74:	f8df 81f8 	ldr.w	r8, [pc, #504]	@ 8000f70 <_Z13StartMainTaskPv+0x2d4>
 8000d78:	f001 f872 	bl	8001e60 <_ZN6Analog22get_steering_position2Ev>
 8000d7c:	4b71      	ldr	r3, [pc, #452]	@ (8000f44 <_Z13StartMainTaskPv+0x2a8>)
 8000d7e:	8018      	strh	r0, [r3, #0]
 8000d80:	4871      	ldr	r0, [pc, #452]	@ (8000f48 <_Z13StartMainTaskPv+0x2ac>)
 8000d82:	f000 ff9d 	bl	8001cc0 <_ZN11Tensometers10get_tens_1Ev>
 8000d86:	f8a9 0000 	strh.w	r0, [r9]
 8000d8a:	486f      	ldr	r0, [pc, #444]	@ (8000f48 <_Z13StartMainTaskPv+0x2ac>)
 8000d8c:	f000 ffe0 	bl	8001d50 <_ZN11Tensometers10get_tens_2Ev>
 8000d90:	f8b5 b000 	ldrh.w	fp, [r5]
 8000d94:	4d6d      	ldr	r5, [pc, #436]	@ (8000f4c <_Z13StartMainTaskPv+0x2b0>)
 8000d96:	f8a8 0000 	strh.w	r0, [r8]
 8000d9a:	cd0f      	ldmia	r5!, {r0, r1, r2, r3}
 8000d9c:	f8b4 c000 	ldrh.w	ip, [r4]
 8000da0:	f8b6 a000 	ldrh.w	sl, [r6]
 8000da4:	f8b6 e002 	ldrh.w	lr, [r6, #2]
 8000da8:	ac06      	add	r4, sp, #24
 8000daa:	c40f      	stmia	r4!, {r0, r1, r2, r3}
 8000dac:	cd0f      	ldmia	r5!, {r0, r1, r2, r3}
 8000dae:	c40f      	stmia	r4!, {r0, r1, r2, r3}
 8000db0:	682b      	ldr	r3, [r5, #0]
 8000db2:	485d      	ldr	r0, [pc, #372]	@ (8000f28 <_Z13StartMainTaskPv+0x28c>)
 8000db4:	6023      	str	r3, [r4, #0]
 8000db6:	aa0f      	add	r2, sp, #60	@ 0x3c
 8000db8:	a906      	add	r1, sp, #24
 8000dba:	f8ad b03c 	strh.w	fp, [sp, #60]	@ 0x3c
 8000dbe:	f8ad a03e 	strh.w	sl, [sp, #62]	@ 0x3e
 8000dc2:	f8ad e040 	strh.w	lr, [sp, #64]	@ 0x40
 8000dc6:	f8ad c042 	strh.w	ip, [sp, #66]	@ 0x42
 8000dca:	f002 fcb5 	bl	8003738 <HAL_FDCAN_AddMessageToTxFifoQ>
 8000dce:	4b60      	ldr	r3, [pc, #384]	@ (8000f50 <_Z13StartMainTaskPv+0x2b4>)
 8000dd0:	6018      	str	r0, [r3, #0]
 8000dd2:	4860      	ldr	r0, [pc, #384]	@ (8000f54 <_Z13StartMainTaskPv+0x2b8>)
 8000dd4:	f000 ff0e 	bl	8001bf4 <_ZN2SC10update_valEv>
 8000dd8:	4b5f      	ldr	r3, [pc, #380]	@ (8000f58 <_Z13StartMainTaskPv+0x2bc>)
 8000dda:	7018      	strb	r0, [r3, #0]
 8000ddc:	2300      	movs	r3, #0
 8000dde:	f8ad 3010 	strh.w	r3, [sp, #16]
 8000de2:	f88d 3012 	strb.w	r3, [sp, #18]
 8000de6:	ea6f 0390 	mvn.w	r3, r0, lsr #2
 8000dea:	fa5f fa83 	uxtb.w	sl, r3
 8000dee:	ea6f 03d0 	mvn.w	r3, r0, lsr #3
 8000df2:	fa5f fb83 	uxtb.w	fp, r3
 8000df6:	ea6f 1310 	mvn.w	r3, r0, lsr #4
 8000dfa:	ea6f 0450 	mvn.w	r4, r0, lsr #1
 8000dfe:	43c5      	mvns	r5, r0
 8000e00:	b2db      	uxtb	r3, r3
 8000e02:	ea6f 1050 	mvn.w	r0, r0, lsr #5
 8000e06:	9302      	str	r3, [sp, #8]
 8000e08:	b2c3      	uxtb	r3, r0
 8000e0a:	9303      	str	r3, [sp, #12]
 8000e0c:	8833      	ldrh	r3, [r6, #0]
 8000e0e:	f5b3 7f48 	cmp.w	r3, #800	@ 0x320
 8000e12:	b2e4      	uxtb	r4, r4
 8000e14:	b2ed      	uxtb	r5, r5
 8000e16:	d86a      	bhi.n	8000eee <_Z13StartMainTaskPv+0x252>
 8000e18:	8876      	ldrh	r6, [r6, #2]
 8000e1a:	f5b6 7f48 	cmp.w	r6, #800	@ 0x320
 8000e1e:	bf94      	ite	ls
 8000e20:	2600      	movls	r6, #0
 8000e22:	2601      	movhi	r6, #1
 8000e24:	f897 30f8 	ldrb.w	r3, [r7, #248]	@ 0xf8
 8000e28:	f9b9 9000 	ldrsh.w	r9, [r9]
 8000e2c:	f9b8 8000 	ldrsh.w	r8, [r8]
 8000e30:	9301      	str	r3, [sp, #4]
 8000e32:	200c      	movs	r0, #12
 8000e34:	f004 f83a 	bl	8004eac <osDelay>
 8000e38:	f8df e138 	ldr.w	lr, [pc, #312]	@ 8000f74 <_Z13StartMainTaskPv+0x2d8>
 8000e3c:	f8ad 9013 	strh.w	r9, [sp, #19]
 8000e40:	e8be 000f 	ldmia.w	lr!, {r0, r1, r2, r3}
 8000e44:	f10d 0c44 	add.w	ip, sp, #68	@ 0x44
 8000e48:	e8ac 000f 	stmia.w	ip!, {r0, r1, r2, r3}
 8000e4c:	e8be 000f 	ldmia.w	lr!, {r0, r1, r2, r3}
 8000e50:	e8ac 000f 	stmia.w	ip!, {r0, r1, r2, r3}
 8000e54:	f8de 3000 	ldr.w	r3, [lr]
 8000e58:	f8cc 3000 	str.w	r3, [ip]
 8000e5c:	f005 0501 	and.w	r5, r5, #1
 8000e60:	f004 0301 	and.w	r3, r4, #1
 8000e64:	9a02      	ldr	r2, [sp, #8]
 8000e66:	f8ad 8015 	strh.w	r8, [sp, #21]
 8000e6a:	ea43 0345 	orr.w	r3, r3, r5, lsl #1
 8000e6e:	f00a 0a01 	and.w	sl, sl, #1
 8000e72:	ea43 038a 	orr.w	r3, r3, sl, lsl #2
 8000e76:	f00b 0b01 	and.w	fp, fp, #1
 8000e7a:	f002 0201 	and.w	r2, r2, #1
 8000e7e:	ea43 03cb 	orr.w	r3, r3, fp, lsl #3
 8000e82:	ea43 1302 	orr.w	r3, r3, r2, lsl #4
 8000e86:	9a03      	ldr	r2, [sp, #12]
 8000e88:	f002 0201 	and.w	r2, r2, #1
 8000e8c:	ea43 1342 	orr.w	r3, r3, r2, lsl #5
 8000e90:	9a01      	ldr	r2, [sp, #4]
 8000e92:	ea43 2306 	orr.w	r3, r3, r6, lsl #8
 8000e96:	ea43 2342 	orr.w	r3, r3, r2, lsl #9
 8000e9a:	f8bd 2010 	ldrh.w	r2, [sp, #16]
 8000e9e:	f023 03c0 	bic.w	r3, r3, #192	@ 0xc0
 8000ea2:	059b      	lsls	r3, r3, #22
 8000ea4:	f422 724f 	bic.w	r2, r2, #828	@ 0x33c
 8000ea8:	f022 0203 	bic.w	r2, r2, #3
 8000eac:	0d9b      	lsrs	r3, r3, #22
 8000eae:	4313      	orrs	r3, r2
 8000eb0:	f8ad 3010 	strh.w	r3, [sp, #16]
 8000eb4:	e9dd 0104 	ldrd	r0, r1, [sp, #16]
 8000eb8:	f8ad 106c 	strh.w	r1, [sp, #108]	@ 0x6c
 8000ebc:	0c09      	lsrs	r1, r1, #16
 8000ebe:	901a      	str	r0, [sp, #104]	@ 0x68
 8000ec0:	f88d 106e 	strb.w	r1, [sp, #110]	@ 0x6e
 8000ec4:	4818      	ldr	r0, [pc, #96]	@ (8000f28 <_Z13StartMainTaskPv+0x28c>)
 8000ec6:	aa1a      	add	r2, sp, #104	@ 0x68
 8000ec8:	a911      	add	r1, sp, #68	@ 0x44
 8000eca:	f002 fc35 	bl	8003738 <HAL_FDCAN_AddMessageToTxFifoQ>
 8000ece:	4b23      	ldr	r3, [pc, #140]	@ (8000f5c <_Z13StartMainTaskPv+0x2c0>)
 8000ed0:	6018      	str	r0, [r3, #0]
 8000ed2:	b170      	cbz	r0, 8000ef2 <_Z13StartMainTaskPv+0x256>
 8000ed4:	f3bf 8f4f 	dsb	sy
 8000ed8:	4921      	ldr	r1, [pc, #132]	@ (8000f60 <_Z13StartMainTaskPv+0x2c4>)
 8000eda:	4b22      	ldr	r3, [pc, #136]	@ (8000f64 <_Z13StartMainTaskPv+0x2c8>)
 8000edc:	68ca      	ldr	r2, [r1, #12]
 8000ede:	f402 62e0 	and.w	r2, r2, #1792	@ 0x700
 8000ee2:	4313      	orrs	r3, r2
 8000ee4:	60cb      	str	r3, [r1, #12]
 8000ee6:	f3bf 8f4f 	dsb	sy
 8000eea:	bf00      	nop
 8000eec:	e7fd      	b.n	8000eea <_Z13StartMainTaskPv+0x24e>
 8000eee:	2601      	movs	r6, #1
 8000ef0:	e798      	b.n	8000e24 <_Z13StartMainTaskPv+0x188>
 8000ef2:	4b17      	ldr	r3, [pc, #92]	@ (8000f50 <_Z13StartMainTaskPv+0x2b4>)
 8000ef4:	681b      	ldr	r3, [r3, #0]
 8000ef6:	2b01      	cmp	r3, #1
 8000ef8:	d0ec      	beq.n	8000ed4 <_Z13StartMainTaskPv+0x238>
 8000efa:	481b      	ldr	r0, [pc, #108]	@ (8000f68 <_Z13StartMainTaskPv+0x2cc>)
 8000efc:	f002 ff08 	bl	8003d10 <HAL_IWDG_Refresh>
 8000f00:	e71f      	b.n	8000d42 <_Z13StartMainTaskPv+0xa6>
 8000f02:	bf00      	nop
 8000f04:	200003b0 	.word	0x200003b0
 8000f08:	2000085c 	.word	0x2000085c
 8000f0c:	2000039c 	.word	0x2000039c
 8000f10:	48000400 	.word	0x48000400
 8000f14:	200004f0 	.word	0x200004f0
 8000f18:	20000484 	.word	0x20000484
 8000f1c:	20000b56 	.word	0x20000b56
 8000f20:	20000962 	.word	0x20000962
 8000f24:	20000278 	.word	0x20000278
 8000f28:	20000338 	.word	0x20000338
 8000f2c:	48000800 	.word	0x48000800
 8000f30:	2000026e 	.word	0x2000026e
 8000f34:	2000072c 	.word	0x2000072c
 8000f38:	2000026a 	.word	0x2000026a
 8000f3c:	20000644 	.word	0x20000644
 8000f40:	20000268 	.word	0x20000268
 8000f44:	20000266 	.word	0x20000266
 8000f48:	2000055c 	.word	0x2000055c
 8000f4c:	08006cf0 	.word	0x08006cf0
 8000f50:	2000095c 	.word	0x2000095c
 8000f54:	2000062a 	.word	0x2000062a
 8000f58:	20000260 	.word	0x20000260
 8000f5c:	20000958 	.word	0x20000958
 8000f60:	e000ed00 	.word	0xe000ed00
 8000f64:	05fa0004 	.word	0x05fa0004
 8000f68:	200002c4 	.word	0x200002c4
 8000f6c:	20000264 	.word	0x20000264
 8000f70:	20000262 	.word	0x20000262
 8000f74:	08006ccc 	.word	0x08006ccc

08000f78 <HAL_FDCAN_RxFifo0Callback>:
 8000f78:	b530      	push	{r4, r5, lr}
 8000f7a:	b08f      	sub	sp, #60	@ 0x3c
 8000f7c:	4604      	mov	r4, r0
 8000f7e:	2228      	movs	r2, #40	@ 0x28
 8000f80:	2100      	movs	r1, #0
 8000f82:	a801      	add	r0, sp, #4
 8000f84:	f005 fca4 	bl	80068d0 <memset>
 8000f88:	2100      	movs	r1, #0
 8000f8a:	ab0b      	add	r3, sp, #44	@ 0x2c
 8000f8c:	aa01      	add	r2, sp, #4
 8000f8e:	4620      	mov	r0, r4
 8000f90:	e9cd 110b 	strd	r1, r1, [sp, #44]	@ 0x2c
 8000f94:	f002 fc34 	bl	8003800 <HAL_FDCAN_GetRxMessage>
 8000f98:	f88d 0034 	strb.w	r0, [sp, #52]	@ 0x34
 8000f9c:	b990      	cbnz	r0, 8000fc4 <HAL_FDCAN_RxFifo0Callback+0x4c>
 8000f9e:	9d01      	ldr	r5, [sp, #4]
 8000fa0:	4c09      	ldr	r4, [pc, #36]	@ (8000fc8 <HAL_FDCAN_RxFifo0Callback+0x50>)
 8000fa2:	231c      	movs	r3, #28
 8000fa4:	3b01      	subs	r3, #1
 8000fa6:	d00d      	beq.n	8000fc4 <HAL_FDCAN_RxFifo0Callback+0x4c>
 8000fa8:	f854 0f04 	ldr.w	r0, [r4, #4]!
 8000fac:	7941      	ldrb	r1, [r0, #5]
 8000fae:	7902      	ldrb	r2, [r0, #4]
 8000fb0:	f001 010f 	and.w	r1, r1, #15
 8000fb4:	ea42 2201 	orr.w	r2, r2, r1, lsl #8
 8000fb8:	42aa      	cmp	r2, r5
 8000fba:	d1f3      	bne.n	8000fa4 <HAL_FDCAN_RxFifo0Callback+0x2c>
 8000fbc:	6803      	ldr	r3, [r0, #0]
 8000fbe:	a901      	add	r1, sp, #4
 8000fc0:	681b      	ldr	r3, [r3, #0]
 8000fc2:	4798      	blx	r3
 8000fc4:	b00f      	add	sp, #60	@ 0x3c
 8000fc6:	bd30      	pop	{r4, r5, pc}
 8000fc8:	20000174 	.word	0x20000174

08000fcc <HAL_ADC_ConvCpltCallback>:
 8000fcc:	6803      	ldr	r3, [r0, #0]
 8000fce:	f1b3 4fa0 	cmp.w	r3, #1342177280	@ 0x50000000
 8000fd2:	b530      	push	{r4, r5, lr}
 8000fd4:	d116      	bne.n	8001004 <HAL_ADC_ConvCpltCallback+0x38>
 8000fd6:	4b17      	ldr	r3, [pc, #92]	@ (8001034 <HAL_ADC_ConvCpltCallback+0x68>)
 8000fd8:	4c17      	ldr	r4, [pc, #92]	@ (8001038 <HAL_ADC_ConvCpltCallback+0x6c>)
 8000fda:	4818      	ldr	r0, [pc, #96]	@ (800103c <HAL_ADC_ConvCpltCallback+0x70>)
 8000fdc:	4918      	ldr	r1, [pc, #96]	@ (8001040 <HAL_ADC_ConvCpltCallback+0x74>)
 8000fde:	2200      	movs	r2, #0
 8000fe0:	881d      	ldrh	r5, [r3, #0]
 8000fe2:	f824 5f02 	strh.w	r5, [r4, #2]!
 8000fe6:	885d      	ldrh	r5, [r3, #2]
 8000fe8:	f820 5f02 	strh.w	r5, [r0, #2]!
 8000fec:	889d      	ldrh	r5, [r3, #4]
 8000fee:	f821 5f02 	strh.w	r5, [r1, #2]!
 8000ff2:	3201      	adds	r2, #1
 8000ff4:	88dd      	ldrh	r5, [r3, #6]
 8000ff6:	f8a1 5064 	strh.w	r5, [r1, #100]	@ 0x64
 8000ffa:	2a32      	cmp	r2, #50	@ 0x32
 8000ffc:	f103 0308 	add.w	r3, r3, #8
 8001000:	d1ee      	bne.n	8000fe0 <HAL_ADC_ConvCpltCallback+0x14>
 8001002:	bd30      	pop	{r4, r5, pc}
 8001004:	4b0f      	ldr	r3, [pc, #60]	@ (8001044 <HAL_ADC_ConvCpltCallback+0x78>)
 8001006:	4c10      	ldr	r4, [pc, #64]	@ (8001048 <HAL_ADC_ConvCpltCallback+0x7c>)
 8001008:	4810      	ldr	r0, [pc, #64]	@ (800104c <HAL_ADC_ConvCpltCallback+0x80>)
 800100a:	4911      	ldr	r1, [pc, #68]	@ (8001050 <HAL_ADC_ConvCpltCallback+0x84>)
 800100c:	2200      	movs	r2, #0
 800100e:	891d      	ldrh	r5, [r3, #8]
 8001010:	f824 5f02 	strh.w	r5, [r4, #2]!
 8001014:	88dd      	ldrh	r5, [r3, #6]
 8001016:	f820 5f02 	strh.w	r5, [r0, #2]!
 800101a:	881d      	ldrh	r5, [r3, #0]
 800101c:	f821 5f02 	strh.w	r5, [r1, #2]!
 8001020:	3205      	adds	r2, #5
 8001022:	885d      	ldrh	r5, [r3, #2]
 8001024:	f8a1 5064 	strh.w	r5, [r1, #100]	@ 0x64
 8001028:	2afa      	cmp	r2, #250	@ 0xfa
 800102a:	f103 030a 	add.w	r3, r3, #10
 800102e:	d1ee      	bne.n	800100e <HAL_ADC_ConvCpltCallback+0x42>
 8001030:	e7e7      	b.n	8001002 <HAL_ADC_ConvCpltCallback+0x36>
 8001032:	bf00      	nop
 8001034:	20000b56 	.word	0x20000b56
 8001038:	2000088a 	.word	0x2000088a
 800103c:	20000662 	.word	0x20000662
 8001040:	20000560 	.word	0x20000560
 8001044:	20000962 	.word	0x20000962
 8001048:	200008ee 	.word	0x200008ee
 800104c:	200006c6 	.word	0x200006c6
 8001050:	2000072c 	.word	0x2000072c

08001054 <_Z18SystemClock_Configv>:
 8001054:	b510      	push	{r4, lr}
 8001056:	b094      	sub	sp, #80	@ 0x50
 8001058:	2238      	movs	r2, #56	@ 0x38
 800105a:	2100      	movs	r1, #0
 800105c:	2414      	movs	r4, #20
 800105e:	a806      	add	r0, sp, #24
 8001060:	f005 fc36 	bl	80068d0 <memset>
 8001064:	4622      	mov	r2, r4
 8001066:	2100      	movs	r1, #0
 8001068:	a801      	add	r0, sp, #4
 800106a:	f005 fc31 	bl	80068d0 <memset>
 800106e:	2000      	movs	r0, #0
 8001070:	f002 fe54 	bl	8003d1c <HAL_PWREx_ControlVoltageScaling>
 8001074:	230a      	movs	r3, #10
 8001076:	f44f 7080 	mov.w	r0, #256	@ 0x100
 800107a:	9306      	str	r3, [sp, #24]
 800107c:	2340      	movs	r3, #64	@ 0x40
 800107e:	e9cd 0309 	strd	r0, r3, [sp, #36]	@ 0x24
 8001082:	2201      	movs	r2, #1
 8001084:	2302      	movs	r3, #2
 8001086:	a806      	add	r0, sp, #24
 8001088:	e9cd 330d 	strd	r3, r3, [sp, #52]	@ 0x34
 800108c:	e9cd 240f 	strd	r2, r4, [sp, #60]	@ 0x3c
 8001090:	e9cd 3311 	strd	r3, r3, [sp, #68]	@ 0x44
 8001094:	920b      	str	r2, [sp, #44]	@ 0x2c
 8001096:	9313      	str	r3, [sp, #76]	@ 0x4c
 8001098:	f002 fea0 	bl	8003ddc <HAL_RCC_OscConfig>
 800109c:	b108      	cbz	r0, 80010a2 <_Z18SystemClock_Configv+0x4e>
 800109e:	b672      	cpsid	i
 80010a0:	e7fe      	b.n	80010a0 <_Z18SystemClock_Configv+0x4c>
 80010a2:	2104      	movs	r1, #4
 80010a4:	e9cd 0003 	strd	r0, r0, [sp, #12]
 80010a8:	220f      	movs	r2, #15
 80010aa:	2303      	movs	r3, #3
 80010ac:	9005      	str	r0, [sp, #20]
 80010ae:	eb0d 0001 	add.w	r0, sp, r1
 80010b2:	e9cd 2301 	strd	r2, r3, [sp, #4]
 80010b6:	f003 f8d3 	bl	8004260 <HAL_RCC_ClockConfig>
 80010ba:	b108      	cbz	r0, 80010c0 <_Z18SystemClock_Configv+0x6c>
 80010bc:	b672      	cpsid	i
 80010be:	e7fe      	b.n	80010be <_Z18SystemClock_Configv+0x6a>
 80010c0:	b014      	add	sp, #80	@ 0x50
 80010c2:	bd10      	pop	{r4, pc}

080010c4 <main>:
 80010c4:	e92d 4880 	stmdb	sp!, {r7, fp, lr}
 80010c8:	4daf      	ldr	r5, [pc, #700]	@ (8001388 <main+0x2c4>)
 80010ca:	f8df 82ec 	ldr.w	r8, [pc, #748]	@ 80013b8 <main+0x2f4>
 80010ce:	b099      	sub	sp, #100	@ 0x64
 80010d0:	f001 f869 	bl	80021a6 <HAL_Init>
 80010d4:	f7ff ffbe 	bl	8001054 <_Z18SystemClock_Configv>
 80010d8:	2214      	movs	r2, #20
 80010da:	2100      	movs	r1, #0
 80010dc:	a80c      	add	r0, sp, #48	@ 0x30
 80010de:	f005 fbf7 	bl	80068d0 <memset>
 80010e2:	6ceb      	ldr	r3, [r5, #76]	@ 0x4c
 80010e4:	48a9      	ldr	r0, [pc, #676]	@ (800138c <main+0x2c8>)
 80010e6:	f043 0320 	orr.w	r3, r3, #32
 80010ea:	64eb      	str	r3, [r5, #76]	@ 0x4c
 80010ec:	6ceb      	ldr	r3, [r5, #76]	@ 0x4c
 80010ee:	f003 0320 	and.w	r3, r3, #32
 80010f2:	9305      	str	r3, [sp, #20]
 80010f4:	9b05      	ldr	r3, [sp, #20]
 80010f6:	6ceb      	ldr	r3, [r5, #76]	@ 0x4c
 80010f8:	f043 0304 	orr.w	r3, r3, #4
 80010fc:	64eb      	str	r3, [r5, #76]	@ 0x4c
 80010fe:	6ceb      	ldr	r3, [r5, #76]	@ 0x4c
 8001100:	f003 0304 	and.w	r3, r3, #4
 8001104:	9306      	str	r3, [sp, #24]
 8001106:	9b06      	ldr	r3, [sp, #24]
 8001108:	6ceb      	ldr	r3, [r5, #76]	@ 0x4c
 800110a:	f043 0301 	orr.w	r3, r3, #1
 800110e:	64eb      	str	r3, [r5, #76]	@ 0x4c
 8001110:	6ceb      	ldr	r3, [r5, #76]	@ 0x4c
 8001112:	f003 0301 	and.w	r3, r3, #1
 8001116:	9307      	str	r3, [sp, #28]
 8001118:	9b07      	ldr	r3, [sp, #28]
 800111a:	6ceb      	ldr	r3, [r5, #76]	@ 0x4c
 800111c:	f043 0302 	orr.w	r3, r3, #2
 8001120:	64eb      	str	r3, [r5, #76]	@ 0x4c
 8001122:	6ceb      	ldr	r3, [r5, #76]	@ 0x4c
 8001124:	f003 0302 	and.w	r3, r3, #2
 8001128:	9308      	str	r3, [sp, #32]
 800112a:	2200      	movs	r2, #0
 800112c:	f24c 1108 	movw	r1, #49416	@ 0xc108
 8001130:	9b08      	ldr	r3, [sp, #32]
 8001132:	f002 fddf 	bl	8003cf4 <HAL_GPIO_WritePin>
 8001136:	2200      	movs	r2, #0
 8001138:	4895      	ldr	r0, [pc, #596]	@ (8001390 <main+0x2cc>)
 800113a:	21c0      	movs	r1, #192	@ 0xc0
 800113c:	2600      	movs	r6, #0
 800113e:	f002 fdd9 	bl	8003cf4 <HAL_GPIO_WritePin>
 8001142:	2401      	movs	r4, #1
 8001144:	f24c 0308 	movw	r3, #49160	@ 0xc008
 8001148:	4890      	ldr	r0, [pc, #576]	@ (800138c <main+0x2c8>)
 800114a:	a90c      	add	r1, sp, #48	@ 0x30
 800114c:	e9cd 340c 	strd	r3, r4, [sp, #48]	@ 0x30
 8001150:	e9cd 660e 	strd	r6, r6, [sp, #56]	@ 0x38
 8001154:	f002 fcfe 	bl	8003b54 <HAL_GPIO_Init>
 8001158:	23c0      	movs	r3, #192	@ 0xc0
 800115a:	488d      	ldr	r0, [pc, #564]	@ (8001390 <main+0x2cc>)
 800115c:	a90c      	add	r1, sp, #48	@ 0x30
 800115e:	e9cd 340c 	strd	r3, r4, [sp, #48]	@ 0x30
 8001162:	e9cd 660e 	strd	r6, r6, [sp, #56]	@ 0x38
 8001166:	f002 fcf5 	bl	8003b54 <HAL_GPIO_Init>
 800116a:	f44f 4300 	mov.w	r3, #32768	@ 0x8000
 800116e:	a90c      	add	r1, sp, #48	@ 0x30
 8001170:	f04f 4090 	mov.w	r0, #1207959552	@ 0x48000000
 8001174:	e9cd 360c 	strd	r3, r6, [sp, #48]	@ 0x30
 8001178:	960e      	str	r6, [sp, #56]	@ 0x38
 800117a:	f002 fceb 	bl	8003b54 <HAL_GPIO_Init>
 800117e:	f44f 53e0 	mov.w	r3, #7168	@ 0x1c00
 8001182:	4883      	ldr	r0, [pc, #524]	@ (8001390 <main+0x2cc>)
 8001184:	960e      	str	r6, [sp, #56]	@ 0x38
 8001186:	a90c      	add	r1, sp, #48	@ 0x30
 8001188:	e9cd 360c 	strd	r3, r6, [sp, #48]	@ 0x30
 800118c:	f002 fce2 	bl	8003b54 <HAL_GPIO_Init>
 8001190:	f44f 733c 	mov.w	r3, #752	@ 0x2f0
 8001194:	487d      	ldr	r0, [pc, #500]	@ (800138c <main+0x2c8>)
 8001196:	960e      	str	r6, [sp, #56]	@ 0x38
 8001198:	a90c      	add	r1, sp, #48	@ 0x30
 800119a:	e9cd 360c 	strd	r3, r6, [sp, #48]	@ 0x30
 800119e:	f002 fcd9 	bl	8003b54 <HAL_GPIO_Init>
 80011a2:	f44f 7380 	mov.w	r3, #256	@ 0x100
 80011a6:	2202      	movs	r2, #2
 80011a8:	e9cd 340c 	strd	r3, r4, [sp, #48]	@ 0x30
 80011ac:	4877      	ldr	r0, [pc, #476]	@ (800138c <main+0x2c8>)
 80011ae:	2303      	movs	r3, #3
 80011b0:	a90c      	add	r1, sp, #48	@ 0x30
 80011b2:	e9cd 230e 	strd	r2, r3, [sp, #56]	@ 0x38
 80011b6:	f002 fccd 	bl	8003b54 <HAL_GPIO_Init>
 80011ba:	4a76      	ldr	r2, [pc, #472]	@ (8001394 <main+0x2d0>)
 80011bc:	6853      	ldr	r3, [r2, #4]
 80011be:	f443 2380 	orr.w	r3, r3, #262144	@ 0x40000
 80011c2:	6053      	str	r3, [r2, #4]
 80011c4:	6cab      	ldr	r3, [r5, #72]	@ 0x48
 80011c6:	f043 0304 	orr.w	r3, r3, #4
 80011ca:	64ab      	str	r3, [r5, #72]	@ 0x48
 80011cc:	6cab      	ldr	r3, [r5, #72]	@ 0x48
 80011ce:	f003 0304 	and.w	r3, r3, #4
 80011d2:	9303      	str	r3, [sp, #12]
 80011d4:	9b03      	ldr	r3, [sp, #12]
 80011d6:	6cab      	ldr	r3, [r5, #72]	@ 0x48
 80011d8:	4323      	orrs	r3, r4
 80011da:	64ab      	str	r3, [r5, #72]	@ 0x48
 80011dc:	6cab      	ldr	r3, [r5, #72]	@ 0x48
 80011de:	4023      	ands	r3, r4
 80011e0:	4632      	mov	r2, r6
 80011e2:	2105      	movs	r1, #5
 80011e4:	9304      	str	r3, [sp, #16]
 80011e6:	200b      	movs	r0, #11
 80011e8:	9b04      	ldr	r3, [sp, #16]
 80011ea:	f001 fed7 	bl	8002f9c <HAL_NVIC_SetPriority>
 80011ee:	200b      	movs	r0, #11
 80011f0:	f001 ff06 	bl	8003000 <HAL_NVIC_EnableIRQ>
 80011f4:	4632      	mov	r2, r6
 80011f6:	2105      	movs	r1, #5
 80011f8:	200c      	movs	r0, #12
 80011fa:	f001 fecf 	bl	8002f9c <HAL_NVIC_SetPriority>
 80011fe:	200c      	movs	r0, #12
 8001200:	f001 fefe 	bl	8003000 <HAL_NVIC_EnableIRQ>
 8001204:	2220      	movs	r2, #32
 8001206:	4631      	mov	r1, r6
 8001208:	a80c      	add	r0, sp, #48	@ 0x30
 800120a:	2504      	movs	r5, #4
 800120c:	e9cd 6609 	strd	r6, r6, [sp, #36]	@ 0x24
 8001210:	960b      	str	r6, [sp, #44]	@ 0x2c
 8001212:	f44f 3b40 	mov.w	fp, #196608	@ 0x30000
 8001216:	f005 fb5b 	bl	80068d0 <memset>
 800121a:	f44f 6aac 	mov.w	sl, #1376	@ 0x560
 800121e:	f04f 42a0 	mov.w	r2, #1342177280	@ 0x50000000
 8001222:	f44f 6980 	mov.w	r9, #1024	@ 0x400
 8001226:	4640      	mov	r0, r8
 8001228:	e9c8 2b00 	strd	r2, fp, [r8]
 800122c:	e9c8 6602 	strd	r6, r6, [r8, #8]
 8001230:	e9c8 6404 	strd	r6, r4, [r8, #16]
 8001234:	e9c8 a90b 	strd	sl, r9, [r8, #44]	@ 0x2c
 8001238:	f8c8 5018 	str.w	r5, [r8, #24]
 800123c:	f8a8 601c 	strh.w	r6, [r8, #28]
 8001240:	f8c8 5020 	str.w	r5, [r8, #32]
 8001244:	f888 6024 	strb.w	r6, [r8, #36]	@ 0x24
 8001248:	f888 4038 	strb.w	r4, [r8, #56]	@ 0x38
 800124c:	f8c8 603c 	str.w	r6, [r8, #60]	@ 0x3c
 8001250:	f888 6040 	strb.w	r6, [r8, #64]	@ 0x40
 8001254:	f000 ffe0 	bl	8002218 <HAL_ADC_Init>
 8001258:	b108      	cbz	r0, 800125e <main+0x19a>
 800125a:	b672      	cpsid	i
 800125c:	e7fe      	b.n	800125c <main+0x198>
 800125e:	9009      	str	r0, [sp, #36]	@ 0x24
 8001260:	a909      	add	r1, sp, #36	@ 0x24
 8001262:	4640      	mov	r0, r8
 8001264:	f001 fdf0 	bl	8002e48 <HAL_ADCEx_MultiModeConfigChannel>
 8001268:	b108      	cbz	r0, 800126e <main+0x1aa>
 800126a:	b672      	cpsid	i
 800126c:	e7fe      	b.n	800126c <main+0x1a8>
 800126e:	4b4a      	ldr	r3, [pc, #296]	@ (8001398 <main+0x2d4>)
 8001270:	900e      	str	r0, [sp, #56]	@ 0x38
 8001272:	2706      	movs	r7, #6
 8001274:	e9cd 370c 	strd	r3, r7, [sp, #48]	@ 0x30
 8001278:	9011      	str	r0, [sp, #68]	@ 0x44
 800127a:	237f      	movs	r3, #127	@ 0x7f
 800127c:	a90c      	add	r1, sp, #48	@ 0x30
 800127e:	4640      	mov	r0, r8
 8001280:	e9cd 350f 	strd	r3, r5, [sp, #60]	@ 0x3c
 8001284:	f001 fa70 	bl	8002768 <HAL_ADC_ConfigChannel>
 8001288:	b108      	cbz	r0, 800128e <main+0x1ca>
 800128a:	b672      	cpsid	i
 800128c:	e7fe      	b.n	800128c <main+0x1c8>
 800128e:	4a43      	ldr	r2, [pc, #268]	@ (800139c <main+0x2d8>)
 8001290:	9012      	str	r0, [sp, #72]	@ 0x48
 8001292:	e9cd 0410 	strd	r0, r4, [sp, #64]	@ 0x40
 8001296:	230c      	movs	r3, #12
 8001298:	a90c      	add	r1, sp, #48	@ 0x30
 800129a:	4640      	mov	r0, r8
 800129c:	e9cd 230c 	strd	r2, r3, [sp, #48]	@ 0x30
 80012a0:	940e      	str	r4, [sp, #56]	@ 0x38
 80012a2:	f88d 404c 	strb.w	r4, [sp, #76]	@ 0x4c
 80012a6:	f001 fa5f 	bl	8002768 <HAL_ADC_ConfigChannel>
 80012aa:	b108      	cbz	r0, 80012b0 <main+0x1ec>
 80012ac:	b672      	cpsid	i
 80012ae:	e7fe      	b.n	80012ae <main+0x1ea>
 80012b0:	4a3b      	ldr	r2, [pc, #236]	@ (80013a0 <main+0x2dc>)
 80012b2:	900e      	str	r0, [sp, #56]	@ 0x38
 80012b4:	e9cd 5010 	strd	r5, r0, [sp, #64]	@ 0x40
 80012b8:	2612      	movs	r6, #18
 80012ba:	a90c      	add	r1, sp, #48	@ 0x30
 80012bc:	4640      	mov	r0, r8
 80012be:	e9cd 260c 	strd	r2, r6, [sp, #48]	@ 0x30
 80012c2:	f001 fa51 	bl	8002768 <HAL_ADC_ConfigChannel>
 80012c6:	b108      	cbz	r0, 80012cc <main+0x208>
 80012c8:	b672      	cpsid	i
 80012ca:	e7fe      	b.n	80012ca <main+0x206>
 80012cc:	4b35      	ldr	r3, [pc, #212]	@ (80013a4 <main+0x2e0>)
 80012ce:	2218      	movs	r2, #24
 80012d0:	a90c      	add	r1, sp, #48	@ 0x30
 80012d2:	4640      	mov	r0, r8
 80012d4:	e9cd 320c 	strd	r3, r2, [sp, #48]	@ 0x30
 80012d8:	f001 fa46 	bl	8002768 <HAL_ADC_ConfigChannel>
 80012dc:	4601      	mov	r1, r0
 80012de:	b108      	cbz	r0, 80012e4 <main+0x220>
 80012e0:	b672      	cpsid	i
 80012e2:	e7fe      	b.n	80012e2 <main+0x21e>
 80012e4:	2220      	movs	r2, #32
 80012e6:	9001      	str	r0, [sp, #4]
 80012e8:	a80c      	add	r0, sp, #48	@ 0x30
 80012ea:	f005 faf1 	bl	80068d0 <memset>
 80012ee:	f8df 80c4 	ldr.w	r8, [pc, #196]	@ 80013b4 <main+0x2f0>
 80012f2:	4a2d      	ldr	r2, [pc, #180]	@ (80013a8 <main+0x2e4>)
 80012f4:	9901      	ldr	r1, [sp, #4]
 80012f6:	f8c8 5018 	str.w	r5, [r8, #24]
 80012fa:	e9c8 2b00 	strd	r2, fp, [r8]
 80012fe:	4640      	mov	r0, r8
 8001300:	2205      	movs	r2, #5
 8001302:	e9c8 1102 	strd	r1, r1, [r8, #8]
 8001306:	e9c8 1404 	strd	r1, r4, [r8, #16]
 800130a:	e9c8 a90b 	strd	sl, r9, [r8, #44]	@ 0x2c
 800130e:	f8a8 101c 	strh.w	r1, [r8, #28]
 8001312:	f8c8 2020 	str.w	r2, [r8, #32]
 8001316:	f888 1024 	strb.w	r1, [r8, #36]	@ 0x24
 800131a:	f888 4038 	strb.w	r4, [r8, #56]	@ 0x38
 800131e:	f8c8 103c 	str.w	r1, [r8, #60]	@ 0x3c
 8001322:	f888 1040 	strb.w	r1, [r8, #64]	@ 0x40
 8001326:	f000 ff77 	bl	8002218 <HAL_ADC_Init>
 800132a:	b108      	cbz	r0, 8001330 <main+0x26c>
 800132c:	b672      	cpsid	i
 800132e:	e7fe      	b.n	800132e <main+0x26a>
 8001330:	4b19      	ldr	r3, [pc, #100]	@ (8001398 <main+0x2d4>)
 8001332:	900e      	str	r0, [sp, #56]	@ 0x38
 8001334:	e9cd 370c 	strd	r3, r7, [sp, #48]	@ 0x30
 8001338:	9011      	str	r0, [sp, #68]	@ 0x44
 800133a:	237f      	movs	r3, #127	@ 0x7f
 800133c:	a90c      	add	r1, sp, #48	@ 0x30
 800133e:	4640      	mov	r0, r8
 8001340:	e9cd 350f 	strd	r3, r5, [sp, #60]	@ 0x3c
 8001344:	f001 fa10 	bl	8002768 <HAL_ADC_ConfigChannel>
 8001348:	b108      	cbz	r0, 800134e <main+0x28a>
 800134a:	b672      	cpsid	i
 800134c:	e7fe      	b.n	800134c <main+0x288>
 800134e:	4a17      	ldr	r2, [pc, #92]	@ (80013ac <main+0x2e8>)
 8001350:	9012      	str	r0, [sp, #72]	@ 0x48
 8001352:	e9cd 0410 	strd	r0, r4, [sp, #64]	@ 0x40
 8001356:	230c      	movs	r3, #12
 8001358:	f88d 004c 	strb.w	r0, [sp, #76]	@ 0x4c
 800135c:	a90c      	add	r1, sp, #48	@ 0x30
 800135e:	4640      	mov	r0, r8
 8001360:	e9cd 230c 	strd	r2, r3, [sp, #48]	@ 0x30
 8001364:	f001 fa00 	bl	8002768 <HAL_ADC_ConfigChannel>
 8001368:	b108      	cbz	r0, 800136e <main+0x2aa>
 800136a:	b672      	cpsid	i
 800136c:	e7fe      	b.n	800136c <main+0x2a8>
 800136e:	4a10      	ldr	r2, [pc, #64]	@ (80013b0 <main+0x2ec>)
 8001370:	9410      	str	r4, [sp, #64]	@ 0x40
 8001372:	2302      	movs	r3, #2
 8001374:	a90c      	add	r1, sp, #48	@ 0x30
 8001376:	4640      	mov	r0, r8
 8001378:	e9cd 260c 	strd	r2, r6, [sp, #48]	@ 0x30
 800137c:	9311      	str	r3, [sp, #68]	@ 0x44
 800137e:	f001 f9f3 	bl	8002768 <HAL_ADC_ConfigChannel>
 8001382:	b1d8      	cbz	r0, 80013bc <main+0x2f8>
 8001384:	b672      	cpsid	i
 8001386:	e7fe      	b.n	8001386 <main+0x2c2>
 8001388:	40021000 	.word	0x40021000
 800138c:	48000400 	.word	0x48000400
 8001390:	48000800 	.word	0x48000800
 8001394:	40010000 	.word	0x40010000
 8001398:	10c00010 	.word	0x10c00010
 800139c:	3ef08000 	.word	0x3ef08000
 80013a0:	19200040 	.word	0x19200040
 80013a4:	21800100 	.word	0x21800100
 80013a8:	50000100 	.word	0x50000100
 80013ac:	14f00020 	.word	0x14f00020
 80013b0:	2e300800 	.word	0x2e300800
 80013b4:	20000484 	.word	0x20000484
 80013b8:	200004f0 	.word	0x200004f0
 80013bc:	f8df 81f4 	ldr.w	r8, [pc, #500]	@ 80015b4 <main+0x4f0>
 80013c0:	486c      	ldr	r0, [pc, #432]	@ (8001574 <main+0x4b0>)
 80013c2:	2318      	movs	r3, #24
 80013c4:	2502      	movs	r5, #2
 80013c6:	2403      	movs	r4, #3
 80013c8:	a90c      	add	r1, sp, #48	@ 0x30
 80013ca:	e9cd 830c 	strd	r8, r3, [sp, #48]	@ 0x30
 80013ce:	e9cd 5410 	strd	r5, r4, [sp, #64]	@ 0x40
 80013d2:	f001 f9c9 	bl	8002768 <HAL_ADC_ConfigChannel>
 80013d6:	b108      	cbz	r0, 80013dc <main+0x318>
 80013d8:	b672      	cpsid	i
 80013da:	e7fe      	b.n	80013da <main+0x316>
 80013dc:	f8df e1d8 	ldr.w	lr, [pc, #472]	@ 80015b8 <main+0x4f4>
 80013e0:	4864      	ldr	r0, [pc, #400]	@ (8001574 <main+0x4b0>)
 80013e2:	9410      	str	r4, [sp, #64]	@ 0x40
 80013e4:	f44f 7380 	mov.w	r3, #256	@ 0x100
 80013e8:	e9cd e30c 	strd	lr, r3, [sp, #48]	@ 0x30
 80013ec:	a90c      	add	r1, sp, #48	@ 0x30
 80013ee:	2304      	movs	r3, #4
 80013f0:	9311      	str	r3, [sp, #68]	@ 0x44
 80013f2:	f001 f9b9 	bl	8002768 <HAL_ADC_ConfigChannel>
 80013f6:	4601      	mov	r1, r0
 80013f8:	b108      	cbz	r0, 80013fe <main+0x33a>
 80013fa:	b672      	cpsid	i
 80013fc:	e7fe      	b.n	80013fc <main+0x338>
 80013fe:	4c5e      	ldr	r4, [pc, #376]	@ (8001578 <main+0x4b4>)
 8001400:	2230      	movs	r2, #48	@ 0x30
 8001402:	eb0d 0002 	add.w	r0, sp, r2
 8001406:	f005 fa63 	bl	80068d0 <memset>
 800140a:	4b5c      	ldr	r3, [pc, #368]	@ (800157c <main+0x4b8>)
 800140c:	6023      	str	r3, [r4, #0]
 800140e:	4620      	mov	r0, r4
 8001410:	f001 fe04 	bl	800301c <HAL_DAC_Init>
 8001414:	b108      	cbz	r0, 800141a <main+0x356>
 8001416:	b672      	cpsid	i
 8001418:	e7fe      	b.n	8001418 <main+0x354>
 800141a:	2601      	movs	r6, #1
 800141c:	e9cd 000e 	strd	r0, r0, [sp, #56]	@ 0x38
 8001420:	e9cd 0010 	strd	r0, r0, [sp, #64]	@ 0x40
 8001424:	e9cd 6012 	strd	r6, r0, [sp, #72]	@ 0x48
 8001428:	f8ad 0034 	strh.w	r0, [sp, #52]	@ 0x34
 800142c:	a90c      	add	r1, sp, #48	@ 0x30
 800142e:	2210      	movs	r2, #16
 8001430:	4620      	mov	r0, r4
 8001432:	950c      	str	r5, [sp, #48]	@ 0x30
 8001434:	f001 fe5c 	bl	80030f0 <HAL_DAC_ConfigChannel>
 8001438:	4601      	mov	r1, r0
 800143a:	b108      	cbz	r0, 8001440 <main+0x37c>
 800143c:	b672      	cpsid	i
 800143e:	e7fe      	b.n	800143e <main+0x37a>
 8001440:	2230      	movs	r2, #48	@ 0x30
 8001442:	4c4f      	ldr	r4, [pc, #316]	@ (8001580 <main+0x4bc>)
 8001444:	eb0d 0002 	add.w	r0, sp, r2
 8001448:	f005 fa42 	bl	80068d0 <memset>
 800144c:	4b4d      	ldr	r3, [pc, #308]	@ (8001584 <main+0x4c0>)
 800144e:	6023      	str	r3, [r4, #0]
 8001450:	4620      	mov	r0, r4
 8001452:	f001 fde3 	bl	800301c <HAL_DAC_Init>
 8001456:	4602      	mov	r2, r0
 8001458:	b108      	cbz	r0, 800145e <main+0x39a>
 800145a:	b672      	cpsid	i
 800145c:	e7fe      	b.n	800145c <main+0x398>
 800145e:	e9cd 000e 	strd	r0, r0, [sp, #56]	@ 0x38
 8001462:	e9cd 0010 	strd	r0, r0, [sp, #64]	@ 0x40
 8001466:	e9cd 6012 	strd	r6, r0, [sp, #72]	@ 0x48
 800146a:	f8ad 0034 	strh.w	r0, [sp, #52]	@ 0x34
 800146e:	a90c      	add	r1, sp, #48	@ 0x30
 8001470:	4620      	mov	r0, r4
 8001472:	950c      	str	r5, [sp, #48]	@ 0x30
 8001474:	f001 fe3c 	bl	80030f0 <HAL_DAC_ConfigChannel>
 8001478:	4604      	mov	r4, r0
 800147a:	b108      	cbz	r0, 8001480 <main+0x3bc>
 800147c:	b672      	cpsid	i
 800147e:	e7fe      	b.n	800147e <main+0x3ba>
 8001480:	4f41      	ldr	r7, [pc, #260]	@ (8001588 <main+0x4c4>)
 8001482:	4601      	mov	r1, r0
 8001484:	2210      	movs	r2, #16
 8001486:	a80c      	add	r0, sp, #48	@ 0x30
 8001488:	f005 fa22 	bl	80068d0 <memset>
 800148c:	233f      	movs	r3, #63	@ 0x3f
 800148e:	f04f 4c80 	mov.w	ip, #1073741824	@ 0x40000000
 8001492:	e9c7 c300 	strd	ip, r3, [r7]
 8001496:	4638      	mov	r0, r7
 8001498:	2363      	movs	r3, #99	@ 0x63
 800149a:	e9cd 4409 	strd	r4, r4, [sp, #36]	@ 0x24
 800149e:	e9c7 3403 	strd	r3, r4, [r7, #12]
 80014a2:	940b      	str	r4, [sp, #44]	@ 0x2c
 80014a4:	60bc      	str	r4, [r7, #8]
 80014a6:	61bc      	str	r4, [r7, #24]
 80014a8:	f003 fb28 	bl	8004afc <HAL_TIM_Base_Init>
 80014ac:	b108      	cbz	r0, 80014b2 <main+0x3ee>
 80014ae:	b672      	cpsid	i
 80014b0:	e7fe      	b.n	80014b0 <main+0x3ec>
 80014b2:	f44f 5380 	mov.w	r3, #4096	@ 0x1000
 80014b6:	a90c      	add	r1, sp, #48	@ 0x30
 80014b8:	4638      	mov	r0, r7
 80014ba:	930c      	str	r3, [sp, #48]	@ 0x30
 80014bc:	f003 fb58 	bl	8004b70 <HAL_TIM_ConfigClockSource>
 80014c0:	b108      	cbz	r0, 80014c6 <main+0x402>
 80014c2:	b672      	cpsid	i
 80014c4:	e7fe      	b.n	80014c4 <main+0x400>
 80014c6:	2320      	movs	r3, #32
 80014c8:	900b      	str	r0, [sp, #44]	@ 0x2c
 80014ca:	a909      	add	r1, sp, #36	@ 0x24
 80014cc:	4638      	mov	r0, r7
 80014ce:	9309      	str	r3, [sp, #36]	@ 0x24
 80014d0:	f003 fc18 	bl	8004d04 <HAL_TIMEx_MasterConfigSynchronization>
 80014d4:	4603      	mov	r3, r0
 80014d6:	b108      	cbz	r0, 80014dc <main+0x418>
 80014d8:	b672      	cpsid	i
 80014da:	e7fe      	b.n	80014da <main+0x416>
 80014dc:	482b      	ldr	r0, [pc, #172]	@ (800158c <main+0x4c8>)
 80014de:	4a2c      	ldr	r2, [pc, #176]	@ (8001590 <main+0x4cc>)
 80014e0:	8203      	strh	r3, [r0, #16]
 80014e2:	e9c0 2300 	strd	r2, r3, [r0]
 80014e6:	220a      	movs	r2, #10
 80014e8:	e9c0 2505 	strd	r2, r5, [r0, #20]
 80014ec:	220d      	movs	r2, #13
 80014ee:	e9c0 3302 	strd	r3, r3, [r0, #8]
 80014f2:	e9c0 2507 	strd	r2, r5, [r0, #28]
 80014f6:	e9c0 6509 	strd	r6, r5, [r0, #36]	@ 0x24
 80014fa:	e9c0 660b 	strd	r6, r6, [r0, #44]	@ 0x2c
 80014fe:	e9c0 330d 	strd	r3, r3, [r0, #52]	@ 0x34
 8001502:	7483      	strb	r3, [r0, #18]
 8001504:	63c3      	str	r3, [r0, #60]	@ 0x3c
 8001506:	f002 f805 	bl	8003514 <HAL_FDCAN_Init>
 800150a:	b108      	cbz	r0, 8001510 <main+0x44c>
 800150c:	b672      	cpsid	i
 800150e:	e7fe      	b.n	800150e <main+0x44a>
 8001510:	4820      	ldr	r0, [pc, #128]	@ (8001594 <main+0x4d0>)
 8001512:	4a21      	ldr	r2, [pc, #132]	@ (8001598 <main+0x4d4>)
 8001514:	2300      	movs	r3, #0
 8001516:	e9c0 2300 	strd	r2, r3, [r0]
 800151a:	210a      	movs	r1, #10
 800151c:	2202      	movs	r2, #2
 800151e:	e9c0 1205 	strd	r1, r2, [r0, #20]
 8001522:	240d      	movs	r4, #13
 8001524:	2201      	movs	r2, #1
 8001526:	e9c0 4207 	strd	r4, r2, [r0, #28]
 800152a:	e9c0 3302 	strd	r3, r3, [r0, #8]
 800152e:	e9c0 2209 	strd	r2, r2, [r0, #36]	@ 0x24
 8001532:	e9c0 220b 	strd	r2, r2, [r0, #44]	@ 0x2c
 8001536:	e9c0 330d 	strd	r3, r3, [r0, #52]	@ 0x34
 800153a:	8203      	strh	r3, [r0, #16]
 800153c:	7483      	strb	r3, [r0, #18]
 800153e:	63c3      	str	r3, [r0, #60]	@ 0x3c
 8001540:	f001 ffe8 	bl	8003514 <HAL_FDCAN_Init>
 8001544:	4604      	mov	r4, r0
 8001546:	b108      	cbz	r0, 800154c <main+0x488>
 8001548:	b672      	cpsid	i
 800154a:	e7fe      	b.n	800154a <main+0x486>
 800154c:	f003 fc3e 	bl	8004dcc <osKernelInitialize>
 8001550:	4a12      	ldr	r2, [pc, #72]	@ (800159c <main+0x4d8>)
 8001552:	4813      	ldr	r0, [pc, #76]	@ (80015a0 <main+0x4dc>)
 8001554:	4621      	mov	r1, r4
 8001556:	f003 fc65 	bl	8004e24 <osThreadNew>
 800155a:	4b12      	ldr	r3, [pc, #72]	@ (80015a4 <main+0x4e0>)
 800155c:	4a12      	ldr	r2, [pc, #72]	@ (80015a8 <main+0x4e4>)
 800155e:	6018      	str	r0, [r3, #0]
 8001560:	4621      	mov	r1, r4
 8001562:	4812      	ldr	r0, [pc, #72]	@ (80015ac <main+0x4e8>)
 8001564:	f003 fc5e 	bl	8004e24 <osThreadNew>
 8001568:	4b11      	ldr	r3, [pc, #68]	@ (80015b0 <main+0x4ec>)
 800156a:	6018      	str	r0, [r3, #0]
 800156c:	f003 fc40 	bl	8004df0 <osKernelStart>
 8001570:	e7fe      	b.n	8001570 <main+0x4ac>
 8001572:	bf00      	nop
 8001574:	20000484 	.word	0x20000484
 8001578:	200003b0 	.word	0x200003b0
 800157c:	50000800 	.word	0x50000800
 8001580:	2000039c 	.word	0x2000039c
 8001584:	50000c00 	.word	0x50000c00
 8001588:	20000278 	.word	0x20000278
 800158c:	20000338 	.word	0x20000338
 8001590:	40006400 	.word	0x40006400
 8001594:	200002d4 	.word	0x200002d4
 8001598:	40006800 	.word	0x40006800
 800159c:	08006ca8 	.word	0x08006ca8
 80015a0:	08000c9d 	.word	0x08000c9d
 80015a4:	20000274 	.word	0x20000274
 80015a8:	08006c84 	.word	0x08006c84
 80015ac:	08000c41 	.word	0x08000c41
 80015b0:	20000270 	.word	0x20000270
 80015b4:	32601000 	.word	0x32601000
 80015b8:	47520000 	.word	0x47520000

080015bc <HAL_TIM_PeriodElapsedCallback>:
 80015bc:	6802      	ldr	r2, [r0, #0]
 80015be:	4b03      	ldr	r3, [pc, #12]	@ (80015cc <HAL_TIM_PeriodElapsedCallback+0x10>)
 80015c0:	429a      	cmp	r2, r3
 80015c2:	d101      	bne.n	80015c8 <HAL_TIM_PeriodElapsedCallback+0xc>
 80015c4:	f000 bdfe 	b.w	80021c4 <HAL_IncTick>
 80015c8:	4770      	bx	lr
 80015ca:	bf00      	nop
 80015cc:	40012c00 	.word	0x40012c00

080015d0 <Error_Handler>:
 80015d0:	b672      	cpsid	i
 80015d2:	e7fe      	b.n	80015d2 <Error_Handler+0x2>

080015d4 <_GLOBAL__sub_I__ZN8PUTM_CAN3canE>:
 80015d4:	4b21      	ldr	r3, [pc, #132]	@ (800165c <_GLOBAL__sub_I__ZN8PUTM_CAN3canE+0x88>)
 80015d6:	4a22      	ldr	r2, [pc, #136]	@ (8001660 <_GLOBAL__sub_I__ZN8PUTM_CAN3canE+0x8c>)
 80015d8:	601a      	str	r2, [r3, #0]
 80015da:	f640 209e 	movw	r0, #2718	@ 0xa9e
 80015de:	f44f 71a4 	mov.w	r1, #328	@ 0x148
 80015e2:	e9c3 0102 	strd	r0, r1, [r3, #8]
 80015e6:	f640 4c0b 	movw	ip, #3083	@ 0xc0b
 80015ea:	f240 216d 	movw	r1, #621	@ 0x26d
 80015ee:	e9c3 c104 	strd	ip, r1, [r3, #16]
 80015f2:	f44f 71fa 	mov.w	r1, #500	@ 0x1f4
 80015f6:	e9c3 1107 	strd	r1, r1, [r3, #28]
 80015fa:	491a      	ldr	r1, [pc, #104]	@ (8001664 <_GLOBAL__sub_I__ZN8PUTM_CAN3canE+0x90>)
 80015fc:	6259      	str	r1, [r3, #36]	@ 0x24
 80015fe:	491a      	ldr	r1, [pc, #104]	@ (8001668 <_GLOBAL__sub_I__ZN8PUTM_CAN3canE+0x94>)
 8001600:	6299      	str	r1, [r3, #40]	@ 0x28
 8001602:	491a      	ldr	r1, [pc, #104]	@ (800166c <_GLOBAL__sub_I__ZN8PUTM_CAN3canE+0x98>)
 8001604:	62d9      	str	r1, [r3, #44]	@ 0x2c
 8001606:	2200      	movs	r2, #0
 8001608:	2101      	movs	r1, #1
 800160a:	711a      	strb	r2, [r3, #4]
 800160c:	619a      	str	r2, [r3, #24]
 800160e:	f883 10f8 	strb.w	r1, [r3, #248]	@ 0xf8
 8001612:	4b17      	ldr	r3, [pc, #92]	@ (8001670 <_GLOBAL__sub_I__ZN8PUTM_CAN3canE+0x9c>)
 8001614:	701a      	strb	r2, [r3, #0]
 8001616:	4b17      	ldr	r3, [pc, #92]	@ (8001674 <_GLOBAL__sub_I__ZN8PUTM_CAN3canE+0xa0>)
 8001618:	4a17      	ldr	r2, [pc, #92]	@ (8001678 <_GLOBAL__sub_I__ZN8PUTM_CAN3canE+0xa4>)
 800161a:	f640 2082 	movw	r0, #2690	@ 0xa82
 800161e:	e9c3 0200 	strd	r0, r2, [r3]
 8001622:	2287      	movs	r2, #135	@ 0x87
 8001624:	f06f 0086 	mvn.w	r0, #134	@ 0x86
 8001628:	e9c3 2002 	strd	r2, r0, [r3, #8]
 800162c:	611a      	str	r2, [r3, #16]
 800162e:	f44f 7287 	mov.w	r2, #270	@ 0x10e
 8001632:	615a      	str	r2, [r3, #20]
 8001634:	4a11      	ldr	r2, [pc, #68]	@ (800167c <_GLOBAL__sub_I__ZN8PUTM_CAN3canE+0xa8>)
 8001636:	619a      	str	r2, [r3, #24]
 8001638:	4a11      	ldr	r2, [pc, #68]	@ (8001680 <_GLOBAL__sub_I__ZN8PUTM_CAN3canE+0xac>)
 800163a:	61da      	str	r2, [r3, #28]
 800163c:	4b11      	ldr	r3, [pc, #68]	@ (8001684 <_GLOBAL__sub_I__ZN8PUTM_CAN3canE+0xb0>)
 800163e:	2264      	movs	r2, #100	@ 0x64
 8001640:	705a      	strb	r2, [r3, #1]
 8001642:	7099      	strb	r1, [r3, #2]
 8001644:	4b10      	ldr	r3, [pc, #64]	@ (8001688 <_GLOBAL__sub_I__ZN8PUTM_CAN3canE+0xb4>)
 8001646:	f640 1225 	movw	r2, #2341	@ 0x925
 800164a:	801a      	strh	r2, [r3, #0]
 800164c:	f640 02d1 	movw	r2, #2257	@ 0x8d1
 8001650:	805a      	strh	r2, [r3, #2]
 8001652:	f241 428f 	movw	r2, #5263	@ 0x148f
 8001656:	809a      	strh	r2, [r3, #4]
 8001658:	4770      	bx	lr
 800165a:	bf00      	nop
 800165c:	2000085c 	.word	0x2000085c
 8001660:	3d4ccccd 	.word	0x3d4ccccd
 8001664:	40a53f7d 	.word	0x40a53f7d
 8001668:	40bb74bc 	.word	0x40bb74bc
 800166c:	3dcccccd 	.word	0x3dcccccd
 8001670:	2000072c 	.word	0x2000072c
 8001674:	20000644 	.word	0x20000644
 8001678:	fffffa56 	.word	0xfffffa56
 800167c:	41100000 	.word	0x41100000
 8001680:	c0a00000 	.word	0xc0a00000
 8001684:	2000063a 	.word	0x2000063a
 8001688:	2000055c 	.word	0x2000055c

0800168c <HAL_MspInit>:
 800168c:	4b0f      	ldr	r3, [pc, #60]	@ (80016cc <HAL_MspInit+0x40>)
 800168e:	b507      	push	{r0, r1, r2, lr}
 8001690:	6e1a      	ldr	r2, [r3, #96]	@ 0x60
 8001692:	f042 0201 	orr.w	r2, r2, #1
 8001696:	661a      	str	r2, [r3, #96]	@ 0x60
 8001698:	6e1a      	ldr	r2, [r3, #96]	@ 0x60
 800169a:	f002 0201 	and.w	r2, r2, #1
 800169e:	9200      	str	r2, [sp, #0]
 80016a0:	9a00      	ldr	r2, [sp, #0]
 80016a2:	6d9a      	ldr	r2, [r3, #88]	@ 0x58
 80016a4:	f042 5280 	orr.w	r2, r2, #268435456	@ 0x10000000
 80016a8:	659a      	str	r2, [r3, #88]	@ 0x58
 80016aa:	6d9b      	ldr	r3, [r3, #88]	@ 0x58
 80016ac:	f003 5380 	and.w	r3, r3, #268435456	@ 0x10000000
 80016b0:	9301      	str	r3, [sp, #4]
 80016b2:	2200      	movs	r2, #0
 80016b4:	210f      	movs	r1, #15
 80016b6:	f06f 0001 	mvn.w	r0, #1
 80016ba:	9b01      	ldr	r3, [sp, #4]
 80016bc:	f001 fc6e 	bl	8002f9c <HAL_NVIC_SetPriority>
 80016c0:	b003      	add	sp, #12
 80016c2:	f85d eb04 	ldr.w	lr, [sp], #4
 80016c6:	f002 bb81 	b.w	8003dcc <HAL_PWREx_DisableUCPDDeadBattery>
 80016ca:	bf00      	nop
 80016cc:	40021000 	.word	0x40021000

080016d0 <HAL_ADC_MspInit>:
 80016d0:	b5f0      	push	{r4, r5, r6, r7, lr}
 80016d2:	b0a3      	sub	sp, #140	@ 0x8c
 80016d4:	4605      	mov	r5, r0
 80016d6:	2214      	movs	r2, #20
 80016d8:	2100      	movs	r1, #0
 80016da:	a808      	add	r0, sp, #32
 80016dc:	f005 f8f8 	bl	80068d0 <memset>
 80016e0:	2254      	movs	r2, #84	@ 0x54
 80016e2:	2100      	movs	r1, #0
 80016e4:	a80d      	add	r0, sp, #52	@ 0x34
 80016e6:	f005 f8f3 	bl	80068d0 <memset>
 80016ea:	682b      	ldr	r3, [r5, #0]
 80016ec:	f1b3 4fa0 	cmp.w	r3, #1342177280	@ 0x50000000
 80016f0:	d174      	bne.n	80017dc <HAL_ADC_MspInit+0x10c>
 80016f2:	f44f 4300 	mov.w	r3, #32768	@ 0x8000
 80016f6:	930d      	str	r3, [sp, #52]	@ 0x34
 80016f8:	a80d      	add	r0, sp, #52	@ 0x34
 80016fa:	f04f 5300 	mov.w	r3, #536870912	@ 0x20000000
 80016fe:	931e      	str	r3, [sp, #120]	@ 0x78
 8001700:	f002 fed8 	bl	80044b4 <HAL_RCCEx_PeriphCLKConfig>
 8001704:	b108      	cbz	r0, 800170a <HAL_ADC_MspInit+0x3a>
 8001706:	f7ff ff63 	bl	80015d0 <Error_Handler>
 800170a:	4a62      	ldr	r2, [pc, #392]	@ (8001894 <HAL_ADC_MspInit+0x1c4>)
 800170c:	6813      	ldr	r3, [r2, #0]
 800170e:	3301      	adds	r3, #1
 8001710:	2b01      	cmp	r3, #1
 8001712:	6013      	str	r3, [r2, #0]
 8001714:	4b60      	ldr	r3, [pc, #384]	@ (8001898 <HAL_ADC_MspInit+0x1c8>)
 8001716:	d108      	bne.n	800172a <HAL_ADC_MspInit+0x5a>
 8001718:	6cda      	ldr	r2, [r3, #76]	@ 0x4c
 800171a:	f442 5200 	orr.w	r2, r2, #8192	@ 0x2000
 800171e:	64da      	str	r2, [r3, #76]	@ 0x4c
 8001720:	6cda      	ldr	r2, [r3, #76]	@ 0x4c
 8001722:	f402 5200 	and.w	r2, r2, #8192	@ 0x2000
 8001726:	9200      	str	r2, [sp, #0]
 8001728:	9a00      	ldr	r2, [sp, #0]
 800172a:	6cda      	ldr	r2, [r3, #76]	@ 0x4c
 800172c:	485b      	ldr	r0, [pc, #364]	@ (800189c <HAL_ADC_MspInit+0x1cc>)
 800172e:	f042 0204 	orr.w	r2, r2, #4
 8001732:	64da      	str	r2, [r3, #76]	@ 0x4c
 8001734:	6cda      	ldr	r2, [r3, #76]	@ 0x4c
 8001736:	f002 0204 	and.w	r2, r2, #4
 800173a:	9201      	str	r2, [sp, #4]
 800173c:	9a01      	ldr	r2, [sp, #4]
 800173e:	6cda      	ldr	r2, [r3, #76]	@ 0x4c
 8001740:	f042 0201 	orr.w	r2, r2, #1
 8001744:	64da      	str	r2, [r3, #76]	@ 0x4c
 8001746:	6cda      	ldr	r2, [r3, #76]	@ 0x4c
 8001748:	f002 0201 	and.w	r2, r2, #1
 800174c:	9202      	str	r2, [sp, #8]
 800174e:	9a02      	ldr	r2, [sp, #8]
 8001750:	6cda      	ldr	r2, [r3, #76]	@ 0x4c
 8001752:	f042 0202 	orr.w	r2, r2, #2
 8001756:	64da      	str	r2, [r3, #76]	@ 0x4c
 8001758:	6cdb      	ldr	r3, [r3, #76]	@ 0x4c
 800175a:	f003 0302 	and.w	r3, r3, #2
 800175e:	2403      	movs	r4, #3
 8001760:	2600      	movs	r6, #0
 8001762:	9303      	str	r3, [sp, #12]
 8001764:	2705      	movs	r7, #5
 8001766:	a908      	add	r1, sp, #32
 8001768:	e9cd 7408 	strd	r7, r4, [sp, #32]
 800176c:	9b03      	ldr	r3, [sp, #12]
 800176e:	960a      	str	r6, [sp, #40]	@ 0x28
 8001770:	f002 f9f0 	bl	8003b54 <HAL_GPIO_Init>
 8001774:	2308      	movs	r3, #8
 8001776:	a908      	add	r1, sp, #32
 8001778:	f04f 4090 	mov.w	r0, #1207959552	@ 0x48000000
 800177c:	e9cd 3408 	strd	r3, r4, [sp, #32]
 8001780:	960a      	str	r6, [sp, #40]	@ 0x28
 8001782:	f002 f9e7 	bl	8003b54 <HAL_GPIO_Init>
 8001786:	2301      	movs	r3, #1
 8001788:	4845      	ldr	r0, [pc, #276]	@ (80018a0 <HAL_ADC_MspInit+0x1d0>)
 800178a:	960a      	str	r6, [sp, #40]	@ 0x28
 800178c:	a908      	add	r1, sp, #32
 800178e:	e9cd 3408 	strd	r3, r4, [sp, #32]
 8001792:	f002 f9df 	bl	8003b54 <HAL_GPIO_Init>
 8001796:	4c43      	ldr	r4, [pc, #268]	@ (80018a4 <HAL_ADC_MspInit+0x1d4>)
 8001798:	4b43      	ldr	r3, [pc, #268]	@ (80018a8 <HAL_ADC_MspInit+0x1d8>)
 800179a:	e9c4 3700 	strd	r3, r7, [r4]
 800179e:	f44f 7380 	mov.w	r3, #256	@ 0x100
 80017a2:	2280      	movs	r2, #128	@ 0x80
 80017a4:	e9c4 2304 	strd	r2, r3, [r4, #16]
 80017a8:	f44f 6180 	mov.w	r1, #1024	@ 0x400
 80017ac:	2320      	movs	r3, #32
 80017ae:	e9c4 6602 	strd	r6, r6, [r4, #8]
 80017b2:	e9c4 1306 	strd	r1, r3, [r4, #24]
 80017b6:	6226      	str	r6, [r4, #32]
 80017b8:	4620      	mov	r0, r4
 80017ba:	f001 fdb3 	bl	8003324 <HAL_DMA_Init>
 80017be:	b108      	cbz	r0, 80017c4 <HAL_ADC_MspInit+0xf4>
 80017c0:	f7ff ff06 	bl	80015d0 <Error_Handler>
 80017c4:	656c      	str	r4, [r5, #84]	@ 0x54
 80017c6:	2012      	movs	r0, #18
 80017c8:	62a5      	str	r5, [r4, #40]	@ 0x28
 80017ca:	2200      	movs	r2, #0
 80017cc:	2105      	movs	r1, #5
 80017ce:	f001 fbe5 	bl	8002f9c <HAL_NVIC_SetPriority>
 80017d2:	2012      	movs	r0, #18
 80017d4:	f001 fc14 	bl	8003000 <HAL_NVIC_EnableIRQ>
 80017d8:	b023      	add	sp, #140	@ 0x8c
 80017da:	bdf0      	pop	{r4, r5, r6, r7, pc}
 80017dc:	4a33      	ldr	r2, [pc, #204]	@ (80018ac <HAL_ADC_MspInit+0x1dc>)
 80017de:	4293      	cmp	r3, r2
 80017e0:	d1fa      	bne.n	80017d8 <HAL_ADC_MspInit+0x108>
 80017e2:	f44f 4300 	mov.w	r3, #32768	@ 0x8000
 80017e6:	930d      	str	r3, [sp, #52]	@ 0x34
 80017e8:	a80d      	add	r0, sp, #52	@ 0x34
 80017ea:	f04f 5300 	mov.w	r3, #536870912	@ 0x20000000
 80017ee:	931e      	str	r3, [sp, #120]	@ 0x78
 80017f0:	f002 fe60 	bl	80044b4 <HAL_RCCEx_PeriphCLKConfig>
 80017f4:	b108      	cbz	r0, 80017fa <HAL_ADC_MspInit+0x12a>
 80017f6:	f7ff feeb 	bl	80015d0 <Error_Handler>
 80017fa:	4a26      	ldr	r2, [pc, #152]	@ (8001894 <HAL_ADC_MspInit+0x1c4>)
 80017fc:	6813      	ldr	r3, [r2, #0]
 80017fe:	3301      	adds	r3, #1
 8001800:	2b01      	cmp	r3, #1
 8001802:	6013      	str	r3, [r2, #0]
 8001804:	4b24      	ldr	r3, [pc, #144]	@ (8001898 <HAL_ADC_MspInit+0x1c8>)
 8001806:	d108      	bne.n	800181a <HAL_ADC_MspInit+0x14a>
 8001808:	6cda      	ldr	r2, [r3, #76]	@ 0x4c
 800180a:	f442 5200 	orr.w	r2, r2, #8192	@ 0x2000
 800180e:	64da      	str	r2, [r3, #76]	@ 0x4c
 8001810:	6cda      	ldr	r2, [r3, #76]	@ 0x4c
 8001812:	f402 5200 	and.w	r2, r2, #8192	@ 0x2000
 8001816:	9204      	str	r2, [sp, #16]
 8001818:	9a04      	ldr	r2, [sp, #16]
 800181a:	6cda      	ldr	r2, [r3, #76]	@ 0x4c
 800181c:	f042 0201 	orr.w	r2, r2, #1
 8001820:	64da      	str	r2, [r3, #76]	@ 0x4c
 8001822:	6cda      	ldr	r2, [r3, #76]	@ 0x4c
 8001824:	f002 0201 	and.w	r2, r2, #1
 8001828:	9205      	str	r2, [sp, #20]
 800182a:	9a05      	ldr	r2, [sp, #20]
 800182c:	6cda      	ldr	r2, [r3, #76]	@ 0x4c
 800182e:	f042 0204 	orr.w	r2, r2, #4
 8001832:	64da      	str	r2, [r3, #76]	@ 0x4c
 8001834:	6cda      	ldr	r2, [r3, #76]	@ 0x4c
 8001836:	f002 0204 	and.w	r2, r2, #4
 800183a:	9206      	str	r2, [sp, #24]
 800183c:	9a06      	ldr	r2, [sp, #24]
 800183e:	6cda      	ldr	r2, [r3, #76]	@ 0x4c
 8001840:	f042 0202 	orr.w	r2, r2, #2
 8001844:	64da      	str	r2, [r3, #76]	@ 0x4c
 8001846:	6cdb      	ldr	r3, [r3, #76]	@ 0x4c
 8001848:	f003 0302 	and.w	r3, r3, #2
 800184c:	9307      	str	r3, [sp, #28]
 800184e:	2403      	movs	r4, #3
 8001850:	2600      	movs	r6, #0
 8001852:	9b07      	ldr	r3, [sp, #28]
 8001854:	960a      	str	r6, [sp, #40]	@ 0x28
 8001856:	2390      	movs	r3, #144	@ 0x90
 8001858:	a908      	add	r1, sp, #32
 800185a:	f04f 4090 	mov.w	r0, #1207959552	@ 0x48000000
 800185e:	e9cd 3408 	strd	r3, r4, [sp, #32]
 8001862:	f002 f977 	bl	8003b54 <HAL_GPIO_Init>
 8001866:	2330      	movs	r3, #48	@ 0x30
 8001868:	480c      	ldr	r0, [pc, #48]	@ (800189c <HAL_ADC_MspInit+0x1cc>)
 800186a:	960a      	str	r6, [sp, #40]	@ 0x28
 800186c:	a908      	add	r1, sp, #32
 800186e:	e9cd 3408 	strd	r3, r4, [sp, #32]
 8001872:	f002 f96f 	bl	8003b54 <HAL_GPIO_Init>
 8001876:	2304      	movs	r3, #4
 8001878:	4809      	ldr	r0, [pc, #36]	@ (80018a0 <HAL_ADC_MspInit+0x1d0>)
 800187a:	960a      	str	r6, [sp, #40]	@ 0x28
 800187c:	a908      	add	r1, sp, #32
 800187e:	e9cd 3408 	strd	r3, r4, [sp, #32]
 8001882:	f002 f967 	bl	8003b54 <HAL_GPIO_Init>
 8001886:	4c0a      	ldr	r4, [pc, #40]	@ (80018b0 <HAL_ADC_MspInit+0x1e0>)
 8001888:	480a      	ldr	r0, [pc, #40]	@ (80018b4 <HAL_ADC_MspInit+0x1e4>)
 800188a:	2324      	movs	r3, #36	@ 0x24
 800188c:	e9c4 0300 	strd	r0, r3, [r4]
 8001890:	e785      	b.n	800179e <HAL_ADC_MspInit+0xce>
 8001892:	bf00      	nop
 8001894:	20000e7c 	.word	0x20000e7c
 8001898:	40021000 	.word	0x40021000
 800189c:	48000800 	.word	0x48000800
 80018a0:	48000400 	.word	0x48000400
 80018a4:	20000424 	.word	0x20000424
 80018a8:	40020008 	.word	0x40020008
 80018ac:	50000100 	.word	0x50000100
 80018b0:	200003c4 	.word	0x200003c4
 80018b4:	4002001c 	.word	0x4002001c

080018b8 <HAL_DAC_MspInit>:
 80018b8:	b510      	push	{r4, lr}
 80018ba:	2214      	movs	r2, #20
 80018bc:	b08a      	sub	sp, #40	@ 0x28
 80018be:	4604      	mov	r4, r0
 80018c0:	2100      	movs	r1, #0
 80018c2:	eb0d 0002 	add.w	r0, sp, r2
 80018c6:	f005 f803 	bl	80068d0 <memset>
 80018ca:	6823      	ldr	r3, [r4, #0]
 80018cc:	4a1c      	ldr	r2, [pc, #112]	@ (8001940 <HAL_DAC_MspInit+0x88>)
 80018ce:	4293      	cmp	r3, r2
 80018d0:	d11d      	bne.n	800190e <HAL_DAC_MspInit+0x56>
 80018d2:	4b1c      	ldr	r3, [pc, #112]	@ (8001944 <HAL_DAC_MspInit+0x8c>)
 80018d4:	6cda      	ldr	r2, [r3, #76]	@ 0x4c
 80018d6:	f442 3280 	orr.w	r2, r2, #65536	@ 0x10000
 80018da:	64da      	str	r2, [r3, #76]	@ 0x4c
 80018dc:	6cda      	ldr	r2, [r3, #76]	@ 0x4c
 80018de:	f402 3280 	and.w	r2, r2, #65536	@ 0x10000
 80018e2:	9201      	str	r2, [sp, #4]
 80018e4:	9a01      	ldr	r2, [sp, #4]
 80018e6:	6cda      	ldr	r2, [r3, #76]	@ 0x4c
 80018e8:	f042 0201 	orr.w	r2, r2, #1
 80018ec:	64da      	str	r2, [r3, #76]	@ 0x4c
 80018ee:	6cdb      	ldr	r3, [r3, #76]	@ 0x4c
 80018f0:	f003 0301 	and.w	r3, r3, #1
 80018f4:	9302      	str	r3, [sp, #8]
 80018f6:	9b02      	ldr	r3, [sp, #8]
 80018f8:	2320      	movs	r3, #32
 80018fa:	9305      	str	r3, [sp, #20]
 80018fc:	a905      	add	r1, sp, #20
 80018fe:	2303      	movs	r3, #3
 8001900:	f04f 4090 	mov.w	r0, #1207959552	@ 0x48000000
 8001904:	9306      	str	r3, [sp, #24]
 8001906:	f002 f925 	bl	8003b54 <HAL_GPIO_Init>
 800190a:	b00a      	add	sp, #40	@ 0x28
 800190c:	bd10      	pop	{r4, pc}
 800190e:	4a0e      	ldr	r2, [pc, #56]	@ (8001948 <HAL_DAC_MspInit+0x90>)
 8001910:	4293      	cmp	r3, r2
 8001912:	d1fa      	bne.n	800190a <HAL_DAC_MspInit+0x52>
 8001914:	4b0b      	ldr	r3, [pc, #44]	@ (8001944 <HAL_DAC_MspInit+0x8c>)
 8001916:	6cda      	ldr	r2, [r3, #76]	@ 0x4c
 8001918:	f442 3200 	orr.w	r2, r2, #131072	@ 0x20000
 800191c:	64da      	str	r2, [r3, #76]	@ 0x4c
 800191e:	6cda      	ldr	r2, [r3, #76]	@ 0x4c
 8001920:	f402 3200 	and.w	r2, r2, #131072	@ 0x20000
 8001924:	9203      	str	r2, [sp, #12]
 8001926:	9a03      	ldr	r2, [sp, #12]
 8001928:	6cda      	ldr	r2, [r3, #76]	@ 0x4c
 800192a:	f042 0201 	orr.w	r2, r2, #1
 800192e:	64da      	str	r2, [r3, #76]	@ 0x4c
 8001930:	6cdb      	ldr	r3, [r3, #76]	@ 0x4c
 8001932:	f003 0301 	and.w	r3, r3, #1
 8001936:	9304      	str	r3, [sp, #16]
 8001938:	9b04      	ldr	r3, [sp, #16]
 800193a:	2340      	movs	r3, #64	@ 0x40
 800193c:	e7dd      	b.n	80018fa <HAL_DAC_MspInit+0x42>
 800193e:	bf00      	nop
 8001940:	50000800 	.word	0x50000800
 8001944:	40021000 	.word	0x40021000
 8001948:	50000c00 	.word	0x50000c00

0800194c <HAL_FDCAN_MspInit>:
 800194c:	b510      	push	{r4, lr}
 800194e:	b09e      	sub	sp, #120	@ 0x78
 8001950:	4604      	mov	r4, r0
 8001952:	2214      	movs	r2, #20
 8001954:	2100      	movs	r1, #0
 8001956:	a804      	add	r0, sp, #16
 8001958:	f004 ffba 	bl	80068d0 <memset>
 800195c:	2254      	movs	r2, #84	@ 0x54
 800195e:	2100      	movs	r1, #0
 8001960:	a809      	add	r0, sp, #36	@ 0x24
 8001962:	f004 ffb5 	bl	80068d0 <memset>
 8001966:	6823      	ldr	r3, [r4, #0]
 8001968:	4a46      	ldr	r2, [pc, #280]	@ (8001a84 <HAL_FDCAN_MspInit+0x138>)
 800196a:	4293      	cmp	r3, r2
 800196c:	d145      	bne.n	80019fa <HAL_FDCAN_MspInit+0xae>
 800196e:	f44f 5380 	mov.w	r3, #4096	@ 0x1000
 8001972:	9309      	str	r3, [sp, #36]	@ 0x24
 8001974:	a809      	add	r0, sp, #36	@ 0x24
 8001976:	f04f 7300 	mov.w	r3, #33554432	@ 0x2000000
 800197a:	9317      	str	r3, [sp, #92]	@ 0x5c
 800197c:	f002 fd9a 	bl	80044b4 <HAL_RCCEx_PeriphCLKConfig>
 8001980:	b108      	cbz	r0, 8001986 <HAL_FDCAN_MspInit+0x3a>
 8001982:	f7ff fe25 	bl	80015d0 <Error_Handler>
 8001986:	4a40      	ldr	r2, [pc, #256]	@ (8001a88 <HAL_FDCAN_MspInit+0x13c>)
 8001988:	6813      	ldr	r3, [r2, #0]
 800198a:	3301      	adds	r3, #1
 800198c:	2b01      	cmp	r3, #1
 800198e:	6013      	str	r3, [r2, #0]
 8001990:	4b3e      	ldr	r3, [pc, #248]	@ (8001a8c <HAL_FDCAN_MspInit+0x140>)
 8001992:	d108      	bne.n	80019a6 <HAL_FDCAN_MspInit+0x5a>
 8001994:	6d9a      	ldr	r2, [r3, #88]	@ 0x58
 8001996:	f042 7200 	orr.w	r2, r2, #33554432	@ 0x2000000
 800199a:	659a      	str	r2, [r3, #88]	@ 0x58
 800199c:	6d9a      	ldr	r2, [r3, #88]	@ 0x58
 800199e:	f002 7200 	and.w	r2, r2, #33554432	@ 0x2000000
 80019a2:	9200      	str	r2, [sp, #0]
 80019a4:	9a00      	ldr	r2, [sp, #0]
 80019a6:	6cda      	ldr	r2, [r3, #76]	@ 0x4c
 80019a8:	f042 0201 	orr.w	r2, r2, #1
 80019ac:	64da      	str	r2, [r3, #76]	@ 0x4c
 80019ae:	6cdb      	ldr	r3, [r3, #76]	@ 0x4c
 80019b0:	f003 0301 	and.w	r3, r3, #1
 80019b4:	9301      	str	r3, [sp, #4]
 80019b6:	9b01      	ldr	r3, [sp, #4]
 80019b8:	f44f 50c0 	mov.w	r0, #6144	@ 0x1800
 80019bc:	2302      	movs	r3, #2
 80019be:	e9cd 0304 	strd	r0, r3, [sp, #16]
 80019c2:	2400      	movs	r4, #0
 80019c4:	2309      	movs	r3, #9
 80019c6:	a904      	add	r1, sp, #16
 80019c8:	f04f 4090 	mov.w	r0, #1207959552	@ 0x48000000
 80019cc:	9308      	str	r3, [sp, #32]
 80019ce:	e9cd 4406 	strd	r4, r4, [sp, #24]
 80019d2:	f002 f8bf 	bl	8003b54 <HAL_GPIO_Init>
 80019d6:	4622      	mov	r2, r4
 80019d8:	2105      	movs	r1, #5
 80019da:	2015      	movs	r0, #21
 80019dc:	f001 fade 	bl	8002f9c <HAL_NVIC_SetPriority>
 80019e0:	2015      	movs	r0, #21
 80019e2:	f001 fb0d 	bl	8003000 <HAL_NVIC_EnableIRQ>
 80019e6:	2016      	movs	r0, #22
 80019e8:	4622      	mov	r2, r4
 80019ea:	2105      	movs	r1, #5
 80019ec:	f001 fad6 	bl	8002f9c <HAL_NVIC_SetPriority>
 80019f0:	2016      	movs	r0, #22
 80019f2:	f001 fb05 	bl	8003000 <HAL_NVIC_EnableIRQ>
 80019f6:	b01e      	add	sp, #120	@ 0x78
 80019f8:	bd10      	pop	{r4, pc}
 80019fa:	4a25      	ldr	r2, [pc, #148]	@ (8001a90 <HAL_FDCAN_MspInit+0x144>)
 80019fc:	4293      	cmp	r3, r2
 80019fe:	d1fa      	bne.n	80019f6 <HAL_FDCAN_MspInit+0xaa>
 8001a00:	f44f 5380 	mov.w	r3, #4096	@ 0x1000
 8001a04:	9309      	str	r3, [sp, #36]	@ 0x24
 8001a06:	a809      	add	r0, sp, #36	@ 0x24
 8001a08:	f04f 7300 	mov.w	r3, #33554432	@ 0x2000000
 8001a0c:	9317      	str	r3, [sp, #92]	@ 0x5c
 8001a0e:	f002 fd51 	bl	80044b4 <HAL_RCCEx_PeriphCLKConfig>
 8001a12:	b108      	cbz	r0, 8001a18 <HAL_FDCAN_MspInit+0xcc>
 8001a14:	f7ff fddc 	bl	80015d0 <Error_Handler>
 8001a18:	4a1b      	ldr	r2, [pc, #108]	@ (8001a88 <HAL_FDCAN_MspInit+0x13c>)
 8001a1a:	6813      	ldr	r3, [r2, #0]
 8001a1c:	3301      	adds	r3, #1
 8001a1e:	2b01      	cmp	r3, #1
 8001a20:	6013      	str	r3, [r2, #0]
 8001a22:	4b1a      	ldr	r3, [pc, #104]	@ (8001a8c <HAL_FDCAN_MspInit+0x140>)
 8001a24:	d108      	bne.n	8001a38 <HAL_FDCAN_MspInit+0xec>
 8001a26:	6d9a      	ldr	r2, [r3, #88]	@ 0x58
 8001a28:	f042 7200 	orr.w	r2, r2, #33554432	@ 0x2000000
 8001a2c:	659a      	str	r2, [r3, #88]	@ 0x58
 8001a2e:	6d9a      	ldr	r2, [r3, #88]	@ 0x58
 8001a30:	f002 7200 	and.w	r2, r2, #33554432	@ 0x2000000
 8001a34:	9202      	str	r2, [sp, #8]
 8001a36:	9a02      	ldr	r2, [sp, #8]
 8001a38:	6cda      	ldr	r2, [r3, #76]	@ 0x4c
 8001a3a:	4816      	ldr	r0, [pc, #88]	@ (8001a94 <HAL_FDCAN_MspInit+0x148>)
 8001a3c:	f042 0202 	orr.w	r2, r2, #2
 8001a40:	64da      	str	r2, [r3, #76]	@ 0x4c
 8001a42:	6cdb      	ldr	r3, [r3, #76]	@ 0x4c
 8001a44:	f003 0302 	and.w	r3, r3, #2
 8001a48:	9303      	str	r3, [sp, #12]
 8001a4a:	f44f 5240 	mov.w	r2, #12288	@ 0x3000
 8001a4e:	9b03      	ldr	r3, [sp, #12]
 8001a50:	2302      	movs	r3, #2
 8001a52:	e9cd 2304 	strd	r2, r3, [sp, #16]
 8001a56:	2400      	movs	r4, #0
 8001a58:	2309      	movs	r3, #9
 8001a5a:	a904      	add	r1, sp, #16
 8001a5c:	9308      	str	r3, [sp, #32]
 8001a5e:	e9cd 4406 	strd	r4, r4, [sp, #24]
 8001a62:	f002 f877 	bl	8003b54 <HAL_GPIO_Init>
 8001a66:	4622      	mov	r2, r4
 8001a68:	2105      	movs	r1, #5
 8001a6a:	2056      	movs	r0, #86	@ 0x56
 8001a6c:	f001 fa96 	bl	8002f9c <HAL_NVIC_SetPriority>
 8001a70:	2056      	movs	r0, #86	@ 0x56
 8001a72:	f001 fac5 	bl	8003000 <HAL_NVIC_EnableIRQ>
 8001a76:	2057      	movs	r0, #87	@ 0x57
 8001a78:	4622      	mov	r2, r4
 8001a7a:	2105      	movs	r1, #5
 8001a7c:	f001 fa8e 	bl	8002f9c <HAL_NVIC_SetPriority>
 8001a80:	2057      	movs	r0, #87	@ 0x57
 8001a82:	e7b6      	b.n	80019f2 <HAL_FDCAN_MspInit+0xa6>
 8001a84:	40006400 	.word	0x40006400
 8001a88:	20000e78 	.word	0x20000e78
 8001a8c:	40021000 	.word	0x40021000
 8001a90:	40006800 	.word	0x40006800
 8001a94:	48000400 	.word	0x48000400

08001a98 <HAL_TIM_Base_MspInit>:
 8001a98:	6803      	ldr	r3, [r0, #0]
 8001a9a:	f1b3 4f80 	cmp.w	r3, #1073741824	@ 0x40000000
 8001a9e:	b507      	push	{r0, r1, r2, lr}
 8001aa0:	d115      	bne.n	8001ace <HAL_TIM_Base_MspInit+0x36>
 8001aa2:	f503 3304 	add.w	r3, r3, #135168	@ 0x21000
 8001aa6:	2105      	movs	r1, #5
 8001aa8:	6d9a      	ldr	r2, [r3, #88]	@ 0x58
 8001aaa:	f042 0201 	orr.w	r2, r2, #1
 8001aae:	659a      	str	r2, [r3, #88]	@ 0x58
 8001ab0:	6d9b      	ldr	r3, [r3, #88]	@ 0x58
 8001ab2:	f003 0301 	and.w	r3, r3, #1
 8001ab6:	9301      	str	r3, [sp, #4]
 8001ab8:	2200      	movs	r2, #0
 8001aba:	201c      	movs	r0, #28
 8001abc:	9b01      	ldr	r3, [sp, #4]
 8001abe:	f001 fa6d 	bl	8002f9c <HAL_NVIC_SetPriority>
 8001ac2:	201c      	movs	r0, #28
 8001ac4:	b003      	add	sp, #12
 8001ac6:	f85d eb04 	ldr.w	lr, [sp], #4
 8001aca:	f001 ba99 	b.w	8003000 <HAL_NVIC_EnableIRQ>
 8001ace:	b003      	add	sp, #12
 8001ad0:	f85d fb04 	ldr.w	pc, [sp], #4

08001ad4 <HAL_InitTick>:
 8001ad4:	b570      	push	{r4, r5, r6, lr}
 8001ad6:	4b1d      	ldr	r3, [pc, #116]	@ (8001b4c <HAL_InitTick+0x78>)
 8001ad8:	4d1d      	ldr	r5, [pc, #116]	@ (8001b50 <HAL_InitTick+0x7c>)
 8001ada:	6e1a      	ldr	r2, [r3, #96]	@ 0x60
 8001adc:	f442 6200 	orr.w	r2, r2, #2048	@ 0x800
 8001ae0:	b088      	sub	sp, #32
 8001ae2:	661a      	str	r2, [r3, #96]	@ 0x60
 8001ae4:	6e1b      	ldr	r3, [r3, #96]	@ 0x60
 8001ae6:	f403 6300 	and.w	r3, r3, #2048	@ 0x800
 8001aea:	a901      	add	r1, sp, #4
 8001aec:	9302      	str	r3, [sp, #8]
 8001aee:	4606      	mov	r6, r0
 8001af0:	a803      	add	r0, sp, #12
 8001af2:	9b02      	ldr	r3, [sp, #8]
 8001af4:	f002 fcc0 	bl	8004478 <HAL_RCC_GetClockConfig>
 8001af8:	f002 fcac 	bl	8004454 <HAL_RCC_GetPCLK2Freq>
 8001afc:	4b15      	ldr	r3, [pc, #84]	@ (8001b54 <HAL_InitTick+0x80>)
 8001afe:	602b      	str	r3, [r5, #0]
 8001b00:	f240 33e7 	movw	r3, #999	@ 0x3e7
 8001b04:	60eb      	str	r3, [r5, #12]
 8001b06:	4b14      	ldr	r3, [pc, #80]	@ (8001b58 <HAL_InitTick+0x84>)
 8001b08:	fbb0 f0f3 	udiv	r0, r0, r3
 8001b0c:	3801      	subs	r0, #1
 8001b0e:	2300      	movs	r3, #0
 8001b10:	6068      	str	r0, [r5, #4]
 8001b12:	4628      	mov	r0, r5
 8001b14:	612b      	str	r3, [r5, #16]
 8001b16:	60ab      	str	r3, [r5, #8]
 8001b18:	f002 fff0 	bl	8004afc <HAL_TIM_Base_Init>
 8001b1c:	4604      	mov	r4, r0
 8001b1e:	b980      	cbnz	r0, 8001b42 <HAL_InitTick+0x6e>
 8001b20:	4628      	mov	r0, r5
 8001b22:	f002 fe79 	bl	8004818 <HAL_TIM_Base_Start_IT>
 8001b26:	4604      	mov	r4, r0
 8001b28:	b958      	cbnz	r0, 8001b42 <HAL_InitTick+0x6e>
 8001b2a:	2019      	movs	r0, #25
 8001b2c:	f001 fa68 	bl	8003000 <HAL_NVIC_EnableIRQ>
 8001b30:	2e0f      	cmp	r6, #15
 8001b32:	d809      	bhi.n	8001b48 <HAL_InitTick+0x74>
 8001b34:	4622      	mov	r2, r4
 8001b36:	4631      	mov	r1, r6
 8001b38:	2019      	movs	r0, #25
 8001b3a:	f001 fa2f 	bl	8002f9c <HAL_NVIC_SetPriority>
 8001b3e:	4b07      	ldr	r3, [pc, #28]	@ (8001b5c <HAL_InitTick+0x88>)
 8001b40:	601e      	str	r6, [r3, #0]
 8001b42:	4620      	mov	r0, r4
 8001b44:	b008      	add	sp, #32
 8001b46:	bd70      	pop	{r4, r5, r6, pc}
 8001b48:	2401      	movs	r4, #1
 8001b4a:	e7fa      	b.n	8001b42 <HAL_InitTick+0x6e>
 8001b4c:	40021000 	.word	0x40021000
 8001b50:	20000e80 	.word	0x20000e80
 8001b54:	40012c00 	.word	0x40012c00
 8001b58:	000f4240 	.word	0x000f4240
 8001b5c:	200001ec 	.word	0x200001ec

08001b60 <NMI_Handler>:
 8001b60:	e7fe      	b.n	8001b60 <NMI_Handler>

08001b62 <HardFault_Handler>:
 8001b62:	e7fe      	b.n	8001b62 <HardFault_Handler>

08001b64 <MemManage_Handler>:
 8001b64:	e7fe      	b.n	8001b64 <MemManage_Handler>

08001b66 <BusFault_Handler>:
 8001b66:	e7fe      	b.n	8001b66 <BusFault_Handler>

08001b68 <UsageFault_Handler>:
 8001b68:	e7fe      	b.n	8001b68 <UsageFault_Handler>

08001b6a <DebugMon_Handler>:
 8001b6a:	4770      	bx	lr

08001b6c <DMA1_Channel1_IRQHandler>:
 8001b6c:	4801      	ldr	r0, [pc, #4]	@ (8001b74 <DMA1_Channel1_IRQHandler+0x8>)
 8001b6e:	f001 bc87 	b.w	8003480 <HAL_DMA_IRQHandler>
 8001b72:	bf00      	nop
 8001b74:	20000424 	.word	0x20000424

08001b78 <DMA1_Channel2_IRQHandler>:
 8001b78:	4801      	ldr	r0, [pc, #4]	@ (8001b80 <DMA1_Channel2_IRQHandler+0x8>)
 8001b7a:	f001 bc81 	b.w	8003480 <HAL_DMA_IRQHandler>
 8001b7e:	bf00      	nop
 8001b80:	200003c4 	.word	0x200003c4

08001b84 <ADC1_2_IRQHandler>:
 8001b84:	b508      	push	{r3, lr}
 8001b86:	4804      	ldr	r0, [pc, #16]	@ (8001b98 <ADC1_2_IRQHandler+0x14>)
 8001b88:	f000 fc60 	bl	800244c <HAL_ADC_IRQHandler>
 8001b8c:	e8bd 4008 	ldmia.w	sp!, {r3, lr}
 8001b90:	4802      	ldr	r0, [pc, #8]	@ (8001b9c <ADC1_2_IRQHandler+0x18>)
 8001b92:	f000 bc5b 	b.w	800244c <HAL_ADC_IRQHandler>
 8001b96:	bf00      	nop
 8001b98:	200004f0 	.word	0x200004f0
 8001b9c:	20000484 	.word	0x20000484

08001ba0 <FDCAN1_IT0_IRQHandler>:
 8001ba0:	4801      	ldr	r0, [pc, #4]	@ (8001ba8 <FDCAN1_IT0_IRQHandler+0x8>)
 8001ba2:	f001 bf26 	b.w	80039f2 <HAL_FDCAN_IRQHandler>
 8001ba6:	bf00      	nop
 8001ba8:	20000338 	.word	0x20000338

08001bac <FDCAN1_IT1_IRQHandler>:
 8001bac:	f7ff bff8 	b.w	8001ba0 <FDCAN1_IT0_IRQHandler>

08001bb0 <TIM1_UP_TIM16_IRQHandler>:
 8001bb0:	4801      	ldr	r0, [pc, #4]	@ (8001bb8 <TIM1_UP_TIM16_IRQHandler+0x8>)
 8001bb2:	f002 be73 	b.w	800489c <HAL_TIM_IRQHandler>
 8001bb6:	bf00      	nop
 8001bb8:	20000e80 	.word	0x20000e80

08001bbc <TIM2_IRQHandler>:
 8001bbc:	4801      	ldr	r0, [pc, #4]	@ (8001bc4 <TIM2_IRQHandler+0x8>)
 8001bbe:	f002 be6d 	b.w	800489c <HAL_TIM_IRQHandler>
 8001bc2:	bf00      	nop
 8001bc4:	20000278 	.word	0x20000278

08001bc8 <FDCAN2_IT0_IRQHandler>:
 8001bc8:	4801      	ldr	r0, [pc, #4]	@ (8001bd0 <FDCAN2_IT0_IRQHandler+0x8>)
 8001bca:	f001 bf12 	b.w	80039f2 <HAL_FDCAN_IRQHandler>
 8001bce:	bf00      	nop
 8001bd0:	200002d4 	.word	0x200002d4

08001bd4 <FDCAN2_IT1_IRQHandler>:
 8001bd4:	f7ff bff8 	b.w	8001bc8 <FDCAN2_IT0_IRQHandler>

08001bd8 <SystemInit>:
 8001bd8:	4b05      	ldr	r3, [pc, #20]	@ (8001bf0 <SystemInit+0x18>)
 8001bda:	f8d3 2088 	ldr.w	r2, [r3, #136]	@ 0x88
 8001bde:	f442 0270 	orr.w	r2, r2, #15728640	@ 0xf00000
 8001be2:	f8c3 2088 	str.w	r2, [r3, #136]	@ 0x88
 8001be6:	f04f 6200 	mov.w	r2, #134217728	@ 0x8000000
 8001bea:	609a      	str	r2, [r3, #8]
 8001bec:	4770      	bx	lr
 8001bee:	bf00      	nop
 8001bf0:	e000ed00 	.word	0xe000ed00

08001bf4 <_ZN2SC10update_valEv>:
 8001bf4:	b510      	push	{r4, lr}
 8001bf6:	2180      	movs	r1, #128	@ 0x80
 8001bf8:	4604      	mov	r4, r0
 8001bfa:	482e      	ldr	r0, [pc, #184]	@ (8001cb4 <_ZN2SC10update_valEv+0xc0>)
 8001bfc:	f002 f874 	bl	8003ce8 <HAL_GPIO_ReadPin>
 8001c00:	3800      	subs	r0, #0
 8001c02:	bf18      	it	ne
 8001c04:	2001      	movne	r0, #1
 8001c06:	7020      	strb	r0, [r4, #0]
 8001c08:	7220      	strb	r0, [r4, #8]
 8001c0a:	f44f 6100 	mov.w	r1, #2048	@ 0x800
 8001c0e:	482a      	ldr	r0, [pc, #168]	@ (8001cb8 <_ZN2SC10update_valEv+0xc4>)
 8001c10:	f002 f86a 	bl	8003ce8 <HAL_GPIO_ReadPin>
 8001c14:	3800      	subs	r0, #0
 8001c16:	bf18      	it	ne
 8001c18:	2001      	movne	r0, #1
 8001c1a:	7060      	strb	r0, [r4, #1]
 8001c1c:	7260      	strb	r0, [r4, #9]
 8001c1e:	f44f 5180 	mov.w	r1, #4096	@ 0x1000
 8001c22:	4825      	ldr	r0, [pc, #148]	@ (8001cb8 <_ZN2SC10update_valEv+0xc4>)
 8001c24:	f002 f860 	bl	8003ce8 <HAL_GPIO_ReadPin>
 8001c28:	3800      	subs	r0, #0
 8001c2a:	bf18      	it	ne
 8001c2c:	2001      	movne	r0, #1
 8001c2e:	70a0      	strb	r0, [r4, #2]
 8001c30:	72a0      	strb	r0, [r4, #10]
 8001c32:	f44f 4100 	mov.w	r1, #32768	@ 0x8000
 8001c36:	f04f 4090 	mov.w	r0, #1207959552	@ 0x48000000
 8001c3a:	f002 f855 	bl	8003ce8 <HAL_GPIO_ReadPin>
 8001c3e:	3800      	subs	r0, #0
 8001c40:	bf18      	it	ne
 8001c42:	2001      	movne	r0, #1
 8001c44:	70e0      	strb	r0, [r4, #3]
 8001c46:	72e0      	strb	r0, [r4, #11]
 8001c48:	f44f 7100 	mov.w	r1, #512	@ 0x200
 8001c4c:	4819      	ldr	r0, [pc, #100]	@ (8001cb4 <_ZN2SC10update_valEv+0xc0>)
 8001c4e:	f002 f84b 	bl	8003ce8 <HAL_GPIO_ReadPin>
 8001c52:	3800      	subs	r0, #0
 8001c54:	bf18      	it	ne
 8001c56:	2001      	movne	r0, #1
 8001c58:	7120      	strb	r0, [r4, #4]
 8001c5a:	7320      	strb	r0, [r4, #12]
 8001c5c:	2140      	movs	r1, #64	@ 0x40
 8001c5e:	4815      	ldr	r0, [pc, #84]	@ (8001cb4 <_ZN2SC10update_valEv+0xc0>)
 8001c60:	f002 f842 	bl	8003ce8 <HAL_GPIO_ReadPin>
 8001c64:	3800      	subs	r0, #0
 8001c66:	bf18      	it	ne
 8001c68:	2001      	movne	r0, #1
 8001c6a:	7160      	strb	r0, [r4, #5]
 8001c6c:	7360      	strb	r0, [r4, #13]
 8001c6e:	2120      	movs	r1, #32
 8001c70:	4810      	ldr	r0, [pc, #64]	@ (8001cb4 <_ZN2SC10update_valEv+0xc0>)
 8001c72:	f002 f839 	bl	8003ce8 <HAL_GPIO_ReadPin>
 8001c76:	3800      	subs	r0, #0
 8001c78:	79e3      	ldrb	r3, [r4, #7]
 8001c7a:	73a3      	strb	r3, [r4, #14]
 8001c7c:	bf18      	it	ne
 8001c7e:	2001      	movne	r0, #1
 8001c80:	71a0      	strb	r0, [r4, #6]
 8001c82:	2110      	movs	r1, #16
 8001c84:	480b      	ldr	r0, [pc, #44]	@ (8001cb4 <_ZN2SC10update_valEv+0xc0>)
 8001c86:	f002 f82f 	bl	8003ce8 <HAL_GPIO_ReadPin>
 8001c8a:	79a3      	ldrb	r3, [r4, #6]
 8001c8c:	73e3      	strb	r3, [r4, #15]
 8001c8e:	3800      	subs	r0, #0
 8001c90:	bf18      	it	ne
 8001c92:	2001      	movne	r0, #1
 8001c94:	2300      	movs	r3, #0
 8001c96:	71e0      	strb	r0, [r4, #7]
 8001c98:	2201      	movs	r2, #1
 8001c9a:	3407      	adds	r4, #7
 8001c9c:	4618      	mov	r0, r3
 8001c9e:	f814 1f01 	ldrb.w	r1, [r4, #1]!
 8001ca2:	b119      	cbz	r1, 8001cac <_ZN2SC10update_valEv+0xb8>
 8001ca4:	fa02 f103 	lsl.w	r1, r2, r3
 8001ca8:	4308      	orrs	r0, r1
 8001caa:	b2c0      	uxtb	r0, r0
 8001cac:	3301      	adds	r3, #1
 8001cae:	2b09      	cmp	r3, #9
 8001cb0:	d1f5      	bne.n	8001c9e <_ZN2SC10update_valEv+0xaa>
 8001cb2:	bd10      	pop	{r4, pc}
 8001cb4:	48000400 	.word	0x48000400
 8001cb8:	48000800 	.word	0x48000800
 8001cbc:	00000000 	.word	0x00000000

08001cc0 <_ZN11Tensometers10get_tens_1Ev>:
 8001cc0:	ed9f 7a21 	vldr	s14, [pc, #132]	@ 8001d48 <_ZN11Tensometers10get_tens_1Ev+0x88>
 8001cc4:	b5d0      	push	{r4, r6, r7, lr}
 8001cc6:	1d03      	adds	r3, r0, #4
 8001cc8:	4604      	mov	r4, r0
 8001cca:	f100 0268 	add.w	r2, r0, #104	@ 0x68
 8001cce:	eef0 7a47 	vmov.f32	s15, s14
 8001cd2:	eeb6 6a00 	vmov.f32	s12, #96	@ 0x3f000000  0.5
 8001cd6:	f833 1f02 	ldrh.w	r1, [r3, #2]!
 8001cda:	ee06 1a90 	vmov	s13, r1
 8001cde:	ee27 7a06 	vmul.f32	s14, s14, s12
 8001ce2:	eef8 6ae6 	vcvt.f32.s32	s13, s13
 8001ce6:	429a      	cmp	r2, r3
 8001ce8:	eea6 7a86 	vfma.f32	s14, s13, s12
 8001cec:	ee77 7a87 	vadd.f32	s15, s15, s14
 8001cf0:	d1f1      	bne.n	8001cd6 <_ZN11Tensometers10get_tens_1Ev+0x16>
 8001cf2:	eefd 7ae7 	vcvt.s32.f32	s15, s15
 8001cf6:	f9b4 0000 	ldrsh.w	r0, [r4]
 8001cfa:	ee17 3a90 	vmov	r3, s15
 8001cfe:	2232      	movs	r2, #50	@ 0x32
 8001d00:	fb93 f3f2 	sdiv	r3, r3, r2
 8001d04:	b21b      	sxth	r3, r3
 8001d06:	1a18      	subs	r0, r3, r0
 8001d08:	f7fe fd06 	bl	8000718 <__aeabi_i2d>
 8001d0c:	a30c      	add	r3, pc, #48	@ (adr r3, 8001d40 <_ZN11Tensometers10get_tens_1Ev+0x80>)
 8001d0e:	e9d3 2300 	ldrd	r2, r3, [r3]
 8001d12:	f7fe fa85 	bl	8000220 <__aeabi_dmul>
 8001d16:	4606      	mov	r6, r0
 8001d18:	88a0      	ldrh	r0, [r4, #4]
 8001d1a:	460f      	mov	r7, r1
 8001d1c:	f7fe fcfc 	bl	8000718 <__aeabi_i2d>
 8001d20:	4602      	mov	r2, r0
 8001d22:	460b      	mov	r3, r1
 8001d24:	4630      	mov	r0, r6
 8001d26:	4639      	mov	r1, r7
 8001d28:	f7fe fa7a 	bl	8000220 <__aeabi_dmul>
 8001d2c:	ec41 0b10 	vmov	d0, r0, r1
 8001d30:	f004 fd64 	bl	80067fc <round>
 8001d34:	ec51 0b10 	vmov	r0, r1, d0
 8001d38:	f7fe fd58 	bl	80007ec <__aeabi_d2iz>
 8001d3c:	b200      	sxth	r0, r0
 8001d3e:	bdd0      	pop	{r4, r6, r7, pc}
 8001d40:	e734d9b4 	.word	0xe734d9b4
 8001d44:	3f4a680c 	.word	0x3f4a680c
	...

08001d50 <_ZN11Tensometers10get_tens_2Ev>:
 8001d50:	ed9f 7a23 	vldr	s14, [pc, #140]	@ 8001de0 <_ZN11Tensometers10get_tens_2Ev+0x90>
 8001d54:	b5d0      	push	{r4, r6, r7, lr}
 8001d56:	f100 0368 	add.w	r3, r0, #104	@ 0x68
 8001d5a:	4604      	mov	r4, r0
 8001d5c:	f100 02cc 	add.w	r2, r0, #204	@ 0xcc
 8001d60:	eef0 7a47 	vmov.f32	s15, s14
 8001d64:	eeb6 6a00 	vmov.f32	s12, #96	@ 0x3f000000  0.5
 8001d68:	f833 1f02 	ldrh.w	r1, [r3, #2]!
 8001d6c:	ee06 1a90 	vmov	s13, r1
 8001d70:	ee27 7a06 	vmul.f32	s14, s14, s12
 8001d74:	eef8 6ae6 	vcvt.f32.s32	s13, s13
 8001d78:	429a      	cmp	r2, r3
 8001d7a:	eea6 7a86 	vfma.f32	s14, s13, s12
 8001d7e:	ee77 7a87 	vadd.f32	s15, s15, s14
 8001d82:	d1f1      	bne.n	8001d68 <_ZN11Tensometers10get_tens_2Ev+0x18>
 8001d84:	eefd 7ae7 	vcvt.s32.f32	s15, s15
 8001d88:	f9b4 0002 	ldrsh.w	r0, [r4, #2]
 8001d8c:	ee17 3a90 	vmov	r3, s15
 8001d90:	2232      	movs	r2, #50	@ 0x32
 8001d92:	fb93 f3f2 	sdiv	r3, r3, r2
 8001d96:	b21b      	sxth	r3, r3
 8001d98:	1a18      	subs	r0, r3, r0
 8001d9a:	f7fe fcbd 	bl	8000718 <__aeabi_i2d>
 8001d9e:	a30e      	add	r3, pc, #56	@ (adr r3, 8001dd8 <_ZN11Tensometers10get_tens_2Ev+0x88>)
 8001da0:	e9d3 2300 	ldrd	r2, r3, [r3]
 8001da4:	f7fe fa3c 	bl	8000220 <__aeabi_dmul>
 8001da8:	4606      	mov	r6, r0
 8001daa:	88a0      	ldrh	r0, [r4, #4]
 8001dac:	460f      	mov	r7, r1
 8001dae:	f7fe fcb3 	bl	8000718 <__aeabi_i2d>
 8001db2:	4602      	mov	r2, r0
 8001db4:	460b      	mov	r3, r1
 8001db6:	4630      	mov	r0, r6
 8001db8:	4639      	mov	r1, r7
 8001dba:	f7fe fa31 	bl	8000220 <__aeabi_dmul>
 8001dbe:	ec41 0b10 	vmov	d0, r0, r1
 8001dc2:	f004 fd1b 	bl	80067fc <round>
 8001dc6:	ec51 0b10 	vmov	r0, r1, d0
 8001dca:	f7fe fd0f 	bl	80007ec <__aeabi_d2iz>
 8001dce:	b200      	sxth	r0, r0
 8001dd0:	bdd0      	pop	{r4, r6, r7, pc}
 8001dd2:	bf00      	nop
 8001dd4:	f3af 8000 	nop.w
 8001dd8:	e734d9b4 	.word	0xe734d9b4
 8001ddc:	3f4a680c 	.word	0x3f4a680c
 8001de0:	00000000 	.word	0x00000000

08001de4 <_ZN6Analog21get_steering_positionEv>:
 8001de4:	eddf 7a1b 	vldr	s15, [pc, #108]	@ 8001e54 <_ZN6Analog21get_steering_positionEv+0x70>
 8001de8:	b510      	push	{r4, lr}
 8001dea:	f100 031e 	add.w	r3, r0, #30
 8001dee:	4604      	mov	r4, r0
 8001df0:	f100 0282 	add.w	r2, r0, #130	@ 0x82
 8001df4:	eeb0 7a67 	vmov.f32	s14, s15
 8001df8:	eeb6 6a00 	vmov.f32	s12, #96	@ 0x3f000000  0.5
 8001dfc:	f833 1f02 	ldrh.w	r1, [r3, #2]!
 8001e00:	ee06 1a90 	vmov	s13, r1
 8001e04:	ee67 7a86 	vmul.f32	s15, s15, s12
 8001e08:	eef8 6ae6 	vcvt.f32.s32	s13, s13
 8001e0c:	429a      	cmp	r2, r3
 8001e0e:	eee6 7a86 	vfma.f32	s15, s13, s12
 8001e12:	ee37 7a27 	vadd.f32	s14, s14, s15
 8001e16:	d1f1      	bne.n	8001dfc <_ZN6Analog21get_steering_positionEv+0x18>
 8001e18:	eddf 6a0f 	vldr	s13, [pc, #60]	@ 8001e58 <_ZN6Analog21get_steering_positionEv+0x74>
 8001e1c:	eec7 7a26 	vdiv.f32	s15, s14, s13
 8001e20:	eefd 7ae7 	vcvt.s32.f32	s15, s15
 8001e24:	ee17 0a90 	vmov	r0, s15
 8001e28:	17c1      	asrs	r1, r0, #31
 8001e2a:	f7fe fdcf 	bl	80009cc <__aeabi_ul2f>
 8001e2e:	edd4 7a06 	vldr	s15, [r4, #24]
 8001e32:	ee07 0a10 	vmov	s14, r0
 8001e36:	ee87 0a27 	vdiv.f32	s0, s14, s15
 8001e3a:	eddf 7a08 	vldr	s15, [pc, #32]	@ 8001e5c <_ZN6Analog21get_steering_positionEv+0x78>
 8001e3e:	ee30 0a67 	vsub.f32	s0, s0, s15
 8001e42:	f004 fd21 	bl	8006888 <roundf>
 8001e46:	eebd 0ac0 	vcvt.s32.f32	s0, s0
 8001e4a:	ee10 3a10 	vmov	r3, s0
 8001e4e:	b218      	sxth	r0, r3
 8001e50:	bd10      	pop	{r4, pc}
 8001e52:	bf00      	nop
 8001e54:	00000000 	.word	0x00000000
 8001e58:	42480000 	.word	0x42480000
 8001e5c:	43070000 	.word	0x43070000

08001e60 <_ZN6Analog22get_steering_position2Ev>:
 8001e60:	eddf 7a23 	vldr	s15, [pc, #140]	@ 8001ef0 <_ZN6Analog22get_steering_position2Ev+0x90>
 8001e64:	b510      	push	{r4, lr}
 8001e66:	f100 0382 	add.w	r3, r0, #130	@ 0x82
 8001e6a:	4604      	mov	r4, r0
 8001e6c:	f100 02e6 	add.w	r2, r0, #230	@ 0xe6
 8001e70:	eeb0 7a67 	vmov.f32	s14, s15
 8001e74:	eeb6 6a00 	vmov.f32	s12, #96	@ 0x3f000000  0.5
 8001e78:	f833 1f02 	ldrh.w	r1, [r3, #2]!
 8001e7c:	ee06 1a90 	vmov	s13, r1
 8001e80:	ee67 7a86 	vmul.f32	s15, s15, s12
 8001e84:	eef8 6ae6 	vcvt.f32.s32	s13, s13
 8001e88:	429a      	cmp	r2, r3
 8001e8a:	eee6 7a86 	vfma.f32	s15, s13, s12
 8001e8e:	ee37 7a27 	vadd.f32	s14, s14, s15
 8001e92:	d1f1      	bne.n	8001e78 <_ZN6Analog22get_steering_position2Ev+0x18>
 8001e94:	eddf 6a17 	vldr	s13, [pc, #92]	@ 8001ef4 <_ZN6Analog22get_steering_position2Ev+0x94>
 8001e98:	eec7 7a26 	vdiv.f32	s15, s14, s13
 8001e9c:	eefd 7ae7 	vcvt.s32.f32	s15, s15
 8001ea0:	ee17 0a90 	vmov	r0, s15
 8001ea4:	17c1      	asrs	r1, r0, #31
 8001ea6:	f7fe fd91 	bl	80009cc <__aeabi_ul2f>
 8001eaa:	edd4 7a07 	vldr	s15, [r4, #28]
 8001eae:	ee06 0a90 	vmov	s13, r0
 8001eb2:	ee86 7aa7 	vdiv.f32	s14, s13, s15
 8001eb6:	eddf 7a10 	vldr	s15, [pc, #64]	@ 8001ef8 <_ZN6Analog22get_steering_position2Ev+0x98>
 8001eba:	ee77 7a27 	vadd.f32	s15, s14, s15
 8001ebe:	ee17 0a90 	vmov	r0, s15
 8001ec2:	f7fe fc3b 	bl	800073c <__aeabi_f2d>
 8001ec6:	a308      	add	r3, pc, #32	@ (adr r3, 8001ee8 <_ZN6Analog22get_steering_position2Ev+0x88>)
 8001ec8:	e9d3 2300 	ldrd	r2, r3, [r3]
 8001ecc:	f7fe f9a8 	bl	8000220 <__aeabi_dmul>
 8001ed0:	ec41 0b10 	vmov	d0, r0, r1
 8001ed4:	f004 fc92 	bl	80067fc <round>
 8001ed8:	ec51 0b10 	vmov	r0, r1, d0
 8001edc:	f7fe fc86 	bl	80007ec <__aeabi_d2iz>
 8001ee0:	b200      	sxth	r0, r0
 8001ee2:	bd10      	pop	{r4, pc}
 8001ee4:	f3af 8000 	nop.w
 8001ee8:	b851eb85 	.word	0xb851eb85
 8001eec:	3fef851e 	.word	0x3fef851e
 8001ef0:	00000000 	.word	0x00000000
 8001ef4:	42480000 	.word	0x42480000
 8001ef8:	42240000 	.word	0x42240000

08001efc <_ZN4Apps22get_raw_avg_apps_valueEv>:
 8001efc:	eddf 7a13 	vldr	s15, [pc, #76]	@ 8001f4c <_ZN4Apps22get_raw_avg_apps_valueEv+0x50>
 8001f00:	f101 0364 	add.w	r3, r1, #100	@ 0x64
 8001f04:	eef0 6a67 	vmov.f32	s13, s15
 8001f08:	8e0a      	ldrh	r2, [r1, #48]	@ 0x30
 8001f0a:	ee07 2a10 	vmov	s14, r2
 8001f0e:	f8b1 2096 	ldrh.w	r2, [r1, #150]	@ 0x96
 8001f12:	eeb8 7ac7 	vcvt.f32.s32	s14, s14
 8001f16:	3104      	adds	r1, #4
 8001f18:	ee76 6a87 	vadd.f32	s13, s13, s14
 8001f1c:	ee07 2a10 	vmov	s14, r2
 8001f20:	eeb8 7ac7 	vcvt.f32.s32	s14, s14
 8001f24:	428b      	cmp	r3, r1
 8001f26:	ee77 7a87 	vadd.f32	s15, s15, s14
 8001f2a:	d1ed      	bne.n	8001f08 <_ZN4Apps22get_raw_avg_apps_valueEv+0xc>
 8001f2c:	eeb3 6a09 	vmov.f32	s12, #57	@ 0x41c80000  25.0
 8001f30:	ee86 7a86 	vdiv.f32	s14, s13, s12
 8001f34:	eebd 7ac7 	vcvt.s32.f32	s14, s14
 8001f38:	ed80 7a00 	vstr	s14, [r0]
 8001f3c:	ee87 7a86 	vdiv.f32	s14, s15, s12
 8001f40:	eebd 7ac7 	vcvt.s32.f32	s14, s14
 8001f44:	ed80 7a01 	vstr	s14, [r0, #4]
 8001f48:	4770      	bx	lr
 8001f4a:	bf00      	nop
 8001f4c:	00000000 	.word	0x00000000

08001f50 <_ZN4Apps24get_sensors_plausibilityEii>:
 8001f50:	edd0 7a03 	vldr	s15, [r0, #12]
 8001f54:	ee06 1a90 	vmov	s13, r1
 8001f58:	eef8 7ae7 	vcvt.f32.s32	s15, s15
 8001f5c:	eef8 6ae6 	vcvt.f32.s32	s13, s13
 8001f60:	ee07 2a10 	vmov	s14, r2
 8001f64:	ee76 6ae7 	vsub.f32	s13, s13, s15
 8001f68:	edd0 7a02 	vldr	s15, [r0, #8]
 8001f6c:	eeb8 6ae7 	vcvt.f32.s32	s12, s15
 8001f70:	eeb8 7ac7 	vcvt.f32.s32	s14, s14
 8001f74:	eec6 7a86 	vdiv.f32	s15, s13, s12
 8001f78:	edd0 6a05 	vldr	s13, [r0, #20]
 8001f7c:	eef8 6ae6 	vcvt.f32.s32	s13, s13
 8001f80:	ee37 7a66 	vsub.f32	s14, s14, s13
 8001f84:	edd0 6a04 	vldr	s13, [r0, #16]
 8001f88:	eef8 6ae6 	vcvt.f32.s32	s13, s13
 8001f8c:	ee87 6a26 	vdiv.f32	s12, s14, s13
 8001f90:	ed90 7a0b 	vldr	s14, [r0, #44]	@ 0x2c
 8001f94:	ee77 7ac6 	vsub.f32	s15, s15, s12
 8001f98:	eef0 7ae7 	vabs.f32	s15, s15
 8001f9c:	eeb4 7ae7 	vcmpe.f32	s14, s15
 8001fa0:	eef1 fa10 	vmrs	APSR_nzcv, fpscr
 8001fa4:	bf54      	ite	pl
 8001fa6:	2001      	movpl	r0, #1
 8001fa8:	2000      	movmi	r0, #0
 8001faa:	4770      	bx	lr

08001fac <_ZN4Apps6hornerEPKfjf>:
 8001fac:	eef0 7a40 	vmov.f32	s15, s0
 8001fb0:	ed9f 0a06 	vldr	s0, [pc, #24]	@ 8001fcc <_ZN4Apps6hornerEPKfjf+0x20>
 8001fb4:	eb01 0282 	add.w	r2, r1, r2, lsl #2
 8001fb8:	4291      	cmp	r1, r2
 8001fba:	d100      	bne.n	8001fbe <_ZN4Apps6hornerEPKfjf+0x12>
 8001fbc:	4770      	bx	lr
 8001fbe:	ecb1 7a01 	vldmia	r1!, {s14}
 8001fc2:	eea0 7a27 	vfma.f32	s14, s0, s15
 8001fc6:	eeb0 0a47 	vmov.f32	s0, s14
 8001fca:	e7f5      	b.n	8001fb8 <_ZN4Apps6hornerEPKfjf+0xc>
 8001fcc:	00000000 	.word	0x00000000

08001fd0 <_ZN4Apps20apps_nonlinear_curveEiNS_16APPS_map_profileE>:
 8001fd0:	b530      	push	{r4, r5, lr}
 8001fd2:	ed2d 8b02 	vpush	{d8}
 8001fd6:	b095      	sub	sp, #84	@ 0x54
 8001fd8:	4604      	mov	r4, r0
 8001fda:	ee08 1a10 	vmov	s16, r1
 8001fde:	4615      	mov	r5, r2
 8001fe0:	4912      	ldr	r1, [pc, #72]	@ (800202c <_ZN4Apps20apps_nonlinear_curveEiNS_16APPS_map_profileE+0x5c>)
 8001fe2:	2250      	movs	r2, #80	@ 0x50
 8001fe4:	4668      	mov	r0, sp
 8001fe6:	f004 fcff 	bl	80069e8 <memcpy>
 8001fea:	466b      	mov	r3, sp
 8001fec:	2114      	movs	r1, #20
 8001fee:	fb01 3105 	mla	r1, r1, r5, r3
 8001ff2:	2205      	movs	r2, #5
 8001ff4:	4620      	mov	r0, r4
 8001ff6:	eeb8 0ac8 	vcvt.f32.s32	s0, s16
 8001ffa:	f7ff ffd7 	bl	8001fac <_ZN4Apps6hornerEPKfjf>
 8001ffe:	ee10 0a10 	vmov	r0, s0
 8002002:	f7fe fb9b 	bl	800073c <__aeabi_f2d>
 8002006:	4b0a      	ldr	r3, [pc, #40]	@ (8002030 <_ZN4Apps20apps_nonlinear_curveEiNS_16APPS_map_profileE+0x60>)
 8002008:	2200      	movs	r2, #0
 800200a:	f7fe fa39 	bl	8000480 <__adddf3>
 800200e:	f7fe fbed 	bl	80007ec <__aeabi_d2iz>
 8002012:	69a3      	ldr	r3, [r4, #24]
 8002014:	4298      	cmp	r0, r3
 8002016:	bfb8      	it	lt
 8002018:	4618      	movlt	r0, r3
 800201a:	69e3      	ldr	r3, [r4, #28]
 800201c:	4298      	cmp	r0, r3
 800201e:	bfa8      	it	ge
 8002020:	4618      	movge	r0, r3
 8002022:	b015      	add	sp, #84	@ 0x54
 8002024:	ecbd 8b02 	vpop	{d8}
 8002028:	bd30      	pop	{r4, r5, pc}
 800202a:	bf00      	nop
 800202c:	08006ac8 	.word	0x08006ac8
 8002030:	3fe00000 	.word	0x3fe00000

08002034 <_ZN4Apps17get_value_to_sendEv>:
 8002034:	b5f0      	push	{r4, r5, r6, r7, lr}
 8002036:	b085      	sub	sp, #20
 8002038:	4601      	mov	r1, r0
 800203a:	4604      	mov	r4, r0
 800203c:	a802      	add	r0, sp, #8
 800203e:	f7ff ff5d 	bl	8001efc <_ZN4Apps22get_raw_avg_apps_valueEv>
 8002042:	e9dd 1602 	ldrd	r1, r6, [sp, #8]
 8002046:	4620      	mov	r0, r4
 8002048:	4632      	mov	r2, r6
 800204a:	f7ff ff81 	bl	8001f50 <_ZN4Apps24get_sensors_plausibilityEii>
 800204e:	b930      	cbnz	r0, 800205e <_ZN4Apps17get_value_to_sendEv+0x2a>
 8002050:	7920      	ldrb	r0, [r4, #4]
 8002052:	b920      	cbnz	r0, 800205e <_ZN4Apps17get_value_to_sendEv+0x2a>
 8002054:	2301      	movs	r3, #1
 8002056:	f884 30f8 	strb.w	r3, [r4, #248]	@ 0xf8
 800205a:	b005      	add	sp, #20
 800205c:	bdf0      	pop	{r4, r5, r6, r7, pc}
 800205e:	ee07 1a90 	vmov	s15, r1
 8002062:	eeb8 0ae7 	vcvt.f32.s32	s0, s15
 8002066:	edd4 7a03 	vldr	s15, [r4, #12]
 800206a:	eef8 7ae7 	vcvt.f32.s32	s15, s15
 800206e:	2300      	movs	r3, #0
 8002070:	ee30 0a67 	vsub.f32	s0, s0, s15
 8002074:	edd4 7a09 	vldr	s15, [r4, #36]	@ 0x24
 8002078:	f884 30f8 	strb.w	r3, [r4, #248]	@ 0xf8
 800207c:	ee80 0a27 	vdiv.f32	s0, s0, s15
 8002080:	f004 fc02 	bl	8006888 <roundf>
 8002084:	eefd 7ac0 	vcvt.s32.f32	s15, s0
 8002088:	ee17 5a90 	vmov	r5, s15
 800208c:	edcd 7a00 	vstr	s15, [sp]
 8002090:	ee07 6a90 	vmov	s15, r6
 8002094:	eeb8 0ae7 	vcvt.f32.s32	s0, s15
 8002098:	edd4 7a05 	vldr	s15, [r4, #20]
 800209c:	eef8 7ae7 	vcvt.f32.s32	s15, s15
 80020a0:	f104 0618 	add.w	r6, r4, #24
 80020a4:	ee30 0a67 	vsub.f32	s0, s0, s15
 80020a8:	edd4 7a0a 	vldr	s15, [r4, #40]	@ 0x28
 80020ac:	ee80 0a27 	vdiv.f32	s0, s0, s15
 80020b0:	f004 fbea 	bl	8006888 <roundf>
 80020b4:	69a0      	ldr	r0, [r4, #24]
 80020b6:	69e7      	ldr	r7, [r4, #28]
 80020b8:	4285      	cmp	r5, r0
 80020ba:	bfb8      	it	lt
 80020bc:	4605      	movlt	r5, r0
 80020be:	f104 021c 	add.w	r2, r4, #28
 80020c2:	bfb4      	ite	lt
 80020c4:	4631      	movlt	r1, r6
 80020c6:	4669      	movge	r1, sp
 80020c8:	42af      	cmp	r7, r5
 80020ca:	bfb8      	it	lt
 80020cc:	4611      	movlt	r1, r2
 80020ce:	eefd 7ac0 	vcvt.s32.f32	s15, s0
 80020d2:	6809      	ldr	r1, [r1, #0]
 80020d4:	edcd 7a01 	vstr	s15, [sp, #4]
 80020d8:	ee17 3a90 	vmov	r3, s15
 80020dc:	4283      	cmp	r3, r0
 80020de:	bfb4      	ite	lt
 80020e0:	4603      	movlt	r3, r0
 80020e2:	ae01      	addge	r6, sp, #4
 80020e4:	42bb      	cmp	r3, r7
 80020e6:	bfd8      	it	le
 80020e8:	4632      	movle	r2, r6
 80020ea:	4620      	mov	r0, r4
 80020ec:	6813      	ldr	r3, [r2, #0]
 80020ee:	4419      	add	r1, r3
 80020f0:	eb01 71d1 	add.w	r1, r1, r1, lsr #31
 80020f4:	2200      	movs	r2, #0
 80020f6:	1049      	asrs	r1, r1, #1
 80020f8:	f7ff ff6a 	bl	8001fd0 <_ZN4Apps20apps_nonlinear_curveEiNS_16APPS_map_profileE>
 80020fc:	b280      	uxth	r0, r0
 80020fe:	e7ac      	b.n	800205a <_ZN4Apps17get_value_to_sendEv+0x26>

08002100 <_ZN6Brakes23get_raw_avg_press_valueEv>:
 8002100:	eddf 7a13 	vldr	s15, [pc, #76]	@ 8002150 <_ZN6Brakes23get_raw_avg_press_valueEv+0x50>
 8002104:	f101 0364 	add.w	r3, r1, #100	@ 0x64
 8002108:	eef0 6a67 	vmov.f32	s13, s15
 800210c:	884a      	ldrh	r2, [r1, #2]
 800210e:	ee07 2a10 	vmov	s14, r2
 8002112:	f8b1 2068 	ldrh.w	r2, [r1, #104]	@ 0x68
 8002116:	eeb8 7ac7 	vcvt.f32.s32	s14, s14
 800211a:	3104      	adds	r1, #4
 800211c:	ee76 6a87 	vadd.f32	s13, s13, s14
 8002120:	ee07 2a10 	vmov	s14, r2
 8002124:	eeb8 7ac7 	vcvt.f32.s32	s14, s14
 8002128:	428b      	cmp	r3, r1
 800212a:	ee77 7a87 	vadd.f32	s15, s15, s14
 800212e:	d1ed      	bne.n	800210c <_ZN6Brakes23get_raw_avg_press_valueEv+0xc>
 8002130:	eeb3 6a09 	vmov.f32	s12, #57	@ 0x41c80000  25.0
 8002134:	ee86 7a86 	vdiv.f32	s14, s13, s12
 8002138:	eebd 7ac7 	vcvt.s32.f32	s14, s14
 800213c:	ed80 7a00 	vstr	s14, [r0]
 8002140:	ee87 7a86 	vdiv.f32	s14, s15, s12
 8002144:	eebd 7ac7 	vcvt.s32.f32	s14, s14
 8002148:	ed80 7a01 	vstr	s14, [r0, #4]
 800214c:	4770      	bx	lr
 800214e:	bf00      	nop
 8002150:	00000000 	.word	0x00000000

08002154 <Reset_Handler>:
 8002154:	480d      	ldr	r0, [pc, #52]	@ (800218c <LoopForever+0x2>)
 8002156:	4685      	mov	sp, r0
 8002158:	f7ff fd3e 	bl	8001bd8 <SystemInit>
 800215c:	480c      	ldr	r0, [pc, #48]	@ (8002190 <LoopForever+0x6>)
 800215e:	490d      	ldr	r1, [pc, #52]	@ (8002194 <LoopForever+0xa>)
 8002160:	4a0d      	ldr	r2, [pc, #52]	@ (8002198 <LoopForever+0xe>)
 8002162:	2300      	movs	r3, #0
 8002164:	e002      	b.n	800216c <LoopCopyDataInit>

08002166 <CopyDataInit>:
 8002166:	58d4      	ldr	r4, [r2, r3]
 8002168:	50c4      	str	r4, [r0, r3]
 800216a:	3304      	adds	r3, #4

0800216c <LoopCopyDataInit>:
 800216c:	18c4      	adds	r4, r0, r3
 800216e:	428c      	cmp	r4, r1
 8002170:	d3f9      	bcc.n	8002166 <CopyDataInit>
 8002172:	4a0a      	ldr	r2, [pc, #40]	@ (800219c <LoopForever+0x12>)
 8002174:	4c0a      	ldr	r4, [pc, #40]	@ (80021a0 <LoopForever+0x16>)
 8002176:	2300      	movs	r3, #0
 8002178:	e001      	b.n	800217e <LoopFillZerobss>

0800217a <FillZerobss>:
 800217a:	6013      	str	r3, [r2, #0]
 800217c:	3204      	adds	r2, #4

0800217e <LoopFillZerobss>:
 800217e:	42a2      	cmp	r2, r4
 8002180:	d3fb      	bcc.n	800217a <FillZerobss>
 8002182:	f004 fc0b 	bl	800699c <__libc_init_array>
 8002186:	f7fe ff9d 	bl	80010c4 <main>

0800218a <LoopForever>:
 800218a:	e7fe      	b.n	800218a <LoopForever>
 800218c:	20020000 	.word	0x20020000
 8002190:	20000000 	.word	0x20000000
 8002194:	20000244 	.word	0x20000244
 8002198:	08006d48 	.word	0x08006d48
 800219c:	20000244 	.word	0x20000244
 80021a0:	200029f4 	.word	0x200029f4

080021a4 <ADC3_IRQHandler>:
 80021a4:	e7fe      	b.n	80021a4 <ADC3_IRQHandler>

080021a6 <HAL_Init>:
 80021a6:	b510      	push	{r4, lr}
 80021a8:	2003      	movs	r0, #3
 80021aa:	f000 fee5 	bl	8002f78 <HAL_NVIC_SetPriorityGrouping>
 80021ae:	200f      	movs	r0, #15
 80021b0:	f7ff fc90 	bl	8001ad4 <HAL_InitTick>
 80021b4:	4604      	mov	r4, r0
 80021b6:	b918      	cbnz	r0, 80021c0 <HAL_Init+0x1a>
 80021b8:	f7ff fa68 	bl	800168c <HAL_MspInit>
 80021bc:	4620      	mov	r0, r4
 80021be:	bd10      	pop	{r4, pc}
 80021c0:	2401      	movs	r4, #1
 80021c2:	e7fb      	b.n	80021bc <HAL_Init+0x16>

080021c4 <HAL_IncTick>:
 80021c4:	4a03      	ldr	r2, [pc, #12]	@ (80021d4 <HAL_IncTick+0x10>)
 80021c6:	4904      	ldr	r1, [pc, #16]	@ (80021d8 <HAL_IncTick+0x14>)
 80021c8:	6813      	ldr	r3, [r2, #0]
 80021ca:	6809      	ldr	r1, [r1, #0]
 80021cc:	440b      	add	r3, r1
 80021ce:	6013      	str	r3, [r2, #0]
 80021d0:	4770      	bx	lr
 80021d2:	bf00      	nop
 80021d4:	20000ecc 	.word	0x20000ecc
 80021d8:	200001e8 	.word	0x200001e8

080021dc <HAL_GetTick>:
 80021dc:	4b01      	ldr	r3, [pc, #4]	@ (80021e4 <HAL_GetTick+0x8>)
 80021de:	6818      	ldr	r0, [r3, #0]
 80021e0:	4770      	bx	lr
 80021e2:	bf00      	nop
 80021e4:	20000ecc 	.word	0x20000ecc

080021e8 <LL_ADC_SetChannelSamplingTime>:
 80021e8:	b530      	push	{r4, r5, lr}
 80021ea:	0dcc      	lsrs	r4, r1, #23
 80021ec:	f004 0404 	and.w	r4, r4, #4
 80021f0:	3014      	adds	r0, #20
 80021f2:	f3c1 5104 	ubfx	r1, r1, #20, #5
 80021f6:	5903      	ldr	r3, [r0, r4]
 80021f8:	2507      	movs	r5, #7
 80021fa:	408d      	lsls	r5, r1
 80021fc:	ea23 0305 	bic.w	r3, r3, r5
 8002200:	408a      	lsls	r2, r1
 8002202:	4313      	orrs	r3, r2
 8002204:	5103      	str	r3, [r0, r4]
 8002206:	bd30      	pop	{r4, r5, pc}

08002208 <LL_ADC_IsEnabled>:
 8002208:	6880      	ldr	r0, [r0, #8]
 800220a:	f000 0001 	and.w	r0, r0, #1
 800220e:	4770      	bx	lr

08002210 <LL_ADC_REG_IsConversionOngoing>:
 8002210:	6880      	ldr	r0, [r0, #8]
 8002212:	f3c0 0080 	ubfx	r0, r0, #2, #1
 8002216:	4770      	bx	lr

08002218 <HAL_ADC_Init>:
 8002218:	b537      	push	{r0, r1, r2, r4, r5, lr}
 800221a:	2300      	movs	r3, #0
 800221c:	9301      	str	r3, [sp, #4]
 800221e:	4604      	mov	r4, r0
 8002220:	2800      	cmp	r0, #0
 8002222:	f000 80f4 	beq.w	800240e <HAL_ADC_Init+0x1f6>
 8002226:	6dc5      	ldr	r5, [r0, #92]	@ 0x5c
 8002228:	b925      	cbnz	r5, 8002234 <HAL_ADC_Init+0x1c>
 800222a:	f7ff fa51 	bl	80016d0 <HAL_ADC_MspInit>
 800222e:	6625      	str	r5, [r4, #96]	@ 0x60
 8002230:	f884 5058 	strb.w	r5, [r4, #88]	@ 0x58
 8002234:	6823      	ldr	r3, [r4, #0]
 8002236:	689a      	ldr	r2, [r3, #8]
 8002238:	0095      	lsls	r5, r2, #2
 800223a:	bf41      	itttt	mi
 800223c:	689a      	ldrmi	r2, [r3, #8]
 800223e:	f022 4220 	bicmi.w	r2, r2, #2684354560	@ 0xa0000000
 8002242:	f022 023f 	bicmi.w	r2, r2, #63	@ 0x3f
 8002246:	609a      	strmi	r2, [r3, #8]
 8002248:	689a      	ldr	r2, [r3, #8]
 800224a:	00d0      	lsls	r0, r2, #3
 800224c:	f140 809f 	bpl.w	800238e <HAL_ADC_Init+0x176>
 8002250:	689a      	ldr	r2, [r3, #8]
 8002252:	00d1      	lsls	r1, r2, #3
 8002254:	f100 80b2 	bmi.w	80023bc <HAL_ADC_Init+0x1a4>
 8002258:	6de2      	ldr	r2, [r4, #92]	@ 0x5c
 800225a:	f042 0210 	orr.w	r2, r2, #16
 800225e:	65e2      	str	r2, [r4, #92]	@ 0x5c
 8002260:	6e22      	ldr	r2, [r4, #96]	@ 0x60
 8002262:	f042 0201 	orr.w	r2, r2, #1
 8002266:	6622      	str	r2, [r4, #96]	@ 0x60
 8002268:	2101      	movs	r1, #1
 800226a:	4618      	mov	r0, r3
 800226c:	f7ff ffd0 	bl	8002210 <LL_ADC_REG_IsConversionOngoing>
 8002270:	6de2      	ldr	r2, [r4, #92]	@ 0x5c
 8002272:	f002 0210 	and.w	r2, r2, #16
 8002276:	4302      	orrs	r2, r0
 8002278:	f040 80c5 	bne.w	8002406 <HAL_ADC_Init+0x1ee>
 800227c:	6de2      	ldr	r2, [r4, #92]	@ 0x5c
 800227e:	f422 7281 	bic.w	r2, r2, #258	@ 0x102
 8002282:	f042 0202 	orr.w	r2, r2, #2
 8002286:	65e2      	str	r2, [r4, #92]	@ 0x5c
 8002288:	4618      	mov	r0, r3
 800228a:	f7ff ffbd 	bl	8002208 <LL_ADC_IsEnabled>
 800228e:	b988      	cbnz	r0, 80022b4 <HAL_ADC_Init+0x9c>
 8002290:	f1b3 4fa0 	cmp.w	r3, #1342177280	@ 0x50000000
 8002294:	d003      	beq.n	800229e <HAL_ADC_Init+0x86>
 8002296:	4a5f      	ldr	r2, [pc, #380]	@ (8002414 <HAL_ADC_Init+0x1fc>)
 8002298:	4293      	cmp	r3, r2
 800229a:	f040 8091 	bne.w	80023c0 <HAL_ADC_Init+0x1a8>
 800229e:	f04f 40a0 	mov.w	r0, #1342177280	@ 0x50000000
 80022a2:	f7ff ffb1 	bl	8002208 <LL_ADC_IsEnabled>
 80022a6:	4602      	mov	r2, r0
 80022a8:	485a      	ldr	r0, [pc, #360]	@ (8002414 <HAL_ADC_Init+0x1fc>)
 80022aa:	f7ff ffad 	bl	8002208 <LL_ADC_IsEnabled>
 80022ae:	4302      	orrs	r2, r0
 80022b0:	f000 809c 	beq.w	80023ec <HAL_ADC_Init+0x1d4>
 80022b4:	68e5      	ldr	r5, [r4, #12]
 80022b6:	6be2      	ldr	r2, [r4, #60]	@ 0x3c
 80022b8:	f894 0024 	ldrb.w	r0, [r4, #36]	@ 0x24
 80022bc:	432a      	orrs	r2, r5
 80022be:	68a5      	ldr	r5, [r4, #8]
 80022c0:	432a      	orrs	r2, r5
 80022c2:	7f65      	ldrb	r5, [r4, #29]
 80022c4:	2801      	cmp	r0, #1
 80022c6:	ea42 3245 	orr.w	r2, r2, r5, lsl #13
 80022ca:	ea42 4200 	orr.w	r2, r2, r0, lsl #16
 80022ce:	bf02      	ittt	eq
 80022d0:	6aa0      	ldreq	r0, [r4, #40]	@ 0x28
 80022d2:	f100 30ff 	addeq.w	r0, r0, #4294967295
 80022d6:	ea42 4240 	orreq.w	r2, r2, r0, lsl #17
 80022da:	6ae0      	ldr	r0, [r4, #44]	@ 0x2c
 80022dc:	b120      	cbz	r0, 80022e8 <HAL_ADC_Init+0xd0>
 80022de:	6b25      	ldr	r5, [r4, #48]	@ 0x30
 80022e0:	f400 7078 	and.w	r0, r0, #992	@ 0x3e0
 80022e4:	4328      	orrs	r0, r5
 80022e6:	4302      	orrs	r2, r0
 80022e8:	68dd      	ldr	r5, [r3, #12]
 80022ea:	484b      	ldr	r0, [pc, #300]	@ (8002418 <HAL_ADC_Init+0x200>)
 80022ec:	4028      	ands	r0, r5
 80022ee:	4310      	orrs	r0, r2
 80022f0:	60d8      	str	r0, [r3, #12]
 80022f2:	691a      	ldr	r2, [r3, #16]
 80022f4:	6b60      	ldr	r0, [r4, #52]	@ 0x34
 80022f6:	f022 6240 	bic.w	r2, r2, #201326592	@ 0xc000000
 80022fa:	4302      	orrs	r2, r0
 80022fc:	611a      	str	r2, [r3, #16]
 80022fe:	689a      	ldr	r2, [r3, #8]
 8002300:	0712      	lsls	r2, r2, #28
 8002302:	d42c      	bmi.n	800235e <HAL_ADC_Init+0x146>
 8002304:	68d8      	ldr	r0, [r3, #12]
 8002306:	f894 2038 	ldrb.w	r2, [r4, #56]	@ 0x38
 800230a:	7f25      	ldrb	r5, [r4, #28]
 800230c:	0052      	lsls	r2, r2, #1
 800230e:	f420 4080 	bic.w	r0, r0, #16384	@ 0x4000
 8002312:	ea42 3285 	orr.w	r2, r2, r5, lsl #14
 8002316:	f020 0002 	bic.w	r0, r0, #2
 800231a:	4302      	orrs	r2, r0
 800231c:	6925      	ldr	r5, [r4, #16]
 800231e:	60da      	str	r2, [r3, #12]
 8002320:	483e      	ldr	r0, [pc, #248]	@ (800241c <HAL_ADC_Init+0x204>)
 8002322:	691a      	ldr	r2, [r3, #16]
 8002324:	2d00      	cmp	r5, #0
 8002326:	d063      	beq.n	80023f0 <HAL_ADC_Init+0x1d8>
 8002328:	f442 3280 	orr.w	r2, r2, #65536	@ 0x10000
 800232c:	611a      	str	r2, [r3, #16]
 800232e:	f8d3 20c0 	ldr.w	r2, [r3, #192]	@ 0xc0
 8002332:	4002      	ands	r2, r0
 8002334:	432a      	orrs	r2, r5
 8002336:	f8c3 20c0 	str.w	r2, [r3, #192]	@ 0xc0
 800233a:	f894 2040 	ldrb.w	r2, [r4, #64]	@ 0x40
 800233e:	2a01      	cmp	r2, #1
 8002340:	d15d      	bne.n	80023fe <HAL_ADC_Init+0x1e6>
 8002342:	e9d4 2511 	ldrd	r2, r5, [r4, #68]	@ 0x44
 8002346:	6918      	ldr	r0, [r3, #16]
 8002348:	432a      	orrs	r2, r5
 800234a:	f36f 008a 	bfc	r0, #2, #9
 800234e:	4302      	orrs	r2, r0
 8002350:	6ce0      	ldr	r0, [r4, #76]	@ 0x4c
 8002352:	4302      	orrs	r2, r0
 8002354:	6d20      	ldr	r0, [r4, #80]	@ 0x50
 8002356:	4302      	orrs	r2, r0
 8002358:	f042 0201 	orr.w	r2, r2, #1
 800235c:	611a      	str	r2, [r3, #16]
 800235e:	6962      	ldr	r2, [r4, #20]
 8002360:	2a01      	cmp	r2, #1
 8002362:	bf05      	ittet	eq
 8002364:	6b18      	ldreq	r0, [r3, #48]	@ 0x30
 8002366:	6a22      	ldreq	r2, [r4, #32]
 8002368:	6b1a      	ldrne	r2, [r3, #48]	@ 0x30
 800236a:	f102 32ff 	addeq.w	r2, r2, #4294967295
 800236e:	bf06      	itte	eq
 8002370:	f020 000f 	biceq.w	r0, r0, #15
 8002374:	4302      	orreq	r2, r0
 8002376:	f022 020f 	bicne.w	r2, r2, #15
 800237a:	631a      	str	r2, [r3, #48]	@ 0x30
 800237c:	6de3      	ldr	r3, [r4, #92]	@ 0x5c
 800237e:	f023 0303 	bic.w	r3, r3, #3
 8002382:	f043 0301 	orr.w	r3, r3, #1
 8002386:	65e3      	str	r3, [r4, #92]	@ 0x5c
 8002388:	4608      	mov	r0, r1
 800238a:	b003      	add	sp, #12
 800238c:	bd30      	pop	{r4, r5, pc}
 800238e:	689a      	ldr	r2, [r3, #8]
 8002390:	4923      	ldr	r1, [pc, #140]	@ (8002420 <HAL_ADC_Init+0x208>)
 8002392:	f022 4210 	bic.w	r2, r2, #2415919104	@ 0x90000000
 8002396:	f022 023f 	bic.w	r2, r2, #63	@ 0x3f
 800239a:	f042 5280 	orr.w	r2, r2, #268435456	@ 0x10000000
 800239e:	609a      	str	r2, [r3, #8]
 80023a0:	4a20      	ldr	r2, [pc, #128]	@ (8002424 <HAL_ADC_Init+0x20c>)
 80023a2:	6812      	ldr	r2, [r2, #0]
 80023a4:	fbb2 f2f1 	udiv	r2, r2, r1
 80023a8:	3201      	adds	r2, #1
 80023aa:	0052      	lsls	r2, r2, #1
 80023ac:	9201      	str	r2, [sp, #4]
 80023ae:	9a01      	ldr	r2, [sp, #4]
 80023b0:	2a00      	cmp	r2, #0
 80023b2:	f43f af4d 	beq.w	8002250 <HAL_ADC_Init+0x38>
 80023b6:	9a01      	ldr	r2, [sp, #4]
 80023b8:	3a01      	subs	r2, #1
 80023ba:	e7f7      	b.n	80023ac <HAL_ADC_Init+0x194>
 80023bc:	2100      	movs	r1, #0
 80023be:	e754      	b.n	800226a <HAL_ADC_Init+0x52>
 80023c0:	4819      	ldr	r0, [pc, #100]	@ (8002428 <HAL_ADC_Init+0x210>)
 80023c2:	f7ff ff21 	bl	8002208 <LL_ADC_IsEnabled>
 80023c6:	4602      	mov	r2, r0
 80023c8:	4818      	ldr	r0, [pc, #96]	@ (800242c <HAL_ADC_Init+0x214>)
 80023ca:	f7ff ff1d 	bl	8002208 <LL_ADC_IsEnabled>
 80023ce:	4302      	orrs	r2, r0
 80023d0:	4817      	ldr	r0, [pc, #92]	@ (8002430 <HAL_ADC_Init+0x218>)
 80023d2:	f7ff ff19 	bl	8002208 <LL_ADC_IsEnabled>
 80023d6:	4302      	orrs	r2, r0
 80023d8:	f47f af6c 	bne.w	80022b4 <HAL_ADC_Init+0x9c>
 80023dc:	4815      	ldr	r0, [pc, #84]	@ (8002434 <HAL_ADC_Init+0x21c>)
 80023de:	6882      	ldr	r2, [r0, #8]
 80023e0:	6865      	ldr	r5, [r4, #4]
 80023e2:	f422 127c 	bic.w	r2, r2, #4128768	@ 0x3f0000
 80023e6:	432a      	orrs	r2, r5
 80023e8:	6082      	str	r2, [r0, #8]
 80023ea:	e763      	b.n	80022b4 <HAL_ADC_Init+0x9c>
 80023ec:	4812      	ldr	r0, [pc, #72]	@ (8002438 <HAL_ADC_Init+0x220>)
 80023ee:	e7f6      	b.n	80023de <HAL_ADC_Init+0x1c6>
 80023f0:	f422 3280 	bic.w	r2, r2, #65536	@ 0x10000
 80023f4:	611a      	str	r2, [r3, #16]
 80023f6:	f8d3 20c0 	ldr.w	r2, [r3, #192]	@ 0xc0
 80023fa:	4002      	ands	r2, r0
 80023fc:	e79b      	b.n	8002336 <HAL_ADC_Init+0x11e>
 80023fe:	691a      	ldr	r2, [r3, #16]
 8002400:	f022 0201 	bic.w	r2, r2, #1
 8002404:	e7aa      	b.n	800235c <HAL_ADC_Init+0x144>
 8002406:	6de3      	ldr	r3, [r4, #92]	@ 0x5c
 8002408:	f043 0310 	orr.w	r3, r3, #16
 800240c:	65e3      	str	r3, [r4, #92]	@ 0x5c
 800240e:	2101      	movs	r1, #1
 8002410:	e7ba      	b.n	8002388 <HAL_ADC_Init+0x170>
 8002412:	bf00      	nop
 8002414:	50000100 	.word	0x50000100
 8002418:	fff04007 	.word	0xfff04007
 800241c:	ffffc000 	.word	0xffffc000
 8002420:	00030d40 	.word	0x00030d40
 8002424:	200001e4 	.word	0x200001e4
 8002428:	50000400 	.word	0x50000400
 800242c:	50000500 	.word	0x50000500
 8002430:	50000600 	.word	0x50000600
 8002434:	50000700 	.word	0x50000700
 8002438:	50000300 	.word	0x50000300

0800243c <HAL_ADC_ConvHalfCpltCallback>:
 800243c:	4770      	bx	lr

0800243e <ADC_DMAHalfConvCplt>:
 800243e:	b508      	push	{r3, lr}
 8002440:	6a80      	ldr	r0, [r0, #40]	@ 0x28
 8002442:	f7ff fffb 	bl	800243c <HAL_ADC_ConvHalfCpltCallback>
 8002446:	bd08      	pop	{r3, pc}

08002448 <HAL_ADC_LevelOutOfWindowCallback>:
 8002448:	4770      	bx	lr

0800244a <HAL_ADC_ErrorCallback>:
 800244a:	4770      	bx	lr

0800244c <HAL_ADC_IRQHandler>:
 800244c:	6802      	ldr	r2, [r0, #0]
 800244e:	f1b2 4fa0 	cmp.w	r2, #1342177280	@ 0x50000000
 8002452:	b5f8      	push	{r3, r4, r5, r6, r7, lr}
 8002454:	6816      	ldr	r6, [r2, #0]
 8002456:	6855      	ldr	r5, [r2, #4]
 8002458:	4604      	mov	r4, r0
 800245a:	f000 810d 	beq.w	8002678 <HAL_ADC_IRQHandler+0x22c>
 800245e:	4891      	ldr	r0, [pc, #580]	@ (80026a4 <HAL_ADC_IRQHandler+0x258>)
 8002460:	4b91      	ldr	r3, [pc, #580]	@ (80026a8 <HAL_ADC_IRQHandler+0x25c>)
 8002462:	4992      	ldr	r1, [pc, #584]	@ (80026ac <HAL_ADC_IRQHandler+0x260>)
 8002464:	4282      	cmp	r2, r0
 8002466:	bf18      	it	ne
 8002468:	460b      	movne	r3, r1
 800246a:	689f      	ldr	r7, [r3, #8]
 800246c:	07b0      	lsls	r0, r6, #30
 800246e:	f007 071f 	and.w	r7, r7, #31
 8002472:	d50e      	bpl.n	8002492 <HAL_ADC_IRQHandler+0x46>
 8002474:	07a9      	lsls	r1, r5, #30
 8002476:	d50c      	bpl.n	8002492 <HAL_ADC_IRQHandler+0x46>
 8002478:	6de3      	ldr	r3, [r4, #92]	@ 0x5c
 800247a:	06da      	lsls	r2, r3, #27
 800247c:	bf5e      	ittt	pl
 800247e:	6de3      	ldrpl	r3, [r4, #92]	@ 0x5c
 8002480:	f443 6300 	orrpl.w	r3, r3, #2048	@ 0x800
 8002484:	65e3      	strpl	r3, [r4, #92]	@ 0x5c
 8002486:	4620      	mov	r0, r4
 8002488:	f000 fcdc 	bl	8002e44 <HAL_ADCEx_EndOfSamplingCallback>
 800248c:	6823      	ldr	r3, [r4, #0]
 800248e:	2202      	movs	r2, #2
 8002490:	601a      	str	r2, [r3, #0]
 8002492:	0773      	lsls	r3, r6, #29
 8002494:	d501      	bpl.n	800249a <HAL_ADC_IRQHandler+0x4e>
 8002496:	0768      	lsls	r0, r5, #29
 8002498:	d403      	bmi.n	80024a2 <HAL_ADC_IRQHandler+0x56>
 800249a:	0731      	lsls	r1, r6, #28
 800249c:	d53d      	bpl.n	800251a <HAL_ADC_IRQHandler+0xce>
 800249e:	072a      	lsls	r2, r5, #28
 80024a0:	d53b      	bpl.n	800251a <HAL_ADC_IRQHandler+0xce>
 80024a2:	6de3      	ldr	r3, [r4, #92]	@ 0x5c
 80024a4:	06db      	lsls	r3, r3, #27
 80024a6:	bf5e      	ittt	pl
 80024a8:	6de3      	ldrpl	r3, [r4, #92]	@ 0x5c
 80024aa:	f443 7300 	orrpl.w	r3, r3, #512	@ 0x200
 80024ae:	65e3      	strpl	r3, [r4, #92]	@ 0x5c
 80024b0:	6823      	ldr	r3, [r4, #0]
 80024b2:	68da      	ldr	r2, [r3, #12]
 80024b4:	f412 6f40 	tst.w	r2, #3072	@ 0xc00
 80024b8:	d129      	bne.n	800250e <HAL_ADC_IRQHandler+0xc2>
 80024ba:	4a7a      	ldr	r2, [pc, #488]	@ (80026a4 <HAL_ADC_IRQHandler+0x258>)
 80024bc:	4293      	cmp	r3, r2
 80024be:	f000 80dd 	beq.w	800267c <HAL_ADC_IRQHandler+0x230>
 80024c2:	f502 6280 	add.w	r2, r2, #1024	@ 0x400
 80024c6:	4293      	cmp	r3, r2
 80024c8:	d106      	bne.n	80024d8 <HAL_ADC_IRQHandler+0x8c>
 80024ca:	4979      	ldr	r1, [pc, #484]	@ (80026b0 <HAL_ADC_IRQHandler+0x264>)
 80024cc:	f240 2221 	movw	r2, #545	@ 0x221
 80024d0:	40fa      	lsrs	r2, r7
 80024d2:	07d0      	lsls	r0, r2, #31
 80024d4:	f140 80d5 	bpl.w	8002682 <HAL_ADC_IRQHandler+0x236>
 80024d8:	68da      	ldr	r2, [r3, #12]
 80024da:	0491      	lsls	r1, r2, #18
 80024dc:	d417      	bmi.n	800250e <HAL_ADC_IRQHandler+0xc2>
 80024de:	681a      	ldr	r2, [r3, #0]
 80024e0:	0712      	lsls	r2, r2, #28
 80024e2:	d514      	bpl.n	800250e <HAL_ADC_IRQHandler+0xc2>
 80024e4:	4618      	mov	r0, r3
 80024e6:	f7ff fe93 	bl	8002210 <LL_ADC_REG_IsConversionOngoing>
 80024ea:	2800      	cmp	r0, #0
 80024ec:	f040 80cb 	bne.w	8002686 <HAL_ADC_IRQHandler+0x23a>
 80024f0:	685a      	ldr	r2, [r3, #4]
 80024f2:	f022 020c 	bic.w	r2, r2, #12
 80024f6:	605a      	str	r2, [r3, #4]
 80024f8:	6de3      	ldr	r3, [r4, #92]	@ 0x5c
 80024fa:	f423 7380 	bic.w	r3, r3, #256	@ 0x100
 80024fe:	65e3      	str	r3, [r4, #92]	@ 0x5c
 8002500:	6de3      	ldr	r3, [r4, #92]	@ 0x5c
 8002502:	04d8      	lsls	r0, r3, #19
 8002504:	d403      	bmi.n	800250e <HAL_ADC_IRQHandler+0xc2>
 8002506:	6de3      	ldr	r3, [r4, #92]	@ 0x5c
 8002508:	f043 0301 	orr.w	r3, r3, #1
 800250c:	65e3      	str	r3, [r4, #92]	@ 0x5c
 800250e:	4620      	mov	r0, r4
 8002510:	f7fe fd5c 	bl	8000fcc <HAL_ADC_ConvCpltCallback>
 8002514:	6823      	ldr	r3, [r4, #0]
 8002516:	220c      	movs	r2, #12
 8002518:	601a      	str	r2, [r3, #0]
 800251a:	06b1      	lsls	r1, r6, #26
 800251c:	d501      	bpl.n	8002522 <HAL_ADC_IRQHandler+0xd6>
 800251e:	06aa      	lsls	r2, r5, #26
 8002520:	d403      	bmi.n	800252a <HAL_ADC_IRQHandler+0xde>
 8002522:	0673      	lsls	r3, r6, #25
 8002524:	d543      	bpl.n	80025ae <HAL_ADC_IRQHandler+0x162>
 8002526:	0668      	lsls	r0, r5, #25
 8002528:	d541      	bpl.n	80025ae <HAL_ADC_IRQHandler+0x162>
 800252a:	6de3      	ldr	r3, [r4, #92]	@ 0x5c
 800252c:	4a5d      	ldr	r2, [pc, #372]	@ (80026a4 <HAL_ADC_IRQHandler+0x258>)
 800252e:	06d9      	lsls	r1, r3, #27
 8002530:	bf5e      	ittt	pl
 8002532:	6de3      	ldrpl	r3, [r4, #92]	@ 0x5c
 8002534:	f443 5300 	orrpl.w	r3, r3, #8192	@ 0x2000
 8002538:	65e3      	strpl	r3, [r4, #92]	@ 0x5c
 800253a:	6823      	ldr	r3, [r4, #0]
 800253c:	6cd9      	ldr	r1, [r3, #76]	@ 0x4c
 800253e:	68d8      	ldr	r0, [r3, #12]
 8002540:	4293      	cmp	r3, r2
 8002542:	f401 71c0 	and.w	r1, r1, #384	@ 0x180
 8002546:	f000 80a7 	beq.w	8002698 <HAL_ADC_IRQHandler+0x24c>
 800254a:	f502 6280 	add.w	r2, r2, #1024	@ 0x400
 800254e:	4293      	cmp	r3, r2
 8002550:	f040 80a5 	bne.w	800269e <HAL_ADC_IRQHandler+0x252>
 8002554:	f8df c158 	ldr.w	ip, [pc, #344]	@ 80026b0 <HAL_ADC_IRQHandler+0x264>
 8002558:	22c1      	movs	r2, #193	@ 0xc1
 800255a:	40fa      	lsrs	r2, r7
 800255c:	07d2      	lsls	r2, r2, #31
 800255e:	f100 809e 	bmi.w	800269e <HAL_ADC_IRQHandler+0x252>
 8002562:	f8dc 200c 	ldr.w	r2, [ip, #12]
 8002566:	b9e1      	cbnz	r1, 80025a2 <HAL_ADC_IRQHandler+0x156>
 8002568:	0191      	lsls	r1, r2, #6
 800256a:	d505      	bpl.n	8002578 <HAL_ADC_IRQHandler+0x12c>
 800256c:	f402 5100 	and.w	r1, r2, #8192	@ 0x2000
 8002570:	f400 6040 	and.w	r0, r0, #3072	@ 0xc00
 8002574:	4301      	orrs	r1, r0
 8002576:	d114      	bne.n	80025a2 <HAL_ADC_IRQHandler+0x156>
 8002578:	6819      	ldr	r1, [r3, #0]
 800257a:	0649      	lsls	r1, r1, #25
 800257c:	d511      	bpl.n	80025a2 <HAL_ADC_IRQHandler+0x156>
 800257e:	0292      	lsls	r2, r2, #10
 8002580:	d40f      	bmi.n	80025a2 <HAL_ADC_IRQHandler+0x156>
 8002582:	689a      	ldr	r2, [r3, #8]
 8002584:	0710      	lsls	r0, r2, #28
 8002586:	f100 8095 	bmi.w	80026b4 <HAL_ADC_IRQHandler+0x268>
 800258a:	685a      	ldr	r2, [r3, #4]
 800258c:	f022 0260 	bic.w	r2, r2, #96	@ 0x60
 8002590:	605a      	str	r2, [r3, #4]
 8002592:	6de3      	ldr	r3, [r4, #92]	@ 0x5c
 8002594:	f423 5380 	bic.w	r3, r3, #4096	@ 0x1000
 8002598:	65e3      	str	r3, [r4, #92]	@ 0x5c
 800259a:	6de3      	ldr	r3, [r4, #92]	@ 0x5c
 800259c:	05d9      	lsls	r1, r3, #23
 800259e:	f140 8092 	bpl.w	80026c6 <HAL_ADC_IRQHandler+0x27a>
 80025a2:	4620      	mov	r0, r4
 80025a4:	f000 fc4a 	bl	8002e3c <HAL_ADCEx_InjectedConvCpltCallback>
 80025a8:	6823      	ldr	r3, [r4, #0]
 80025aa:	2260      	movs	r2, #96	@ 0x60
 80025ac:	601a      	str	r2, [r3, #0]
 80025ae:	0632      	lsls	r2, r6, #24
 80025b0:	d50b      	bpl.n	80025ca <HAL_ADC_IRQHandler+0x17e>
 80025b2:	062b      	lsls	r3, r5, #24
 80025b4:	d509      	bpl.n	80025ca <HAL_ADC_IRQHandler+0x17e>
 80025b6:	6de3      	ldr	r3, [r4, #92]	@ 0x5c
 80025b8:	f443 3380 	orr.w	r3, r3, #65536	@ 0x10000
 80025bc:	65e3      	str	r3, [r4, #92]	@ 0x5c
 80025be:	4620      	mov	r0, r4
 80025c0:	f7ff ff42 	bl	8002448 <HAL_ADC_LevelOutOfWindowCallback>
 80025c4:	6823      	ldr	r3, [r4, #0]
 80025c6:	2280      	movs	r2, #128	@ 0x80
 80025c8:	601a      	str	r2, [r3, #0]
 80025ca:	05f0      	lsls	r0, r6, #23
 80025cc:	d50c      	bpl.n	80025e8 <HAL_ADC_IRQHandler+0x19c>
 80025ce:	05e9      	lsls	r1, r5, #23
 80025d0:	d50a      	bpl.n	80025e8 <HAL_ADC_IRQHandler+0x19c>
 80025d2:	6de3      	ldr	r3, [r4, #92]	@ 0x5c
 80025d4:	f443 3300 	orr.w	r3, r3, #131072	@ 0x20000
 80025d8:	65e3      	str	r3, [r4, #92]	@ 0x5c
 80025da:	4620      	mov	r0, r4
 80025dc:	f000 fc30 	bl	8002e40 <HAL_ADCEx_LevelOutOfWindow2Callback>
 80025e0:	6823      	ldr	r3, [r4, #0]
 80025e2:	f44f 7280 	mov.w	r2, #256	@ 0x100
 80025e6:	601a      	str	r2, [r3, #0]
 80025e8:	05b2      	lsls	r2, r6, #22
 80025ea:	d50c      	bpl.n	8002606 <HAL_ADC_IRQHandler+0x1ba>
 80025ec:	05ab      	lsls	r3, r5, #22
 80025ee:	d50a      	bpl.n	8002606 <HAL_ADC_IRQHandler+0x1ba>
 80025f0:	6de3      	ldr	r3, [r4, #92]	@ 0x5c
 80025f2:	f443 2380 	orr.w	r3, r3, #262144	@ 0x40000
 80025f6:	65e3      	str	r3, [r4, #92]	@ 0x5c
 80025f8:	4620      	mov	r0, r4
 80025fa:	f000 fc22 	bl	8002e42 <HAL_ADCEx_LevelOutOfWindow3Callback>
 80025fe:	6823      	ldr	r3, [r4, #0]
 8002600:	f44f 7200 	mov.w	r2, #512	@ 0x200
 8002604:	601a      	str	r2, [r3, #0]
 8002606:	06f0      	lsls	r0, r6, #27
 8002608:	d521      	bpl.n	800264e <HAL_ADC_IRQHandler+0x202>
 800260a:	06e9      	lsls	r1, r5, #27
 800260c:	d51f      	bpl.n	800264e <HAL_ADC_IRQHandler+0x202>
 800260e:	6be3      	ldr	r3, [r4, #60]	@ 0x3c
 8002610:	b17b      	cbz	r3, 8002632 <HAL_ADC_IRQHandler+0x1e6>
 8002612:	6822      	ldr	r2, [r4, #0]
 8002614:	2f00      	cmp	r7, #0
 8002616:	d05d      	beq.n	80026d4 <HAL_ADC_IRQHandler+0x288>
 8002618:	f1b2 4fa0 	cmp.w	r2, #1342177280	@ 0x50000000
 800261c:	d058      	beq.n	80026d0 <HAL_ADC_IRQHandler+0x284>
 800261e:	4821      	ldr	r0, [pc, #132]	@ (80026a4 <HAL_ADC_IRQHandler+0x258>)
 8002620:	4b21      	ldr	r3, [pc, #132]	@ (80026a8 <HAL_ADC_IRQHandler+0x25c>)
 8002622:	4922      	ldr	r1, [pc, #136]	@ (80026ac <HAL_ADC_IRQHandler+0x260>)
 8002624:	4282      	cmp	r2, r0
 8002626:	bf18      	it	ne
 8002628:	460b      	movne	r3, r1
 800262a:	689b      	ldr	r3, [r3, #8]
 800262c:	f413 4f60 	tst.w	r3, #57344	@ 0xe000
 8002630:	d00a      	beq.n	8002648 <HAL_ADC_IRQHandler+0x1fc>
 8002632:	6de3      	ldr	r3, [r4, #92]	@ 0x5c
 8002634:	f443 6380 	orr.w	r3, r3, #1024	@ 0x400
 8002638:	65e3      	str	r3, [r4, #92]	@ 0x5c
 800263a:	6e23      	ldr	r3, [r4, #96]	@ 0x60
 800263c:	f043 0302 	orr.w	r3, r3, #2
 8002640:	6623      	str	r3, [r4, #96]	@ 0x60
 8002642:	4620      	mov	r0, r4
 8002644:	f7ff ff01 	bl	800244a <HAL_ADC_ErrorCallback>
 8002648:	6823      	ldr	r3, [r4, #0]
 800264a:	2210      	movs	r2, #16
 800264c:	601a      	str	r2, [r3, #0]
 800264e:	0572      	lsls	r2, r6, #21
 8002650:	d544      	bpl.n	80026dc <HAL_ADC_IRQHandler+0x290>
 8002652:	056b      	lsls	r3, r5, #21
 8002654:	d542      	bpl.n	80026dc <HAL_ADC_IRQHandler+0x290>
 8002656:	6de3      	ldr	r3, [r4, #92]	@ 0x5c
 8002658:	f443 4380 	orr.w	r3, r3, #16384	@ 0x4000
 800265c:	65e3      	str	r3, [r4, #92]	@ 0x5c
 800265e:	6e23      	ldr	r3, [r4, #96]	@ 0x60
 8002660:	f043 0308 	orr.w	r3, r3, #8
 8002664:	6623      	str	r3, [r4, #96]	@ 0x60
 8002666:	6823      	ldr	r3, [r4, #0]
 8002668:	f44f 6280 	mov.w	r2, #1024	@ 0x400
 800266c:	601a      	str	r2, [r3, #0]
 800266e:	4620      	mov	r0, r4
 8002670:	e8bd 40f8 	ldmia.w	sp!, {r3, r4, r5, r6, r7, lr}
 8002674:	f000 bbe3 	b.w	8002e3e <HAL_ADCEx_InjectedQueueOverflowCallback>
 8002678:	4b0b      	ldr	r3, [pc, #44]	@ (80026a8 <HAL_ADC_IRQHandler+0x25c>)
 800267a:	e6f6      	b.n	800246a <HAL_ADC_IRQHandler+0x1e>
 800267c:	f04f 41a0 	mov.w	r1, #1342177280	@ 0x50000000
 8002680:	e724      	b.n	80024cc <HAL_ADC_IRQHandler+0x80>
 8002682:	68ca      	ldr	r2, [r1, #12]
 8002684:	e729      	b.n	80024da <HAL_ADC_IRQHandler+0x8e>
 8002686:	6de3      	ldr	r3, [r4, #92]	@ 0x5c
 8002688:	f043 0310 	orr.w	r3, r3, #16
 800268c:	65e3      	str	r3, [r4, #92]	@ 0x5c
 800268e:	6e23      	ldr	r3, [r4, #96]	@ 0x60
 8002690:	f043 0301 	orr.w	r3, r3, #1
 8002694:	6623      	str	r3, [r4, #96]	@ 0x60
 8002696:	e73a      	b.n	800250e <HAL_ADC_IRQHandler+0xc2>
 8002698:	f04f 4ca0 	mov.w	ip, #1342177280	@ 0x50000000
 800269c:	e75c      	b.n	8002558 <HAL_ADC_IRQHandler+0x10c>
 800269e:	68da      	ldr	r2, [r3, #12]
 80026a0:	e761      	b.n	8002566 <HAL_ADC_IRQHandler+0x11a>
 80026a2:	bf00      	nop
 80026a4:	50000100 	.word	0x50000100
 80026a8:	50000300 	.word	0x50000300
 80026ac:	50000700 	.word	0x50000700
 80026b0:	50000400 	.word	0x50000400
 80026b4:	6de3      	ldr	r3, [r4, #92]	@ 0x5c
 80026b6:	f043 0310 	orr.w	r3, r3, #16
 80026ba:	65e3      	str	r3, [r4, #92]	@ 0x5c
 80026bc:	6e23      	ldr	r3, [r4, #96]	@ 0x60
 80026be:	f043 0301 	orr.w	r3, r3, #1
 80026c2:	6623      	str	r3, [r4, #96]	@ 0x60
 80026c4:	e76d      	b.n	80025a2 <HAL_ADC_IRQHandler+0x156>
 80026c6:	6de3      	ldr	r3, [r4, #92]	@ 0x5c
 80026c8:	f043 0301 	orr.w	r3, r3, #1
 80026cc:	65e3      	str	r3, [r4, #92]	@ 0x5c
 80026ce:	e768      	b.n	80025a2 <HAL_ADC_IRQHandler+0x156>
 80026d0:	4b03      	ldr	r3, [pc, #12]	@ (80026e0 <HAL_ADC_IRQHandler+0x294>)
 80026d2:	e7aa      	b.n	800262a <HAL_ADC_IRQHandler+0x1de>
 80026d4:	68d3      	ldr	r3, [r2, #12]
 80026d6:	f013 0f01 	tst.w	r3, #1
 80026da:	e7a9      	b.n	8002630 <HAL_ADC_IRQHandler+0x1e4>
 80026dc:	bdf8      	pop	{r3, r4, r5, r6, r7, pc}
 80026de:	bf00      	nop
 80026e0:	50000300 	.word	0x50000300

080026e4 <ADC_DMAConvCplt>:
 80026e4:	6a83      	ldr	r3, [r0, #40]	@ 0x28
 80026e6:	6dda      	ldr	r2, [r3, #92]	@ 0x5c
 80026e8:	f012 0f50 	tst.w	r2, #80	@ 0x50
 80026ec:	b510      	push	{r4, lr}
 80026ee:	6dda      	ldr	r2, [r3, #92]	@ 0x5c
 80026f0:	d121      	bne.n	8002736 <ADC_DMAConvCplt+0x52>
 80026f2:	f442 7200 	orr.w	r2, r2, #512	@ 0x200
 80026f6:	65da      	str	r2, [r3, #92]	@ 0x5c
 80026f8:	681a      	ldr	r2, [r3, #0]
 80026fa:	6811      	ldr	r1, [r2, #0]
 80026fc:	0708      	lsls	r0, r1, #28
 80026fe:	d516      	bpl.n	800272e <ADC_DMAConvCplt+0x4a>
 8002700:	68d1      	ldr	r1, [r2, #12]
 8002702:	f411 6f40 	tst.w	r1, #3072	@ 0xc00
 8002706:	d10e      	bne.n	8002726 <ADC_DMAConvCplt+0x42>
 8002708:	68d2      	ldr	r2, [r2, #12]
 800270a:	f412 5f00 	tst.w	r2, #8192	@ 0x2000
 800270e:	d10a      	bne.n	8002726 <ADC_DMAConvCplt+0x42>
 8002710:	6dda      	ldr	r2, [r3, #92]	@ 0x5c
 8002712:	f422 7280 	bic.w	r2, r2, #256	@ 0x100
 8002716:	65da      	str	r2, [r3, #92]	@ 0x5c
 8002718:	6dda      	ldr	r2, [r3, #92]	@ 0x5c
 800271a:	04d1      	lsls	r1, r2, #19
 800271c:	bf5e      	ittt	pl
 800271e:	6dda      	ldrpl	r2, [r3, #92]	@ 0x5c
 8002720:	f042 0201 	orrpl.w	r2, r2, #1
 8002724:	65da      	strpl	r2, [r3, #92]	@ 0x5c
 8002726:	4618      	mov	r0, r3
 8002728:	f7fe fc50 	bl	8000fcc <HAL_ADC_ConvCpltCallback>
 800272c:	bd10      	pop	{r4, pc}
 800272e:	68d2      	ldr	r2, [r2, #12]
 8002730:	f012 0f02 	tst.w	r2, #2
 8002734:	e7eb      	b.n	800270e <ADC_DMAConvCplt+0x2a>
 8002736:	06d2      	lsls	r2, r2, #27
 8002738:	d503      	bpl.n	8002742 <ADC_DMAConvCplt+0x5e>
 800273a:	4618      	mov	r0, r3
 800273c:	f7ff fe85 	bl	800244a <HAL_ADC_ErrorCallback>
 8002740:	e7f4      	b.n	800272c <ADC_DMAConvCplt+0x48>
 8002742:	6d5b      	ldr	r3, [r3, #84]	@ 0x54
 8002744:	e8bd 4010 	ldmia.w	sp!, {r4, lr}
 8002748:	6b5b      	ldr	r3, [r3, #52]	@ 0x34
 800274a:	4718      	bx	r3

0800274c <ADC_DMAError>:
 800274c:	6a80      	ldr	r0, [r0, #40]	@ 0x28
 800274e:	b508      	push	{r3, lr}
 8002750:	6dc3      	ldr	r3, [r0, #92]	@ 0x5c
 8002752:	f043 0340 	orr.w	r3, r3, #64	@ 0x40
 8002756:	65c3      	str	r3, [r0, #92]	@ 0x5c
 8002758:	6e03      	ldr	r3, [r0, #96]	@ 0x60
 800275a:	f043 0304 	orr.w	r3, r3, #4
 800275e:	6603      	str	r3, [r0, #96]	@ 0x60
 8002760:	f7ff fe73 	bl	800244a <HAL_ADC_ErrorCallback>
 8002764:	bd08      	pop	{r3, pc}
	...

08002768 <HAL_ADC_ConfigChannel>:
 8002768:	b5f7      	push	{r0, r1, r2, r4, r5, r6, r7, lr}
 800276a:	2300      	movs	r3, #0
 800276c:	9301      	str	r3, [sp, #4]
 800276e:	f890 3058 	ldrb.w	r3, [r0, #88]	@ 0x58
 8002772:	2b01      	cmp	r3, #1
 8002774:	4605      	mov	r5, r0
 8002776:	460e      	mov	r6, r1
 8002778:	f000 81e5 	beq.w	8002b46 <HAL_ADC_ConfigChannel+0x3de>
 800277c:	6804      	ldr	r4, [r0, #0]
 800277e:	2301      	movs	r3, #1
 8002780:	f880 3058 	strb.w	r3, [r0, #88]	@ 0x58
 8002784:	4620      	mov	r0, r4
 8002786:	f7ff fd43 	bl	8002210 <LL_ADC_REG_IsConversionOngoing>
 800278a:	2800      	cmp	r0, #0
 800278c:	f040 81d5 	bne.w	8002b3a <HAL_ADC_ConfigChannel+0x3d2>
 8002790:	684a      	ldr	r2, [r1, #4]
 8002792:	6833      	ldr	r3, [r6, #0]
 8002794:	0991      	lsrs	r1, r2, #6
 8002796:	f001 010c 	and.w	r1, r1, #12
 800279a:	f104 0730 	add.w	r7, r4, #48	@ 0x30
 800279e:	f002 021f 	and.w	r2, r2, #31
 80027a2:	5878      	ldr	r0, [r7, r1]
 80027a4:	f04f 0c1f 	mov.w	ip, #31
 80027a8:	f3c3 6384 	ubfx	r3, r3, #26, #5
 80027ac:	4093      	lsls	r3, r2
 80027ae:	fa0c f202 	lsl.w	r2, ip, r2
 80027b2:	ea20 0202 	bic.w	r2, r0, r2
 80027b6:	4313      	orrs	r3, r2
 80027b8:	507b      	str	r3, [r7, r1]
 80027ba:	4620      	mov	r0, r4
 80027bc:	f7ff fd28 	bl	8002210 <LL_ADC_REG_IsConversionOngoing>
 80027c0:	68a2      	ldr	r2, [r4, #8]
 80027c2:	f002 0208 	and.w	r2, r2, #8
 80027c6:	4302      	orrs	r2, r0
 80027c8:	d13b      	bne.n	8002842 <HAL_ADC_ConfigChannel+0xda>
 80027ca:	68b3      	ldr	r3, [r6, #8]
 80027cc:	6831      	ldr	r1, [r6, #0]
 80027ce:	f1b3 4f00 	cmp.w	r3, #2147483648	@ 0x80000000
 80027d2:	d174      	bne.n	80028be <HAL_ADC_ConfigChannel+0x156>
 80027d4:	4620      	mov	r0, r4
 80027d6:	f7ff fd07 	bl	80021e8 <LL_ADC_SetChannelSamplingTime>
 80027da:	6963      	ldr	r3, [r4, #20]
 80027dc:	f043 4300 	orr.w	r3, r3, #2147483648	@ 0x80000000
 80027e0:	6163      	str	r3, [r4, #20]
 80027e2:	6937      	ldr	r7, [r6, #16]
 80027e4:	6971      	ldr	r1, [r6, #20]
 80027e6:	68e0      	ldr	r0, [r4, #12]
 80027e8:	6832      	ldr	r2, [r6, #0]
 80027ea:	2f04      	cmp	r7, #4
 80027ec:	f104 0360 	add.w	r3, r4, #96	@ 0x60
 80027f0:	d06d      	beq.n	80028ce <HAL_ADC_ConfigChannel+0x166>
 80027f2:	f3c0 00c1 	ubfx	r0, r0, #3, #2
 80027f6:	0040      	lsls	r0, r0, #1
 80027f8:	f853 c027 	ldr.w	ip, [r3, r7, lsl #2]
 80027fc:	4081      	lsls	r1, r0
 80027fe:	48b5      	ldr	r0, [pc, #724]	@ (8002ad4 <HAL_ADC_ConfigChannel+0x36c>)
 8002800:	f002 42f8 	and.w	r2, r2, #2080374784	@ 0x7c000000
 8002804:	ea0c 0000 	and.w	r0, ip, r0
 8002808:	4310      	orrs	r0, r2
 800280a:	ea41 0200 	orr.w	r2, r1, r0
 800280e:	f042 4200 	orr.w	r2, r2, #2147483648	@ 0x80000000
 8002812:	f843 2027 	str.w	r2, [r3, r7, lsl #2]
 8002816:	6931      	ldr	r1, [r6, #16]
 8002818:	69b0      	ldr	r0, [r6, #24]
 800281a:	f853 2021 	ldr.w	r2, [r3, r1, lsl #2]
 800281e:	f022 7280 	bic.w	r2, r2, #16777216	@ 0x1000000
 8002822:	4302      	orrs	r2, r0
 8002824:	f843 2021 	str.w	r2, [r3, r1, lsl #2]
 8002828:	7f31      	ldrb	r1, [r6, #28]
 800282a:	6930      	ldr	r0, [r6, #16]
 800282c:	1e4f      	subs	r7, r1, #1
 800282e:	f853 2020 	ldr.w	r2, [r3, r0, lsl #2]
 8002832:	4279      	negs	r1, r7
 8002834:	4179      	adcs	r1, r7
 8002836:	f022 7200 	bic.w	r2, r2, #33554432	@ 0x2000000
 800283a:	ea42 6241 	orr.w	r2, r2, r1, lsl #25
 800283e:	f843 2020 	str.w	r2, [r3, r0, lsl #2]
 8002842:	4620      	mov	r0, r4
 8002844:	f7ff fce0 	bl	8002208 <LL_ADC_IsEnabled>
 8002848:	bb70      	cbnz	r0, 80028a8 <HAL_ADC_ConfigChannel+0x140>
 800284a:	68f7      	ldr	r7, [r6, #12]
 800284c:	6833      	ldr	r3, [r6, #0]
 800284e:	4aa2      	ldr	r2, [pc, #648]	@ (8002ad8 <HAL_ADC_ConfigChannel+0x370>)
 8002850:	f8d4 10b0 	ldr.w	r1, [r4, #176]	@ 0xb0
 8002854:	f007 0c18 	and.w	ip, r7, #24
 8002858:	f3c3 0012 	ubfx	r0, r3, #0, #19
 800285c:	fa22 f20c 	lsr.w	r2, r2, ip
 8002860:	401a      	ands	r2, r3
 8002862:	ea21 0100 	bic.w	r1, r1, r0
 8002866:	430a      	orrs	r2, r1
 8002868:	f8c4 20b0 	str.w	r2, [r4, #176]	@ 0xb0
 800286c:	4a9b      	ldr	r2, [pc, #620]	@ (8002adc <HAL_ADC_ConfigChannel+0x374>)
 800286e:	4297      	cmp	r7, r2
 8002870:	d11a      	bne.n	80028a8 <HAL_ADC_ConfigChannel+0x140>
 8002872:	2800      	cmp	r0, #0
 8002874:	f040 808a 	bne.w	800298c <HAL_ADC_ConfigChannel+0x224>
 8002878:	0e9a      	lsrs	r2, r3, #26
 800287a:	3201      	adds	r2, #1
 800287c:	f002 011f 	and.w	r1, r2, #31
 8002880:	2001      	movs	r0, #1
 8002882:	2909      	cmp	r1, #9
 8002884:	ea4f 6282 	mov.w	r2, r2, lsl #26
 8002888:	fa01 f300 	lsl.w	r3, r1, r0
 800288c:	f200 80a4 	bhi.w	80029d8 <HAL_ADC_ConfigChannel+0x270>
 8002890:	f002 42f8 	and.w	r2, r2, #2080374784	@ 0x7c000000
 8002894:	4088      	lsls	r0, r1
 8002896:	4302      	orrs	r2, r0
 8002898:	440b      	add	r3, r1
 800289a:	051b      	lsls	r3, r3, #20
 800289c:	ea43 0102 	orr.w	r1, r3, r2
 80028a0:	4620      	mov	r0, r4
 80028a2:	68b2      	ldr	r2, [r6, #8]
 80028a4:	f7ff fca0 	bl	80021e8 <LL_ADC_SetChannelSamplingTime>
 80028a8:	6833      	ldr	r3, [r6, #0]
 80028aa:	4a8d      	ldr	r2, [pc, #564]	@ (8002ae0 <HAL_ADC_ConfigChannel+0x378>)
 80028ac:	4213      	tst	r3, r2
 80028ae:	f040 80bf 	bne.w	8002a30 <HAL_ADC_ConfigChannel+0x2c8>
 80028b2:	2000      	movs	r0, #0
 80028b4:	2300      	movs	r3, #0
 80028b6:	f885 3058 	strb.w	r3, [r5, #88]	@ 0x58
 80028ba:	b003      	add	sp, #12
 80028bc:	bdf0      	pop	{r4, r5, r6, r7, pc}
 80028be:	461a      	mov	r2, r3
 80028c0:	4620      	mov	r0, r4
 80028c2:	f7ff fc91 	bl	80021e8 <LL_ADC_SetChannelSamplingTime>
 80028c6:	6963      	ldr	r3, [r4, #20]
 80028c8:	f023 4300 	bic.w	r3, r3, #2147483648	@ 0x80000000
 80028cc:	e788      	b.n	80027e0 <HAL_ADC_ConfigChannel+0x78>
 80028ce:	6e21      	ldr	r1, [r4, #96]	@ 0x60
 80028d0:	6e21      	ldr	r1, [r4, #96]	@ 0x60
 80028d2:	f3c2 0012 	ubfx	r0, r2, #0, #19
 80028d6:	f3c1 6184 	ubfx	r1, r1, #26, #5
 80028da:	2800      	cmp	r0, #0
 80028dc:	d139      	bne.n	8002952 <HAL_ADC_ConfigChannel+0x1ea>
 80028de:	f3c2 6284 	ubfx	r2, r2, #26, #5
 80028e2:	4291      	cmp	r1, r2
 80028e4:	bf02      	ittt	eq
 80028e6:	6e22      	ldreq	r2, [r4, #96]	@ 0x60
 80028e8:	f022 4200 	biceq.w	r2, r2, #2147483648	@ 0x80000000
 80028ec:	6622      	streq	r2, [r4, #96]	@ 0x60
 80028ee:	6e62      	ldr	r2, [r4, #100]	@ 0x64
 80028f0:	6832      	ldr	r2, [r6, #0]
 80028f2:	6e61      	ldr	r1, [r4, #100]	@ 0x64
 80028f4:	f3c2 0012 	ubfx	r0, r2, #0, #19
 80028f8:	f3c1 6184 	ubfx	r1, r1, #26, #5
 80028fc:	2800      	cmp	r0, #0
 80028fe:	d12f      	bne.n	8002960 <HAL_ADC_ConfigChannel+0x1f8>
 8002900:	f3c2 6284 	ubfx	r2, r2, #26, #5
 8002904:	4291      	cmp	r1, r2
 8002906:	bf02      	ittt	eq
 8002908:	6e62      	ldreq	r2, [r4, #100]	@ 0x64
 800290a:	f022 4200 	biceq.w	r2, r2, #2147483648	@ 0x80000000
 800290e:	6662      	streq	r2, [r4, #100]	@ 0x64
 8002910:	689a      	ldr	r2, [r3, #8]
 8002912:	6832      	ldr	r2, [r6, #0]
 8002914:	6899      	ldr	r1, [r3, #8]
 8002916:	f3c2 0012 	ubfx	r0, r2, #0, #19
 800291a:	f3c1 6184 	ubfx	r1, r1, #26, #5
 800291e:	bb30      	cbnz	r0, 800296e <HAL_ADC_ConfigChannel+0x206>
 8002920:	f3c2 6284 	ubfx	r2, r2, #26, #5
 8002924:	4291      	cmp	r1, r2
 8002926:	bf02      	ittt	eq
 8002928:	689a      	ldreq	r2, [r3, #8]
 800292a:	f022 4200 	biceq.w	r2, r2, #2147483648	@ 0x80000000
 800292e:	609a      	streq	r2, [r3, #8]
 8002930:	68da      	ldr	r2, [r3, #12]
 8002932:	6832      	ldr	r2, [r6, #0]
 8002934:	68d9      	ldr	r1, [r3, #12]
 8002936:	f3c2 0012 	ubfx	r0, r2, #0, #19
 800293a:	f3c1 6184 	ubfx	r1, r1, #26, #5
 800293e:	b9e8      	cbnz	r0, 800297c <HAL_ADC_ConfigChannel+0x214>
 8002940:	f3c2 6284 	ubfx	r2, r2, #26, #5
 8002944:	4291      	cmp	r1, r2
 8002946:	bf02      	ittt	eq
 8002948:	68da      	ldreq	r2, [r3, #12]
 800294a:	f022 4200 	biceq.w	r2, r2, #2147483648	@ 0x80000000
 800294e:	60da      	streq	r2, [r3, #12]
 8002950:	e777      	b.n	8002842 <HAL_ADC_ConfigChannel+0xda>
 8002952:	fa92 f2a2 	rbit	r2, r2
 8002956:	2a00      	cmp	r2, #0
 8002958:	d0c9      	beq.n	80028ee <HAL_ADC_ConfigChannel+0x186>
 800295a:	fab2 f282 	clz	r2, r2
 800295e:	e7c0      	b.n	80028e2 <HAL_ADC_ConfigChannel+0x17a>
 8002960:	fa92 f2a2 	rbit	r2, r2
 8002964:	2a00      	cmp	r2, #0
 8002966:	d0d3      	beq.n	8002910 <HAL_ADC_ConfigChannel+0x1a8>
 8002968:	fab2 f282 	clz	r2, r2
 800296c:	e7ca      	b.n	8002904 <HAL_ADC_ConfigChannel+0x19c>
 800296e:	fa92 f2a2 	rbit	r2, r2
 8002972:	2a00      	cmp	r2, #0
 8002974:	d0dc      	beq.n	8002930 <HAL_ADC_ConfigChannel+0x1c8>
 8002976:	fab2 f282 	clz	r2, r2
 800297a:	e7d3      	b.n	8002924 <HAL_ADC_ConfigChannel+0x1bc>
 800297c:	fa92 f2a2 	rbit	r2, r2
 8002980:	2a00      	cmp	r2, #0
 8002982:	f43f af5e 	beq.w	8002842 <HAL_ADC_ConfigChannel+0xda>
 8002986:	fab2 f282 	clz	r2, r2
 800298a:	e7db      	b.n	8002944 <HAL_ADC_ConfigChannel+0x1dc>
 800298c:	fa93 f2a3 	rbit	r2, r3
 8002990:	b132      	cbz	r2, 80029a0 <HAL_ADC_ConfigChannel+0x238>
 8002992:	fab2 f282 	clz	r2, r2
 8002996:	3201      	adds	r2, #1
 8002998:	f002 021f 	and.w	r2, r2, #31
 800299c:	2a09      	cmp	r2, #9
 800299e:	d825      	bhi.n	80029ec <HAL_ADC_ConfigChannel+0x284>
 80029a0:	fa93 f1a3 	rbit	r1, r3
 80029a4:	fab1 f181 	clz	r1, r1
 80029a8:	3101      	adds	r1, #1
 80029aa:	0689      	lsls	r1, r1, #26
 80029ac:	f001 41f8 	and.w	r1, r1, #2080374784	@ 0x7c000000
 80029b0:	fa93 f0a3 	rbit	r0, r3
 80029b4:	fab0 f080 	clz	r0, r0
 80029b8:	3001      	adds	r0, #1
 80029ba:	f000 001f 	and.w	r0, r0, #31
 80029be:	2201      	movs	r2, #1
 80029c0:	4082      	lsls	r2, r0
 80029c2:	430a      	orrs	r2, r1
 80029c4:	fa93 f3a3 	rbit	r3, r3
 80029c8:	fab3 f383 	clz	r3, r3
 80029cc:	3301      	adds	r3, #1
 80029ce:	f003 031f 	and.w	r3, r3, #31
 80029d2:	eb03 0343 	add.w	r3, r3, r3, lsl #1
 80029d6:	e760      	b.n	800289a <HAL_ADC_ConfigChannel+0x132>
 80029d8:	4088      	lsls	r0, r1
 80029da:	4419      	add	r1, r3
 80029dc:	391e      	subs	r1, #30
 80029de:	f002 42f8 	and.w	r2, r2, #2080374784	@ 0x7c000000
 80029e2:	0509      	lsls	r1, r1, #20
 80029e4:	4302      	orrs	r2, r0
 80029e6:	f041 7300 	orr.w	r3, r1, #33554432	@ 0x2000000
 80029ea:	e757      	b.n	800289c <HAL_ADC_ConfigChannel+0x134>
 80029ec:	fa93 f1a3 	rbit	r1, r3
 80029f0:	fab1 f181 	clz	r1, r1
 80029f4:	3101      	adds	r1, #1
 80029f6:	0689      	lsls	r1, r1, #26
 80029f8:	f001 41f8 	and.w	r1, r1, #2080374784	@ 0x7c000000
 80029fc:	fa93 f0a3 	rbit	r0, r3
 8002a00:	fab0 f080 	clz	r0, r0
 8002a04:	3001      	adds	r0, #1
 8002a06:	f000 001f 	and.w	r0, r0, #31
 8002a0a:	2201      	movs	r2, #1
 8002a0c:	4082      	lsls	r2, r0
 8002a0e:	430a      	orrs	r2, r1
 8002a10:	fa93 f1a3 	rbit	r1, r3
 8002a14:	fab1 f181 	clz	r1, r1
 8002a18:	3101      	adds	r1, #1
 8002a1a:	f001 011f 	and.w	r1, r1, #31
 8002a1e:	2303      	movs	r3, #3
 8002a20:	f06f 001d 	mvn.w	r0, #29
 8002a24:	fb13 0301 	smlabb	r3, r3, r1, r0
 8002a28:	051b      	lsls	r3, r3, #20
 8002a2a:	f043 7300 	orr.w	r3, r3, #33554432	@ 0x2000000
 8002a2e:	e735      	b.n	800289c <HAL_ADC_ConfigChannel+0x134>
 8002a30:	f1b4 4fa0 	cmp.w	r4, #1342177280	@ 0x50000000
 8002a34:	d030      	beq.n	8002a98 <HAL_ADC_ConfigChannel+0x330>
 8002a36:	482b      	ldr	r0, [pc, #172]	@ (8002ae4 <HAL_ADC_ConfigChannel+0x37c>)
 8002a38:	4a2b      	ldr	r2, [pc, #172]	@ (8002ae8 <HAL_ADC_ConfigChannel+0x380>)
 8002a3a:	492c      	ldr	r1, [pc, #176]	@ (8002aec <HAL_ADC_ConfigChannel+0x384>)
 8002a3c:	4284      	cmp	r4, r0
 8002a3e:	bf18      	it	ne
 8002a40:	460a      	movne	r2, r1
 8002a42:	482b      	ldr	r0, [pc, #172]	@ (8002af0 <HAL_ADC_ConfigChannel+0x388>)
 8002a44:	6892      	ldr	r2, [r2, #8]
 8002a46:	4283      	cmp	r3, r0
 8002a48:	f002 71e0 	and.w	r1, r2, #29360128	@ 0x1c00000
 8002a4c:	d002      	beq.n	8002a54 <HAL_ADC_ConfigChannel+0x2ec>
 8002a4e:	4829      	ldr	r0, [pc, #164]	@ (8002af4 <HAL_ADC_ConfigChannel+0x38c>)
 8002a50:	4283      	cmp	r3, r0
 8002a52:	d125      	bne.n	8002aa0 <HAL_ADC_ConfigChannel+0x338>
 8002a54:	0210      	lsls	r0, r2, #8
 8002a56:	f53f af2c 	bmi.w	80028b2 <HAL_ADC_ConfigChannel+0x14a>
 8002a5a:	f1b4 4fa0 	cmp.w	r4, #1342177280	@ 0x50000000
 8002a5e:	d01d      	beq.n	8002a9c <HAL_ADC_ConfigChannel+0x334>
 8002a60:	4b25      	ldr	r3, [pc, #148]	@ (8002af8 <HAL_ADC_ConfigChannel+0x390>)
 8002a62:	429c      	cmp	r4, r3
 8002a64:	f47f af25 	bne.w	80028b2 <HAL_ADC_ConfigChannel+0x14a>
 8002a68:	4a20      	ldr	r2, [pc, #128]	@ (8002aec <HAL_ADC_ConfigChannel+0x384>)
 8002a6a:	6893      	ldr	r3, [r2, #8]
 8002a6c:	f023 73e0 	bic.w	r3, r3, #29360128	@ 0x1c00000
 8002a70:	430b      	orrs	r3, r1
 8002a72:	f443 0300 	orr.w	r3, r3, #8388608	@ 0x800000
 8002a76:	6093      	str	r3, [r2, #8]
 8002a78:	4b20      	ldr	r3, [pc, #128]	@ (8002afc <HAL_ADC_ConfigChannel+0x394>)
 8002a7a:	681a      	ldr	r2, [r3, #0]
 8002a7c:	4b20      	ldr	r3, [pc, #128]	@ (8002b00 <HAL_ADC_ConfigChannel+0x398>)
 8002a7e:	fbb2 f2f3 	udiv	r2, r2, r3
 8002a82:	230c      	movs	r3, #12
 8002a84:	fb02 3303 	mla	r3, r2, r3, r3
 8002a88:	9301      	str	r3, [sp, #4]
 8002a8a:	9b01      	ldr	r3, [sp, #4]
 8002a8c:	2b00      	cmp	r3, #0
 8002a8e:	f43f af10 	beq.w	80028b2 <HAL_ADC_ConfigChannel+0x14a>
 8002a92:	9b01      	ldr	r3, [sp, #4]
 8002a94:	3b01      	subs	r3, #1
 8002a96:	e7f7      	b.n	8002a88 <HAL_ADC_ConfigChannel+0x320>
 8002a98:	4a13      	ldr	r2, [pc, #76]	@ (8002ae8 <HAL_ADC_ConfigChannel+0x380>)
 8002a9a:	e7d2      	b.n	8002a42 <HAL_ADC_ConfigChannel+0x2da>
 8002a9c:	4a12      	ldr	r2, [pc, #72]	@ (8002ae8 <HAL_ADC_ConfigChannel+0x380>)
 8002a9e:	e7e4      	b.n	8002a6a <HAL_ADC_ConfigChannel+0x302>
 8002aa0:	4818      	ldr	r0, [pc, #96]	@ (8002b04 <HAL_ADC_ConfigChannel+0x39c>)
 8002aa2:	4283      	cmp	r3, r0
 8002aa4:	d130      	bne.n	8002b08 <HAL_ADC_ConfigChannel+0x3a0>
 8002aa6:	01d2      	lsls	r2, r2, #7
 8002aa8:	f53f af03 	bmi.w	80028b2 <HAL_ADC_ConfigChannel+0x14a>
 8002aac:	f1b4 4fa0 	cmp.w	r4, #1342177280	@ 0x50000000
 8002ab0:	d00d      	beq.n	8002ace <HAL_ADC_ConfigChannel+0x366>
 8002ab2:	480c      	ldr	r0, [pc, #48]	@ (8002ae4 <HAL_ADC_ConfigChannel+0x37c>)
 8002ab4:	4a0c      	ldr	r2, [pc, #48]	@ (8002ae8 <HAL_ADC_ConfigChannel+0x380>)
 8002ab6:	4b0d      	ldr	r3, [pc, #52]	@ (8002aec <HAL_ADC_ConfigChannel+0x384>)
 8002ab8:	4284      	cmp	r4, r0
 8002aba:	bf18      	it	ne
 8002abc:	461a      	movne	r2, r3
 8002abe:	6893      	ldr	r3, [r2, #8]
 8002ac0:	f023 73e0 	bic.w	r3, r3, #29360128	@ 0x1c00000
 8002ac4:	430b      	orrs	r3, r1
 8002ac6:	f043 7380 	orr.w	r3, r3, #16777216	@ 0x1000000
 8002aca:	6093      	str	r3, [r2, #8]
 8002acc:	e6f1      	b.n	80028b2 <HAL_ADC_ConfigChannel+0x14a>
 8002ace:	4a06      	ldr	r2, [pc, #24]	@ (8002ae8 <HAL_ADC_ConfigChannel+0x380>)
 8002ad0:	e7f5      	b.n	8002abe <HAL_ADC_ConfigChannel+0x356>
 8002ad2:	bf00      	nop
 8002ad4:	03fff000 	.word	0x03fff000
 8002ad8:	0007ffff 	.word	0x0007ffff
 8002adc:	407f0000 	.word	0x407f0000
 8002ae0:	80080000 	.word	0x80080000
 8002ae4:	50000100 	.word	0x50000100
 8002ae8:	50000300 	.word	0x50000300
 8002aec:	50000700 	.word	0x50000700
 8002af0:	c3210000 	.word	0xc3210000
 8002af4:	90c00010 	.word	0x90c00010
 8002af8:	50000600 	.word	0x50000600
 8002afc:	200001e4 	.word	0x200001e4
 8002b00:	00030d40 	.word	0x00030d40
 8002b04:	c7520000 	.word	0xc7520000
 8002b08:	4810      	ldr	r0, [pc, #64]	@ (8002b4c <HAL_ADC_ConfigChannel+0x3e4>)
 8002b0a:	4283      	cmp	r3, r0
 8002b0c:	f47f aed1 	bne.w	80028b2 <HAL_ADC_ConfigChannel+0x14a>
 8002b10:	0253      	lsls	r3, r2, #9
 8002b12:	f53f aece 	bmi.w	80028b2 <HAL_ADC_ConfigChannel+0x14a>
 8002b16:	4b0e      	ldr	r3, [pc, #56]	@ (8002b50 <HAL_ADC_ConfigChannel+0x3e8>)
 8002b18:	429c      	cmp	r4, r3
 8002b1a:	f43f aeca 	beq.w	80028b2 <HAL_ADC_ConfigChannel+0x14a>
 8002b1e:	4a0d      	ldr	r2, [pc, #52]	@ (8002b54 <HAL_ADC_ConfigChannel+0x3ec>)
 8002b20:	f503 7300 	add.w	r3, r3, #512	@ 0x200
 8002b24:	f1b4 4fa0 	cmp.w	r4, #1342177280	@ 0x50000000
 8002b28:	bf08      	it	eq
 8002b2a:	461a      	moveq	r2, r3
 8002b2c:	6893      	ldr	r3, [r2, #8]
 8002b2e:	f023 73e0 	bic.w	r3, r3, #29360128	@ 0x1c00000
 8002b32:	430b      	orrs	r3, r1
 8002b34:	f443 0380 	orr.w	r3, r3, #4194304	@ 0x400000
 8002b38:	e7c7      	b.n	8002aca <HAL_ADC_ConfigChannel+0x362>
 8002b3a:	6dea      	ldr	r2, [r5, #92]	@ 0x5c
 8002b3c:	f042 0220 	orr.w	r2, r2, #32
 8002b40:	65ea      	str	r2, [r5, #92]	@ 0x5c
 8002b42:	4618      	mov	r0, r3
 8002b44:	e6b6      	b.n	80028b4 <HAL_ADC_ConfigChannel+0x14c>
 8002b46:	2002      	movs	r0, #2
 8002b48:	e6b7      	b.n	80028ba <HAL_ADC_ConfigChannel+0x152>
 8002b4a:	bf00      	nop
 8002b4c:	cb840000 	.word	0xcb840000
 8002b50:	50000100 	.word	0x50000100
 8002b54:	50000700 	.word	0x50000700

08002b58 <ADC_Enable>:
 8002b58:	b573      	push	{r0, r1, r4, r5, r6, lr}
 8002b5a:	6802      	ldr	r2, [r0, #0]
 8002b5c:	4604      	mov	r4, r0
 8002b5e:	2300      	movs	r3, #0
 8002b60:	4610      	mov	r0, r2
 8002b62:	9301      	str	r3, [sp, #4]
 8002b64:	f7ff fb50 	bl	8002208 <LL_ADC_IsEnabled>
 8002b68:	b110      	cbz	r0, 8002b70 <ADC_Enable+0x18>
 8002b6a:	2000      	movs	r0, #0
 8002b6c:	b002      	add	sp, #8
 8002b6e:	bd70      	pop	{r4, r5, r6, pc}
 8002b70:	6891      	ldr	r1, [r2, #8]
 8002b72:	4b26      	ldr	r3, [pc, #152]	@ (8002c0c <ADC_Enable+0xb4>)
 8002b74:	4219      	tst	r1, r3
 8002b76:	d009      	beq.n	8002b8c <ADC_Enable+0x34>
 8002b78:	6de3      	ldr	r3, [r4, #92]	@ 0x5c
 8002b7a:	f043 0310 	orr.w	r3, r3, #16
 8002b7e:	65e3      	str	r3, [r4, #92]	@ 0x5c
 8002b80:	6e23      	ldr	r3, [r4, #96]	@ 0x60
 8002b82:	f043 0301 	orr.w	r3, r3, #1
 8002b86:	6623      	str	r3, [r4, #96]	@ 0x60
 8002b88:	2001      	movs	r0, #1
 8002b8a:	e7ef      	b.n	8002b6c <ADC_Enable+0x14>
 8002b8c:	6893      	ldr	r3, [r2, #8]
 8002b8e:	f023 4300 	bic.w	r3, r3, #2147483648	@ 0x80000000
 8002b92:	f023 033f 	bic.w	r3, r3, #63	@ 0x3f
 8002b96:	f043 0301 	orr.w	r3, r3, #1
 8002b9a:	f1b2 4fa0 	cmp.w	r2, #1342177280	@ 0x50000000
 8002b9e:	6093      	str	r3, [r2, #8]
 8002ba0:	d023      	beq.n	8002bea <ADC_Enable+0x92>
 8002ba2:	481b      	ldr	r0, [pc, #108]	@ (8002c10 <ADC_Enable+0xb8>)
 8002ba4:	4b1b      	ldr	r3, [pc, #108]	@ (8002c14 <ADC_Enable+0xbc>)
 8002ba6:	491c      	ldr	r1, [pc, #112]	@ (8002c18 <ADC_Enable+0xc0>)
 8002ba8:	4282      	cmp	r2, r0
 8002baa:	bf18      	it	ne
 8002bac:	460b      	movne	r3, r1
 8002bae:	689b      	ldr	r3, [r3, #8]
 8002bb0:	0219      	lsls	r1, r3, #8
 8002bb2:	d41c      	bmi.n	8002bee <ADC_Enable+0x96>
 8002bb4:	f7ff fb12 	bl	80021dc <HAL_GetTick>
 8002bb8:	4e18      	ldr	r6, [pc, #96]	@ (8002c1c <ADC_Enable+0xc4>)
 8002bba:	4605      	mov	r5, r0
 8002bbc:	6822      	ldr	r2, [r4, #0]
 8002bbe:	6813      	ldr	r3, [r2, #0]
 8002bc0:	07db      	lsls	r3, r3, #31
 8002bc2:	d4d2      	bmi.n	8002b6a <ADC_Enable+0x12>
 8002bc4:	4610      	mov	r0, r2
 8002bc6:	f7ff fb1f 	bl	8002208 <LL_ADC_IsEnabled>
 8002bca:	b920      	cbnz	r0, 8002bd6 <ADC_Enable+0x7e>
 8002bcc:	6893      	ldr	r3, [r2, #8]
 8002bce:	4033      	ands	r3, r6
 8002bd0:	f043 0301 	orr.w	r3, r3, #1
 8002bd4:	6093      	str	r3, [r2, #8]
 8002bd6:	f7ff fb01 	bl	80021dc <HAL_GetTick>
 8002bda:	1b40      	subs	r0, r0, r5
 8002bdc:	2802      	cmp	r0, #2
 8002bde:	d9ed      	bls.n	8002bbc <ADC_Enable+0x64>
 8002be0:	6823      	ldr	r3, [r4, #0]
 8002be2:	681b      	ldr	r3, [r3, #0]
 8002be4:	07da      	lsls	r2, r3, #31
 8002be6:	d4e9      	bmi.n	8002bbc <ADC_Enable+0x64>
 8002be8:	e7c6      	b.n	8002b78 <ADC_Enable+0x20>
 8002bea:	4b0a      	ldr	r3, [pc, #40]	@ (8002c14 <ADC_Enable+0xbc>)
 8002bec:	e7df      	b.n	8002bae <ADC_Enable+0x56>
 8002bee:	4b0c      	ldr	r3, [pc, #48]	@ (8002c20 <ADC_Enable+0xc8>)
 8002bf0:	681a      	ldr	r2, [r3, #0]
 8002bf2:	4b0c      	ldr	r3, [pc, #48]	@ (8002c24 <ADC_Enable+0xcc>)
 8002bf4:	fbb2 f2f3 	udiv	r2, r2, r3
 8002bf8:	230c      	movs	r3, #12
 8002bfa:	fb02 3303 	mla	r3, r2, r3, r3
 8002bfe:	9301      	str	r3, [sp, #4]
 8002c00:	9b01      	ldr	r3, [sp, #4]
 8002c02:	2b00      	cmp	r3, #0
 8002c04:	d0d6      	beq.n	8002bb4 <ADC_Enable+0x5c>
 8002c06:	9b01      	ldr	r3, [sp, #4]
 8002c08:	3b01      	subs	r3, #1
 8002c0a:	e7f8      	b.n	8002bfe <ADC_Enable+0xa6>
 8002c0c:	8000003f 	.word	0x8000003f
 8002c10:	50000100 	.word	0x50000100
 8002c14:	50000300 	.word	0x50000300
 8002c18:	50000700 	.word	0x50000700
 8002c1c:	7fffffc0 	.word	0x7fffffc0
 8002c20:	200001e4 	.word	0x200001e4
 8002c24:	00030d40 	.word	0x00030d40

08002c28 <HAL_ADC_Start_DMA>:
 8002c28:	b5f8      	push	{r3, r4, r5, r6, r7, lr}
 8002c2a:	6803      	ldr	r3, [r0, #0]
 8002c2c:	f1b3 4fa0 	cmp.w	r3, #1342177280	@ 0x50000000
 8002c30:	4604      	mov	r4, r0
 8002c32:	460e      	mov	r6, r1
 8002c34:	4617      	mov	r7, r2
 8002c36:	d061      	beq.n	8002cfc <HAL_ADC_Start_DMA+0xd4>
 8002c38:	4834      	ldr	r0, [pc, #208]	@ (8002d0c <HAL_ADC_Start_DMA+0xe4>)
 8002c3a:	4a35      	ldr	r2, [pc, #212]	@ (8002d10 <HAL_ADC_Start_DMA+0xe8>)
 8002c3c:	4935      	ldr	r1, [pc, #212]	@ (8002d14 <HAL_ADC_Start_DMA+0xec>)
 8002c3e:	4283      	cmp	r3, r0
 8002c40:	bf18      	it	ne
 8002c42:	460a      	movne	r2, r1
 8002c44:	4618      	mov	r0, r3
 8002c46:	6895      	ldr	r5, [r2, #8]
 8002c48:	f7ff fae2 	bl	8002210 <LL_ADC_REG_IsConversionOngoing>
 8002c4c:	2800      	cmp	r0, #0
 8002c4e:	d15b      	bne.n	8002d08 <HAL_ADC_Start_DMA+0xe0>
 8002c50:	f894 1058 	ldrb.w	r1, [r4, #88]	@ 0x58
 8002c54:	2901      	cmp	r1, #1
 8002c56:	d057      	beq.n	8002d08 <HAL_ADC_Start_DMA+0xe0>
 8002c58:	4a2f      	ldr	r2, [pc, #188]	@ (8002d18 <HAL_ADC_Start_DMA+0xf0>)
 8002c5a:	2001      	movs	r0, #1
 8002c5c:	4293      	cmp	r3, r2
 8002c5e:	f005 051f 	and.w	r5, r5, #31
 8002c62:	f884 0058 	strb.w	r0, [r4, #88]	@ 0x58
 8002c66:	d004      	beq.n	8002c72 <HAL_ADC_Start_DMA+0x4a>
 8002c68:	f240 2321 	movw	r3, #545	@ 0x221
 8002c6c:	40eb      	lsrs	r3, r5
 8002c6e:	4003      	ands	r3, r0
 8002c70:	d047      	beq.n	8002d02 <HAL_ADC_Start_DMA+0xda>
 8002c72:	4620      	mov	r0, r4
 8002c74:	f7ff ff70 	bl	8002b58 <ADC_Enable>
 8002c78:	2800      	cmp	r0, #0
 8002c7a:	d141      	bne.n	8002d00 <HAL_ADC_Start_DMA+0xd8>
 8002c7c:	6de0      	ldr	r0, [r4, #92]	@ 0x5c
 8002c7e:	6821      	ldr	r1, [r4, #0]
 8002c80:	4b22      	ldr	r3, [pc, #136]	@ (8002d0c <HAL_ADC_Start_DMA+0xe4>)
 8002c82:	f420 6070 	bic.w	r0, r0, #3840	@ 0xf00
 8002c86:	f020 0001 	bic.w	r0, r0, #1
 8002c8a:	f440 7080 	orr.w	r0, r0, #256	@ 0x100
 8002c8e:	4299      	cmp	r1, r3
 8002c90:	65e0      	str	r0, [r4, #92]	@ 0x5c
 8002c92:	d003      	beq.n	8002c9c <HAL_ADC_Start_DMA+0x74>
 8002c94:	f503 6380 	add.w	r3, r3, #1024	@ 0x400
 8002c98:	4299      	cmp	r1, r3
 8002c9a:	d100      	bne.n	8002c9e <HAL_ADC_Start_DMA+0x76>
 8002c9c:	b91d      	cbnz	r5, 8002ca6 <HAL_ADC_Start_DMA+0x7e>
 8002c9e:	6de3      	ldr	r3, [r4, #92]	@ 0x5c
 8002ca0:	f423 1380 	bic.w	r3, r3, #1048576	@ 0x100000
 8002ca4:	65e3      	str	r3, [r4, #92]	@ 0x5c
 8002ca6:	6de3      	ldr	r3, [r4, #92]	@ 0x5c
 8002ca8:	6d60      	ldr	r0, [r4, #84]	@ 0x54
 8002caa:	f413 5380 	ands.w	r3, r3, #4096	@ 0x1000
 8002cae:	bf1c      	itt	ne
 8002cb0:	6e23      	ldrne	r3, [r4, #96]	@ 0x60
 8002cb2:	f023 0306 	bicne.w	r3, r3, #6
 8002cb6:	6623      	str	r3, [r4, #96]	@ 0x60
 8002cb8:	4b18      	ldr	r3, [pc, #96]	@ (8002d1c <HAL_ADC_Start_DMA+0xf4>)
 8002cba:	62c3      	str	r3, [r0, #44]	@ 0x2c
 8002cbc:	4b18      	ldr	r3, [pc, #96]	@ (8002d20 <HAL_ADC_Start_DMA+0xf8>)
 8002cbe:	6303      	str	r3, [r0, #48]	@ 0x30
 8002cc0:	4b18      	ldr	r3, [pc, #96]	@ (8002d24 <HAL_ADC_Start_DMA+0xfc>)
 8002cc2:	6343      	str	r3, [r0, #52]	@ 0x34
 8002cc4:	231c      	movs	r3, #28
 8002cc6:	600b      	str	r3, [r1, #0]
 8002cc8:	2300      	movs	r3, #0
 8002cca:	f884 3058 	strb.w	r3, [r4, #88]	@ 0x58
 8002cce:	684b      	ldr	r3, [r1, #4]
 8002cd0:	f043 0310 	orr.w	r3, r3, #16
 8002cd4:	604b      	str	r3, [r1, #4]
 8002cd6:	68cb      	ldr	r3, [r1, #12]
 8002cd8:	f043 0301 	orr.w	r3, r3, #1
 8002cdc:	60cb      	str	r3, [r1, #12]
 8002cde:	4632      	mov	r2, r6
 8002ce0:	463b      	mov	r3, r7
 8002ce2:	3140      	adds	r1, #64	@ 0x40
 8002ce4:	f000 fb8c 	bl	8003400 <HAL_DMA_Start_IT>
 8002ce8:	6822      	ldr	r2, [r4, #0]
 8002cea:	6893      	ldr	r3, [r2, #8]
 8002cec:	f023 4300 	bic.w	r3, r3, #2147483648	@ 0x80000000
 8002cf0:	f023 033f 	bic.w	r3, r3, #63	@ 0x3f
 8002cf4:	f043 0304 	orr.w	r3, r3, #4
 8002cf8:	6093      	str	r3, [r2, #8]
 8002cfa:	bdf8      	pop	{r3, r4, r5, r6, r7, pc}
 8002cfc:	4a04      	ldr	r2, [pc, #16]	@ (8002d10 <HAL_ADC_Start_DMA+0xe8>)
 8002cfe:	e7a1      	b.n	8002c44 <HAL_ADC_Start_DMA+0x1c>
 8002d00:	2300      	movs	r3, #0
 8002d02:	f884 3058 	strb.w	r3, [r4, #88]	@ 0x58
 8002d06:	e7f8      	b.n	8002cfa <HAL_ADC_Start_DMA+0xd2>
 8002d08:	2002      	movs	r0, #2
 8002d0a:	e7f6      	b.n	8002cfa <HAL_ADC_Start_DMA+0xd2>
 8002d0c:	50000100 	.word	0x50000100
 8002d10:	50000300 	.word	0x50000300
 8002d14:	50000700 	.word	0x50000700
 8002d18:	50000600 	.word	0x50000600
 8002d1c:	080026e5 	.word	0x080026e5
 8002d20:	0800243f 	.word	0x0800243f
 8002d24:	0800274d 	.word	0x0800274d

08002d28 <ADC_Disable>:
 8002d28:	6802      	ldr	r2, [r0, #0]
 8002d2a:	b538      	push	{r3, r4, r5, lr}
 8002d2c:	4604      	mov	r4, r0
 8002d2e:	4610      	mov	r0, r2
 8002d30:	6893      	ldr	r3, [r2, #8]
 8002d32:	f7ff fa69 	bl	8002208 <LL_ADC_IsEnabled>
 8002d36:	b908      	cbnz	r0, 8002d3c <ADC_Disable+0x14>
 8002d38:	2000      	movs	r0, #0
 8002d3a:	bd38      	pop	{r3, r4, r5, pc}
 8002d3c:	0799      	lsls	r1, r3, #30
 8002d3e:	d4fb      	bmi.n	8002d38 <ADC_Disable+0x10>
 8002d40:	6893      	ldr	r3, [r2, #8]
 8002d42:	f003 030d 	and.w	r3, r3, #13
 8002d46:	2b01      	cmp	r3, #1
 8002d48:	d119      	bne.n	8002d7e <ADC_Disable+0x56>
 8002d4a:	6893      	ldr	r3, [r2, #8]
 8002d4c:	f023 4300 	bic.w	r3, r3, #2147483648	@ 0x80000000
 8002d50:	f023 033f 	bic.w	r3, r3, #63	@ 0x3f
 8002d54:	f043 0302 	orr.w	r3, r3, #2
 8002d58:	6093      	str	r3, [r2, #8]
 8002d5a:	2303      	movs	r3, #3
 8002d5c:	6013      	str	r3, [r2, #0]
 8002d5e:	f7ff fa3d 	bl	80021dc <HAL_GetTick>
 8002d62:	4605      	mov	r5, r0
 8002d64:	6823      	ldr	r3, [r4, #0]
 8002d66:	689b      	ldr	r3, [r3, #8]
 8002d68:	07db      	lsls	r3, r3, #31
 8002d6a:	d5e5      	bpl.n	8002d38 <ADC_Disable+0x10>
 8002d6c:	f7ff fa36 	bl	80021dc <HAL_GetTick>
 8002d70:	1b40      	subs	r0, r0, r5
 8002d72:	2802      	cmp	r0, #2
 8002d74:	d9f6      	bls.n	8002d64 <ADC_Disable+0x3c>
 8002d76:	6823      	ldr	r3, [r4, #0]
 8002d78:	689b      	ldr	r3, [r3, #8]
 8002d7a:	07da      	lsls	r2, r3, #31
 8002d7c:	d5f2      	bpl.n	8002d64 <ADC_Disable+0x3c>
 8002d7e:	6de3      	ldr	r3, [r4, #92]	@ 0x5c
 8002d80:	f043 0310 	orr.w	r3, r3, #16
 8002d84:	65e3      	str	r3, [r4, #92]	@ 0x5c
 8002d86:	6e23      	ldr	r3, [r4, #96]	@ 0x60
 8002d88:	f043 0301 	orr.w	r3, r3, #1
 8002d8c:	6623      	str	r3, [r4, #96]	@ 0x60
 8002d8e:	2001      	movs	r0, #1
 8002d90:	e7d3      	b.n	8002d3a <ADC_Disable+0x12>

08002d92 <LL_ADC_IsEnabled>:
 8002d92:	6880      	ldr	r0, [r0, #8]
 8002d94:	f000 0001 	and.w	r0, r0, #1
 8002d98:	4770      	bx	lr

08002d9a <LL_ADC_REG_IsConversionOngoing>:
 8002d9a:	6880      	ldr	r0, [r0, #8]
 8002d9c:	f3c0 0080 	ubfx	r0, r0, #2, #1
 8002da0:	4770      	bx	lr
	...

08002da4 <HAL_ADCEx_Calibration_Start>:
 8002da4:	b537      	push	{r0, r1, r2, r4, r5, lr}
 8002da6:	2300      	movs	r3, #0
 8002da8:	9301      	str	r3, [sp, #4]
 8002daa:	f890 3058 	ldrb.w	r3, [r0, #88]	@ 0x58
 8002dae:	2b01      	cmp	r3, #1
 8002db0:	4604      	mov	r4, r0
 8002db2:	460d      	mov	r5, r1
 8002db4:	d03d      	beq.n	8002e32 <HAL_ADCEx_Calibration_Start+0x8e>
 8002db6:	2301      	movs	r3, #1
 8002db8:	f880 3058 	strb.w	r3, [r0, #88]	@ 0x58
 8002dbc:	f7ff ffb4 	bl	8002d28 <ADC_Disable>
 8002dc0:	6de3      	ldr	r3, [r4, #92]	@ 0x5c
 8002dc2:	2800      	cmp	r0, #0
 8002dc4:	d132      	bne.n	8002e2c <HAL_ADCEx_Calibration_Start+0x88>
 8002dc6:	f423 5388 	bic.w	r3, r3, #4352	@ 0x1100
 8002dca:	f023 0302 	bic.w	r3, r3, #2
 8002dce:	6822      	ldr	r2, [r4, #0]
 8002dd0:	f043 0302 	orr.w	r3, r3, #2
 8002dd4:	65e3      	str	r3, [r4, #92]	@ 0x5c
 8002dd6:	6893      	ldr	r3, [r2, #8]
 8002dd8:	f023 4340 	bic.w	r3, r3, #3221225472	@ 0xc0000000
 8002ddc:	f023 033f 	bic.w	r3, r3, #63	@ 0x3f
 8002de0:	f005 4580 	and.w	r5, r5, #1073741824	@ 0x40000000
 8002de4:	432b      	orrs	r3, r5
 8002de6:	f043 4300 	orr.w	r3, r3, #2147483648	@ 0x80000000
 8002dea:	6093      	str	r3, [r2, #8]
 8002dec:	6893      	ldr	r3, [r2, #8]
 8002dee:	2b00      	cmp	r3, #0
 8002df0:	da12      	bge.n	8002e18 <HAL_ADCEx_Calibration_Start+0x74>
 8002df2:	9b01      	ldr	r3, [sp, #4]
 8002df4:	3301      	adds	r3, #1
 8002df6:	9301      	str	r3, [sp, #4]
 8002df8:	9901      	ldr	r1, [sp, #4]
 8002dfa:	4b0f      	ldr	r3, [pc, #60]	@ (8002e38 <HAL_ADCEx_Calibration_Start+0x94>)
 8002dfc:	4299      	cmp	r1, r3
 8002dfe:	d9f5      	bls.n	8002dec <HAL_ADCEx_Calibration_Start+0x48>
 8002e00:	6de3      	ldr	r3, [r4, #92]	@ 0x5c
 8002e02:	f023 0312 	bic.w	r3, r3, #18
 8002e06:	f043 0310 	orr.w	r3, r3, #16
 8002e0a:	65e3      	str	r3, [r4, #92]	@ 0x5c
 8002e0c:	2300      	movs	r3, #0
 8002e0e:	f884 3058 	strb.w	r3, [r4, #88]	@ 0x58
 8002e12:	2001      	movs	r0, #1
 8002e14:	b003      	add	sp, #12
 8002e16:	bd30      	pop	{r4, r5, pc}
 8002e18:	6de3      	ldr	r3, [r4, #92]	@ 0x5c
 8002e1a:	f023 0303 	bic.w	r3, r3, #3
 8002e1e:	f043 0301 	orr.w	r3, r3, #1
 8002e22:	65e3      	str	r3, [r4, #92]	@ 0x5c
 8002e24:	2300      	movs	r3, #0
 8002e26:	f884 3058 	strb.w	r3, [r4, #88]	@ 0x58
 8002e2a:	e7f3      	b.n	8002e14 <HAL_ADCEx_Calibration_Start+0x70>
 8002e2c:	f043 0310 	orr.w	r3, r3, #16
 8002e30:	e7f7      	b.n	8002e22 <HAL_ADCEx_Calibration_Start+0x7e>
 8002e32:	2002      	movs	r0, #2
 8002e34:	e7ee      	b.n	8002e14 <HAL_ADCEx_Calibration_Start+0x70>
 8002e36:	bf00      	nop
 8002e38:	0004de01 	.word	0x0004de01

08002e3c <HAL_ADCEx_InjectedConvCpltCallback>:
 8002e3c:	4770      	bx	lr

08002e3e <HAL_ADCEx_InjectedQueueOverflowCallback>:
 8002e3e:	4770      	bx	lr

08002e40 <HAL_ADCEx_LevelOutOfWindow2Callback>:
 8002e40:	4770      	bx	lr

08002e42 <HAL_ADCEx_LevelOutOfWindow3Callback>:
 8002e42:	4770      	bx	lr

08002e44 <HAL_ADCEx_EndOfSamplingCallback>:
 8002e44:	4770      	bx	lr
	...

08002e48 <HAL_ADCEx_MultiModeConfigChannel>:
 8002e48:	b5f0      	push	{r4, r5, r6, r7, lr}
 8002e4a:	f890 2058 	ldrb.w	r2, [r0, #88]	@ 0x58
 8002e4e:	2a01      	cmp	r2, #1
 8002e50:	b09d      	sub	sp, #116	@ 0x74
 8002e52:	4603      	mov	r3, r0
 8002e54:	f000 8082 	beq.w	8002f5c <HAL_ADCEx_MultiModeConfigChannel+0x114>
 8002e58:	681c      	ldr	r4, [r3, #0]
 8002e5a:	2200      	movs	r2, #0
 8002e5c:	2001      	movs	r0, #1
 8002e5e:	f1b4 4fa0 	cmp.w	r4, #1342177280	@ 0x50000000
 8002e62:	9218      	str	r2, [sp, #96]	@ 0x60
 8002e64:	f883 0058 	strb.w	r0, [r3, #88]	@ 0x58
 8002e68:	9219      	str	r2, [sp, #100]	@ 0x64
 8002e6a:	d00a      	beq.n	8002e82 <HAL_ADCEx_MultiModeConfigChannel+0x3a>
 8002e6c:	4d3c      	ldr	r5, [pc, #240]	@ (8002f60 <HAL_ADCEx_MultiModeConfigChannel+0x118>)
 8002e6e:	42ac      	cmp	r4, r5
 8002e70:	d034      	beq.n	8002edc <HAL_ADCEx_MultiModeConfigChannel+0x94>
 8002e72:	6dd9      	ldr	r1, [r3, #92]	@ 0x5c
 8002e74:	f041 0120 	orr.w	r1, r1, #32
 8002e78:	65d9      	str	r1, [r3, #92]	@ 0x5c
 8002e7a:	f883 2058 	strb.w	r2, [r3, #88]	@ 0x58
 8002e7e:	b01d      	add	sp, #116	@ 0x74
 8002e80:	bdf0      	pop	{r4, r5, r6, r7, pc}
 8002e82:	4838      	ldr	r0, [pc, #224]	@ (8002f64 <HAL_ADCEx_MultiModeConfigChannel+0x11c>)
 8002e84:	f7ff ff89 	bl	8002d9a <LL_ADC_REG_IsConversionOngoing>
 8002e88:	4602      	mov	r2, r0
 8002e8a:	4620      	mov	r0, r4
 8002e8c:	f7ff ff85 	bl	8002d9a <LL_ADC_REG_IsConversionOngoing>
 8002e90:	4310      	orrs	r0, r2
 8002e92:	d15d      	bne.n	8002f50 <HAL_ADCEx_MultiModeConfigChannel+0x108>
 8002e94:	4a34      	ldr	r2, [pc, #208]	@ (8002f68 <HAL_ADCEx_MultiModeConfigChannel+0x120>)
 8002e96:	4835      	ldr	r0, [pc, #212]	@ (8002f6c <HAL_ADCEx_MultiModeConfigChannel+0x124>)
 8002e98:	680d      	ldr	r5, [r1, #0]
 8002e9a:	f1b4 4fa0 	cmp.w	r4, #1342177280	@ 0x50000000
 8002e9e:	bf18      	it	ne
 8002ea0:	4602      	movne	r2, r0
 8002ea2:	b38d      	cbz	r5, 8002f08 <HAL_ADCEx_MultiModeConfigChannel+0xc0>
 8002ea4:	6896      	ldr	r6, [r2, #8]
 8002ea6:	f893 7038 	ldrb.w	r7, [r3, #56]	@ 0x38
 8002eaa:	6848      	ldr	r0, [r1, #4]
 8002eac:	f426 4660 	bic.w	r6, r6, #57344	@ 0xe000
 8002eb0:	ea40 3047 	orr.w	r0, r0, r7, lsl #13
 8002eb4:	4330      	orrs	r0, r6
 8002eb6:	f1b4 4fa0 	cmp.w	r4, #1342177280	@ 0x50000000
 8002eba:	6090      	str	r0, [r2, #8]
 8002ebc:	d110      	bne.n	8002ee0 <HAL_ADCEx_MultiModeConfigChannel+0x98>
 8002ebe:	4620      	mov	r0, r4
 8002ec0:	f7ff ff67 	bl	8002d92 <LL_ADC_IsEnabled>
 8002ec4:	4604      	mov	r4, r0
 8002ec6:	4827      	ldr	r0, [pc, #156]	@ (8002f64 <HAL_ADCEx_MultiModeConfigChannel+0x11c>)
 8002ec8:	f7ff ff63 	bl	8002d92 <LL_ADC_IsEnabled>
 8002ecc:	4304      	orrs	r4, r0
 8002ece:	bf0c      	ite	eq
 8002ed0:	2001      	moveq	r0, #1
 8002ed2:	2000      	movne	r0, #0
 8002ed4:	b970      	cbnz	r0, 8002ef4 <HAL_ADCEx_MultiModeConfigChannel+0xac>
 8002ed6:	2000      	movs	r0, #0
 8002ed8:	2200      	movs	r2, #0
 8002eda:	e7ce      	b.n	8002e7a <HAL_ADCEx_MultiModeConfigChannel+0x32>
 8002edc:	4824      	ldr	r0, [pc, #144]	@ (8002f70 <HAL_ADCEx_MultiModeConfigChannel+0x128>)
 8002ede:	e7d1      	b.n	8002e84 <HAL_ADCEx_MultiModeConfigChannel+0x3c>
 8002ee0:	481f      	ldr	r0, [pc, #124]	@ (8002f60 <HAL_ADCEx_MultiModeConfigChannel+0x118>)
 8002ee2:	f7ff ff56 	bl	8002d92 <LL_ADC_IsEnabled>
 8002ee6:	4604      	mov	r4, r0
 8002ee8:	4821      	ldr	r0, [pc, #132]	@ (8002f70 <HAL_ADCEx_MultiModeConfigChannel+0x128>)
 8002eea:	f7ff ff52 	bl	8002d92 <LL_ADC_IsEnabled>
 8002eee:	4304      	orrs	r4, r0
 8002ef0:	4820      	ldr	r0, [pc, #128]	@ (8002f74 <HAL_ADCEx_MultiModeConfigChannel+0x12c>)
 8002ef2:	e7e9      	b.n	8002ec8 <HAL_ADCEx_MultiModeConfigChannel+0x80>
 8002ef4:	6890      	ldr	r0, [r2, #8]
 8002ef6:	6889      	ldr	r1, [r1, #8]
 8002ef8:	f420 6071 	bic.w	r0, r0, #3856	@ 0xf10
 8002efc:	4329      	orrs	r1, r5
 8002efe:	f020 000f 	bic.w	r0, r0, #15
 8002f02:	4301      	orrs	r1, r0
 8002f04:	6091      	str	r1, [r2, #8]
 8002f06:	e7e6      	b.n	8002ed6 <HAL_ADCEx_MultiModeConfigChannel+0x8e>
 8002f08:	6891      	ldr	r1, [r2, #8]
 8002f0a:	f1b4 4fa0 	cmp.w	r4, #1342177280	@ 0x50000000
 8002f0e:	f421 4160 	bic.w	r1, r1, #57344	@ 0xe000
 8002f12:	6091      	str	r1, [r2, #8]
 8002f14:	d112      	bne.n	8002f3c <HAL_ADCEx_MultiModeConfigChannel+0xf4>
 8002f16:	4620      	mov	r0, r4
 8002f18:	f7ff ff3b 	bl	8002d92 <LL_ADC_IsEnabled>
 8002f1c:	4601      	mov	r1, r0
 8002f1e:	4811      	ldr	r0, [pc, #68]	@ (8002f64 <HAL_ADCEx_MultiModeConfigChannel+0x11c>)
 8002f20:	f7ff ff37 	bl	8002d92 <LL_ADC_IsEnabled>
 8002f24:	4301      	orrs	r1, r0
 8002f26:	bf0c      	ite	eq
 8002f28:	2101      	moveq	r1, #1
 8002f2a:	2100      	movne	r1, #0
 8002f2c:	2900      	cmp	r1, #0
 8002f2e:	d0d2      	beq.n	8002ed6 <HAL_ADCEx_MultiModeConfigChannel+0x8e>
 8002f30:	6891      	ldr	r1, [r2, #8]
 8002f32:	f421 6171 	bic.w	r1, r1, #3856	@ 0xf10
 8002f36:	f021 010f 	bic.w	r1, r1, #15
 8002f3a:	e7e3      	b.n	8002f04 <HAL_ADCEx_MultiModeConfigChannel+0xbc>
 8002f3c:	4808      	ldr	r0, [pc, #32]	@ (8002f60 <HAL_ADCEx_MultiModeConfigChannel+0x118>)
 8002f3e:	f7ff ff28 	bl	8002d92 <LL_ADC_IsEnabled>
 8002f42:	4601      	mov	r1, r0
 8002f44:	480a      	ldr	r0, [pc, #40]	@ (8002f70 <HAL_ADCEx_MultiModeConfigChannel+0x128>)
 8002f46:	f7ff ff24 	bl	8002d92 <LL_ADC_IsEnabled>
 8002f4a:	4301      	orrs	r1, r0
 8002f4c:	4809      	ldr	r0, [pc, #36]	@ (8002f74 <HAL_ADCEx_MultiModeConfigChannel+0x12c>)
 8002f4e:	e7e7      	b.n	8002f20 <HAL_ADCEx_MultiModeConfigChannel+0xd8>
 8002f50:	6dda      	ldr	r2, [r3, #92]	@ 0x5c
 8002f52:	f042 0220 	orr.w	r2, r2, #32
 8002f56:	65da      	str	r2, [r3, #92]	@ 0x5c
 8002f58:	2001      	movs	r0, #1
 8002f5a:	e7bd      	b.n	8002ed8 <HAL_ADCEx_MultiModeConfigChannel+0x90>
 8002f5c:	2002      	movs	r0, #2
 8002f5e:	e78e      	b.n	8002e7e <HAL_ADCEx_MultiModeConfigChannel+0x36>
 8002f60:	50000400 	.word	0x50000400
 8002f64:	50000100 	.word	0x50000100
 8002f68:	50000300 	.word	0x50000300
 8002f6c:	50000700 	.word	0x50000700
 8002f70:	50000500 	.word	0x50000500
 8002f74:	50000600 	.word	0x50000600

08002f78 <HAL_NVIC_SetPriorityGrouping>:
 8002f78:	4907      	ldr	r1, [pc, #28]	@ (8002f98 <HAL_NVIC_SetPriorityGrouping+0x20>)
 8002f7a:	68ca      	ldr	r2, [r1, #12]
 8002f7c:	f422 62e0 	bic.w	r2, r2, #1792	@ 0x700
 8002f80:	0203      	lsls	r3, r0, #8
 8002f82:	0412      	lsls	r2, r2, #16
 8002f84:	f403 63e0 	and.w	r3, r3, #1792	@ 0x700
 8002f88:	0c12      	lsrs	r2, r2, #16
 8002f8a:	4313      	orrs	r3, r2
 8002f8c:	f043 63bf 	orr.w	r3, r3, #100139008	@ 0x5f80000
 8002f90:	f443 3300 	orr.w	r3, r3, #131072	@ 0x20000
 8002f94:	60cb      	str	r3, [r1, #12]
 8002f96:	4770      	bx	lr
 8002f98:	e000ed00 	.word	0xe000ed00

08002f9c <HAL_NVIC_SetPriority>:
 8002f9c:	4b16      	ldr	r3, [pc, #88]	@ (8002ff8 <HAL_NVIC_SetPriority+0x5c>)
 8002f9e:	b530      	push	{r4, r5, lr}
 8002fa0:	68dc      	ldr	r4, [r3, #12]
 8002fa2:	f3c4 2402 	ubfx	r4, r4, #8, #3
 8002fa6:	f1c4 0307 	rsb	r3, r4, #7
 8002faa:	1d25      	adds	r5, r4, #4
 8002fac:	2b04      	cmp	r3, #4
 8002fae:	bf28      	it	cs
 8002fb0:	2304      	movcs	r3, #4
 8002fb2:	2d06      	cmp	r5, #6
 8002fb4:	f04f 35ff 	mov.w	r5, #4294967295
 8002fb8:	bf8c      	ite	hi
 8002fba:	3c03      	subhi	r4, #3
 8002fbc:	2400      	movls	r4, #0
 8002fbe:	fa05 f303 	lsl.w	r3, r5, r3
 8002fc2:	ea21 0303 	bic.w	r3, r1, r3
 8002fc6:	40a5      	lsls	r5, r4
 8002fc8:	ea22 0205 	bic.w	r2, r2, r5
 8002fcc:	40a3      	lsls	r3, r4
 8002fce:	2800      	cmp	r0, #0
 8002fd0:	ea43 0302 	orr.w	r3, r3, r2
 8002fd4:	bfac      	ite	ge
 8002fd6:	f100 4060 	addge.w	r0, r0, #3758096384	@ 0xe0000000
 8002fda:	4a08      	ldrlt	r2, [pc, #32]	@ (8002ffc <HAL_NVIC_SetPriority+0x60>)
 8002fdc:	ea4f 1303 	mov.w	r3, r3, lsl #4
 8002fe0:	bfb8      	it	lt
 8002fe2:	f000 000f 	andlt.w	r0, r0, #15
 8002fe6:	b2db      	uxtb	r3, r3
 8002fe8:	bfaa      	itet	ge
 8002fea:	f500 4061 	addge.w	r0, r0, #57600	@ 0xe100
 8002fee:	5413      	strblt	r3, [r2, r0]
 8002ff0:	f880 3300 	strbge.w	r3, [r0, #768]	@ 0x300
 8002ff4:	bd30      	pop	{r4, r5, pc}
 8002ff6:	bf00      	nop
 8002ff8:	e000ed00 	.word	0xe000ed00
 8002ffc:	e000ed14 	.word	0xe000ed14

08003000 <HAL_NVIC_EnableIRQ>:
 8003000:	2800      	cmp	r0, #0
 8003002:	db07      	blt.n	8003014 <HAL_NVIC_EnableIRQ+0x14>
 8003004:	4a04      	ldr	r2, [pc, #16]	@ (8003018 <HAL_NVIC_EnableIRQ+0x18>)
 8003006:	0941      	lsrs	r1, r0, #5
 8003008:	2301      	movs	r3, #1
 800300a:	f000 001f 	and.w	r0, r0, #31
 800300e:	4083      	lsls	r3, r0
 8003010:	f842 3021 	str.w	r3, [r2, r1, lsl #2]
 8003014:	4770      	bx	lr
 8003016:	bf00      	nop
 8003018:	e000e100 	.word	0xe000e100

0800301c <HAL_DAC_Init>:
 800301c:	b510      	push	{r4, lr}
 800301e:	4604      	mov	r4, r0
 8003020:	b168      	cbz	r0, 800303e <HAL_DAC_Init+0x22>
 8003022:	7903      	ldrb	r3, [r0, #4]
 8003024:	f003 02ff 	and.w	r2, r3, #255	@ 0xff
 8003028:	b913      	cbnz	r3, 8003030 <HAL_DAC_Init+0x14>
 800302a:	7142      	strb	r2, [r0, #5]
 800302c:	f7fe fc44 	bl	80018b8 <HAL_DAC_MspInit>
 8003030:	2302      	movs	r3, #2
 8003032:	7123      	strb	r3, [r4, #4]
 8003034:	2000      	movs	r0, #0
 8003036:	2301      	movs	r3, #1
 8003038:	6120      	str	r0, [r4, #16]
 800303a:	7123      	strb	r3, [r4, #4]
 800303c:	bd10      	pop	{r4, pc}
 800303e:	2001      	movs	r0, #1
 8003040:	e7fc      	b.n	800303c <HAL_DAC_Init+0x20>
	...

08003044 <HAL_DAC_Start>:
 8003044:	b537      	push	{r0, r1, r2, r4, r5, lr}
 8003046:	4603      	mov	r3, r0
 8003048:	2800      	cmp	r0, #0
 800304a:	d034      	beq.n	80030b6 <HAL_DAC_Start+0x72>
 800304c:	7942      	ldrb	r2, [r0, #5]
 800304e:	2a01      	cmp	r2, #1
 8003050:	f04f 0002 	mov.w	r0, #2
 8003054:	d01f      	beq.n	8003096 <HAL_DAC_Start+0x52>
 8003056:	681a      	ldr	r2, [r3, #0]
 8003058:	7118      	strb	r0, [r3, #4]
 800305a:	6815      	ldr	r5, [r2, #0]
 800305c:	f001 0410 	and.w	r4, r1, #16
 8003060:	2001      	movs	r0, #1
 8003062:	40a0      	lsls	r0, r4
 8003064:	4328      	orrs	r0, r5
 8003066:	6010      	str	r0, [r2, #0]
 8003068:	4814      	ldr	r0, [pc, #80]	@ (80030bc <HAL_DAC_Start+0x78>)
 800306a:	4d15      	ldr	r5, [pc, #84]	@ (80030c0 <HAL_DAC_Start+0x7c>)
 800306c:	6800      	ldr	r0, [r0, #0]
 800306e:	fbb0 f0f5 	udiv	r0, r0, r5
 8003072:	3001      	adds	r0, #1
 8003074:	9001      	str	r0, [sp, #4]
 8003076:	9801      	ldr	r0, [sp, #4]
 8003078:	b978      	cbnz	r0, 800309a <HAL_DAC_Start+0x56>
 800307a:	b989      	cbnz	r1, 80030a0 <HAL_DAC_Start+0x5c>
 800307c:	6811      	ldr	r1, [r2, #0]
 800307e:	f001 013e 	and.w	r1, r1, #62	@ 0x3e
 8003082:	2902      	cmp	r1, #2
 8003084:	d103      	bne.n	800308e <HAL_DAC_Start+0x4a>
 8003086:	6851      	ldr	r1, [r2, #4]
 8003088:	f041 0101 	orr.w	r1, r1, #1
 800308c:	6051      	str	r1, [r2, #4]
 800308e:	2201      	movs	r2, #1
 8003090:	2000      	movs	r0, #0
 8003092:	711a      	strb	r2, [r3, #4]
 8003094:	7158      	strb	r0, [r3, #5]
 8003096:	b003      	add	sp, #12
 8003098:	bd30      	pop	{r4, r5, pc}
 800309a:	9801      	ldr	r0, [sp, #4]
 800309c:	3801      	subs	r0, #1
 800309e:	e7e9      	b.n	8003074 <HAL_DAC_Start+0x30>
 80030a0:	6810      	ldr	r0, [r2, #0]
 80030a2:	2102      	movs	r1, #2
 80030a4:	f400 1078 	and.w	r0, r0, #4063232	@ 0x3e0000
 80030a8:	40a1      	lsls	r1, r4
 80030aa:	4288      	cmp	r0, r1
 80030ac:	d1ef      	bne.n	800308e <HAL_DAC_Start+0x4a>
 80030ae:	6851      	ldr	r1, [r2, #4]
 80030b0:	f041 0102 	orr.w	r1, r1, #2
 80030b4:	e7ea      	b.n	800308c <HAL_DAC_Start+0x48>
 80030b6:	2001      	movs	r0, #1
 80030b8:	e7ed      	b.n	8003096 <HAL_DAC_Start+0x52>
 80030ba:	bf00      	nop
 80030bc:	200001e4 	.word	0x200001e4
 80030c0:	00030d40 	.word	0x00030d40

080030c4 <HAL_DAC_SetValue>:
 80030c4:	b513      	push	{r0, r1, r4, lr}
 80030c6:	2400      	movs	r4, #0
 80030c8:	9401      	str	r4, [sp, #4]
 80030ca:	b178      	cbz	r0, 80030ec <HAL_DAC_SetValue+0x28>
 80030cc:	6800      	ldr	r0, [r0, #0]
 80030ce:	6bc4      	ldr	r4, [r0, #60]	@ 0x3c
 80030d0:	9001      	str	r0, [sp, #4]
 80030d2:	b941      	cbnz	r1, 80030e6 <HAL_DAC_SetValue+0x22>
 80030d4:	9901      	ldr	r1, [sp, #4]
 80030d6:	3108      	adds	r1, #8
 80030d8:	440a      	add	r2, r1
 80030da:	9201      	str	r2, [sp, #4]
 80030dc:	9a01      	ldr	r2, [sp, #4]
 80030de:	2000      	movs	r0, #0
 80030e0:	6013      	str	r3, [r2, #0]
 80030e2:	b002      	add	sp, #8
 80030e4:	bd10      	pop	{r4, pc}
 80030e6:	9901      	ldr	r1, [sp, #4]
 80030e8:	3114      	adds	r1, #20
 80030ea:	e7f5      	b.n	80030d8 <HAL_DAC_SetValue+0x14>
 80030ec:	2001      	movs	r0, #1
 80030ee:	e7f8      	b.n	80030e2 <HAL_DAC_SetValue+0x1e>

080030f0 <HAL_DAC_ConfigChannel>:
 80030f0:	e92d 41f0 	stmdb	sp!, {r4, r5, r6, r7, r8, lr}
 80030f4:	460d      	mov	r5, r1
 80030f6:	4616      	mov	r6, r2
 80030f8:	4604      	mov	r4, r0
 80030fa:	2800      	cmp	r0, #0
 80030fc:	f000 80cd 	beq.w	800329a <HAL_DAC_ConfigChannel+0x1aa>
 8003100:	2900      	cmp	r1, #0
 8003102:	f000 80ca 	beq.w	800329a <HAL_DAC_ConfigChannel+0x1aa>
 8003106:	7942      	ldrb	r2, [r0, #5]
 8003108:	688b      	ldr	r3, [r1, #8]
 800310a:	2a01      	cmp	r2, #1
 800310c:	f04f 0002 	mov.w	r0, #2
 8003110:	d020      	beq.n	8003154 <HAL_DAC_ConfigChannel+0x64>
 8003112:	2201      	movs	r2, #1
 8003114:	2b04      	cmp	r3, #4
 8003116:	7162      	strb	r2, [r4, #5]
 8003118:	7120      	strb	r0, [r4, #4]
 800311a:	d139      	bne.n	8003190 <HAL_DAC_ConfigChannel+0xa0>
 800311c:	f7ff f85e 	bl	80021dc <HAL_GetTick>
 8003120:	4607      	mov	r7, r0
 8003122:	b1ce      	cbz	r6, 8003158 <HAL_DAC_ConfigChannel+0x68>
 8003124:	6823      	ldr	r3, [r4, #0]
 8003126:	6b5a      	ldr	r2, [r3, #52]	@ 0x34
 8003128:	2a00      	cmp	r2, #0
 800312a:	f2c0 809d 	blt.w	8003268 <HAL_DAC_ConfigChannel+0x178>
 800312e:	6a6a      	ldr	r2, [r5, #36]	@ 0x24
 8003130:	645a      	str	r2, [r3, #68]	@ 0x44
 8003132:	e017      	b.n	8003164 <HAL_DAC_ConfigChannel+0x74>
 8003134:	f7ff f852 	bl	80021dc <HAL_GetTick>
 8003138:	1bc0      	subs	r0, r0, r7
 800313a:	2801      	cmp	r0, #1
 800313c:	d90c      	bls.n	8003158 <HAL_DAC_ConfigChannel+0x68>
 800313e:	6823      	ldr	r3, [r4, #0]
 8003140:	6b5b      	ldr	r3, [r3, #52]	@ 0x34
 8003142:	041b      	lsls	r3, r3, #16
 8003144:	d508      	bpl.n	8003158 <HAL_DAC_ConfigChannel+0x68>
 8003146:	6923      	ldr	r3, [r4, #16]
 8003148:	f043 0308 	orr.w	r3, r3, #8
 800314c:	6123      	str	r3, [r4, #16]
 800314e:	2303      	movs	r3, #3
 8003150:	7123      	strb	r3, [r4, #4]
 8003152:	2003      	movs	r0, #3
 8003154:	e8bd 81f0 	ldmia.w	sp!, {r4, r5, r6, r7, r8, pc}
 8003158:	6823      	ldr	r3, [r4, #0]
 800315a:	6b5a      	ldr	r2, [r3, #52]	@ 0x34
 800315c:	0410      	lsls	r0, r2, #16
 800315e:	d4e9      	bmi.n	8003134 <HAL_DAC_ConfigChannel+0x44>
 8003160:	6a6a      	ldr	r2, [r5, #36]	@ 0x24
 8003162:	641a      	str	r2, [r3, #64]	@ 0x40
 8003164:	6822      	ldr	r2, [r4, #0]
 8003166:	f006 0110 	and.w	r1, r6, #16
 800316a:	6c93      	ldr	r3, [r2, #72]	@ 0x48
 800316c:	f240 30ff 	movw	r0, #1023	@ 0x3ff
 8003170:	4088      	lsls	r0, r1
 8003172:	ea23 0300 	bic.w	r3, r3, r0
 8003176:	6aa8      	ldr	r0, [r5, #40]	@ 0x28
 8003178:	4088      	lsls	r0, r1
 800317a:	4303      	orrs	r3, r0
 800317c:	6493      	str	r3, [r2, #72]	@ 0x48
 800317e:	6cd3      	ldr	r3, [r2, #76]	@ 0x4c
 8003180:	20ff      	movs	r0, #255	@ 0xff
 8003182:	4088      	lsls	r0, r1
 8003184:	ea23 0300 	bic.w	r3, r3, r0
 8003188:	6ae8      	ldr	r0, [r5, #44]	@ 0x2c
 800318a:	4088      	lsls	r0, r1
 800318c:	4303      	orrs	r3, r0
 800318e:	64d3      	str	r3, [r2, #76]	@ 0x4c
 8003190:	69eb      	ldr	r3, [r5, #28]
 8003192:	6822      	ldr	r2, [r4, #0]
 8003194:	2b01      	cmp	r3, #1
 8003196:	f006 0610 	and.w	r6, r6, #16
 800319a:	d108      	bne.n	80031ae <HAL_DAC_ConfigChannel+0xbe>
 800319c:	6b91      	ldr	r1, [r2, #56]	@ 0x38
 800319e:	231f      	movs	r3, #31
 80031a0:	40b3      	lsls	r3, r6
 80031a2:	ea21 0103 	bic.w	r1, r1, r3
 80031a6:	6a2b      	ldr	r3, [r5, #32]
 80031a8:	40b3      	lsls	r3, r6
 80031aa:	430b      	orrs	r3, r1
 80031ac:	6393      	str	r3, [r2, #56]	@ 0x38
 80031ae:	6bd0      	ldr	r0, [r2, #60]	@ 0x3c
 80031b0:	e9d5 7205 	ldrd	r7, r2, [r5, #20]
 80031b4:	2a01      	cmp	r2, #1
 80031b6:	d063      	beq.n	8003280 <HAL_DAC_ConfigChannel+0x190>
 80031b8:	2a02      	cmp	r2, #2
 80031ba:	d063      	beq.n	8003284 <HAL_DAC_ConfigChannel+0x194>
 80031bc:	fab7 f287 	clz	r2, r7
 80031c0:	0952      	lsrs	r2, r2, #5
 80031c2:	f240 3107 	movw	r1, #775	@ 0x307
 80031c6:	40b1      	lsls	r1, r6
 80031c8:	ea20 0801 	bic.w	r8, r0, r1
 80031cc:	7929      	ldrb	r1, [r5, #4]
 80031ce:	68a8      	ldr	r0, [r5, #8]
 80031d0:	1e4b      	subs	r3, r1, #1
 80031d2:	4259      	negs	r1, r3
 80031d4:	4159      	adcs	r1, r3
 80031d6:	796b      	ldrb	r3, [r5, #5]
 80031d8:	4307      	orrs	r7, r0
 80031da:	ea47 2701 	orr.w	r7, r7, r1, lsl #8
 80031de:	1e59      	subs	r1, r3, #1
 80031e0:	424b      	negs	r3, r1
 80031e2:	414b      	adcs	r3, r1
 80031e4:	ea47 2743 	orr.w	r7, r7, r3, lsl #9
 80031e8:	682b      	ldr	r3, [r5, #0]
 80031ea:	2b02      	cmp	r3, #2
 80031ec:	ea47 0702 	orr.w	r7, r7, r2
 80031f0:	f428 4840 	bic.w	r8, r8, #49152	@ 0xc000
 80031f4:	d14e      	bne.n	8003294 <HAL_DAC_ConfigChannel+0x1a4>
 80031f6:	f001 f927 	bl	8004448 <HAL_RCC_GetHCLKFreq>
 80031fa:	4b29      	ldr	r3, [pc, #164]	@ (80032a0 <HAL_DAC_ConfigChannel+0x1b0>)
 80031fc:	4298      	cmp	r0, r3
 80031fe:	d943      	bls.n	8003288 <HAL_DAC_ConfigChannel+0x198>
 8003200:	f448 4800 	orr.w	r8, r8, #32768	@ 0x8000
 8003204:	6822      	ldr	r2, [r4, #0]
 8003206:	40b7      	lsls	r7, r6
 8003208:	ea47 0708 	orr.w	r7, r7, r8
 800320c:	63d7      	str	r7, [r2, #60]	@ 0x3c
 800320e:	6813      	ldr	r3, [r2, #0]
 8003210:	f44f 4180 	mov.w	r1, #16384	@ 0x4000
 8003214:	40b1      	lsls	r1, r6
 8003216:	ea23 0301 	bic.w	r3, r3, r1
 800321a:	6013      	str	r3, [r2, #0]
 800321c:	6810      	ldr	r0, [r2, #0]
 800321e:	f640 73fe 	movw	r3, #4094	@ 0xffe
 8003222:	40b3      	lsls	r3, r6
 8003224:	ea20 0003 	bic.w	r0, r0, r3
 8003228:	68eb      	ldr	r3, [r5, #12]
 800322a:	fa03 f106 	lsl.w	r1, r3, r6
 800322e:	4301      	orrs	r1, r0
 8003230:	6011      	str	r1, [r2, #0]
 8003232:	6811      	ldr	r1, [r2, #0]
 8003234:	20c0      	movs	r0, #192	@ 0xc0
 8003236:	40b0      	lsls	r0, r6
 8003238:	ea21 0100 	bic.w	r1, r1, r0
 800323c:	6011      	str	r1, [r2, #0]
 800323e:	f3c3 0183 	ubfx	r1, r3, #2, #4
 8003242:	692b      	ldr	r3, [r5, #16]
 8003244:	6e10      	ldr	r0, [r2, #96]	@ 0x60
 8003246:	019b      	lsls	r3, r3, #6
 8003248:	f403 6370 	and.w	r3, r3, #3840	@ 0xf00
 800324c:	430b      	orrs	r3, r1
 800324e:	f640 710f 	movw	r1, #3855	@ 0xf0f
 8003252:	40b1      	lsls	r1, r6
 8003254:	ea20 0101 	bic.w	r1, r0, r1
 8003258:	40b3      	lsls	r3, r6
 800325a:	430b      	orrs	r3, r1
 800325c:	6613      	str	r3, [r2, #96]	@ 0x60
 800325e:	2000      	movs	r0, #0
 8003260:	2301      	movs	r3, #1
 8003262:	7123      	strb	r3, [r4, #4]
 8003264:	7160      	strb	r0, [r4, #5]
 8003266:	e775      	b.n	8003154 <HAL_DAC_ConfigChannel+0x64>
 8003268:	f7fe ffb8 	bl	80021dc <HAL_GetTick>
 800326c:	1bc0      	subs	r0, r0, r7
 800326e:	2801      	cmp	r0, #1
 8003270:	f67f af58 	bls.w	8003124 <HAL_DAC_ConfigChannel+0x34>
 8003274:	6823      	ldr	r3, [r4, #0]
 8003276:	6b5b      	ldr	r3, [r3, #52]	@ 0x34
 8003278:	2b00      	cmp	r3, #0
 800327a:	f6bf af53 	bge.w	8003124 <HAL_DAC_ConfigChannel+0x34>
 800327e:	e762      	b.n	8003146 <HAL_DAC_ConfigChannel+0x56>
 8003280:	2200      	movs	r2, #0
 8003282:	e79e      	b.n	80031c2 <HAL_DAC_ConfigChannel+0xd2>
 8003284:	2201      	movs	r2, #1
 8003286:	e79c      	b.n	80031c2 <HAL_DAC_ConfigChannel+0xd2>
 8003288:	4b06      	ldr	r3, [pc, #24]	@ (80032a4 <HAL_DAC_ConfigChannel+0x1b4>)
 800328a:	4298      	cmp	r0, r3
 800328c:	d9ba      	bls.n	8003204 <HAL_DAC_ConfigChannel+0x114>
 800328e:	f448 4880 	orr.w	r8, r8, #16384	@ 0x4000
 8003292:	e7b7      	b.n	8003204 <HAL_DAC_ConfigChannel+0x114>
 8003294:	ea48 0803 	orr.w	r8, r8, r3
 8003298:	e7b4      	b.n	8003204 <HAL_DAC_ConfigChannel+0x114>
 800329a:	2001      	movs	r0, #1
 800329c:	e75a      	b.n	8003154 <HAL_DAC_ConfigChannel+0x64>
 800329e:	bf00      	nop
 80032a0:	09896800 	.word	0x09896800
 80032a4:	04c4b400 	.word	0x04c4b400

080032a8 <DMA_SetConfig>:
 80032a8:	b570      	push	{r4, r5, r6, lr}
 80032aa:	e9d0 4513 	ldrd	r4, r5, [r0, #76]	@ 0x4c
 80032ae:	6065      	str	r5, [r4, #4]
 80032b0:	6d44      	ldr	r4, [r0, #84]	@ 0x54
 80032b2:	b114      	cbz	r4, 80032ba <DMA_SetConfig+0x12>
 80032b4:	e9d0 4516 	ldrd	r4, r5, [r0, #88]	@ 0x58
 80032b8:	6065      	str	r5, [r4, #4]
 80032ba:	e9d0 5410 	ldrd	r5, r4, [r0, #64]	@ 0x40
 80032be:	f004 061f 	and.w	r6, r4, #31
 80032c2:	2401      	movs	r4, #1
 80032c4:	40b4      	lsls	r4, r6
 80032c6:	606c      	str	r4, [r5, #4]
 80032c8:	6804      	ldr	r4, [r0, #0]
 80032ca:	6063      	str	r3, [r4, #4]
 80032cc:	6883      	ldr	r3, [r0, #8]
 80032ce:	2b10      	cmp	r3, #16
 80032d0:	bf0b      	itete	eq
 80032d2:	60a2      	streq	r2, [r4, #8]
 80032d4:	60a1      	strne	r1, [r4, #8]
 80032d6:	60e1      	streq	r1, [r4, #12]
 80032d8:	60e2      	strne	r2, [r4, #12]
 80032da:	bd70      	pop	{r4, r5, r6, pc}

080032dc <DMA_CalcDMAMUXChannelBaseAndMask>:
 80032dc:	b510      	push	{r4, lr}
 80032de:	6803      	ldr	r3, [r0, #0]
 80032e0:	490c      	ldr	r1, [pc, #48]	@ (8003314 <DMA_CalcDMAMUXChannelBaseAndMask+0x38>)
 80032e2:	4c0d      	ldr	r4, [pc, #52]	@ (8003318 <DMA_CalcDMAMUXChannelBaseAndMask+0x3c>)
 80032e4:	4a0d      	ldr	r2, [pc, #52]	@ (800331c <DMA_CalcDMAMUXChannelBaseAndMask+0x40>)
 80032e6:	42a3      	cmp	r3, r4
 80032e8:	bf98      	it	ls
 80032ea:	460a      	movls	r2, r1
 80032ec:	6c41      	ldr	r1, [r0, #68]	@ 0x44
 80032ee:	f021 0103 	bic.w	r1, r1, #3
 80032f2:	440a      	add	r2, r1
 80032f4:	6482      	str	r2, [r0, #72]	@ 0x48
 80032f6:	b2db      	uxtb	r3, r3
 80032f8:	4a09      	ldr	r2, [pc, #36]	@ (8003320 <DMA_CalcDMAMUXChannelBaseAndMask+0x44>)
 80032fa:	64c2      	str	r2, [r0, #76]	@ 0x4c
 80032fc:	3b08      	subs	r3, #8
 80032fe:	2214      	movs	r2, #20
 8003300:	fbb3 f3f2 	udiv	r3, r3, r2
 8003304:	2201      	movs	r2, #1
 8003306:	f003 031f 	and.w	r3, r3, #31
 800330a:	fa02 f303 	lsl.w	r3, r2, r3
 800330e:	6503      	str	r3, [r0, #80]	@ 0x50
 8003310:	bd10      	pop	{r4, pc}
 8003312:	bf00      	nop
 8003314:	40020800 	.word	0x40020800
 8003318:	40020407 	.word	0x40020407
 800331c:	40020820 	.word	0x40020820
 8003320:	40020880 	.word	0x40020880

08003324 <HAL_DMA_Init>:
 8003324:	b538      	push	{r3, r4, r5, lr}
 8003326:	2800      	cmp	r0, #0
 8003328:	d057      	beq.n	80033da <HAL_DMA_Init+0xb6>
 800332a:	6802      	ldr	r2, [r0, #0]
 800332c:	4b2c      	ldr	r3, [pc, #176]	@ (80033e0 <HAL_DMA_Init+0xbc>)
 800332e:	429a      	cmp	r2, r3
 8003330:	f04f 0114 	mov.w	r1, #20
 8003334:	d845      	bhi.n	80033c2 <HAL_DMA_Init+0x9e>
 8003336:	4b2b      	ldr	r3, [pc, #172]	@ (80033e4 <HAL_DMA_Init+0xc0>)
 8003338:	4413      	add	r3, r2
 800333a:	fbb3 f3f1 	udiv	r3, r3, r1
 800333e:	492a      	ldr	r1, [pc, #168]	@ (80033e8 <HAL_DMA_Init+0xc4>)
 8003340:	009b      	lsls	r3, r3, #2
 8003342:	e9c0 1310 	strd	r1, r3, [r0, #64]	@ 0x40
 8003346:	2302      	movs	r3, #2
 8003348:	f880 3025 	strb.w	r3, [r0, #37]	@ 0x25
 800334c:	e9d0 4302 	ldrd	r4, r3, [r0, #8]
 8003350:	6905      	ldr	r5, [r0, #16]
 8003352:	6811      	ldr	r1, [r2, #0]
 8003354:	4323      	orrs	r3, r4
 8003356:	432b      	orrs	r3, r5
 8003358:	6945      	ldr	r5, [r0, #20]
 800335a:	432b      	orrs	r3, r5
 800335c:	6985      	ldr	r5, [r0, #24]
 800335e:	432b      	orrs	r3, r5
 8003360:	69c5      	ldr	r5, [r0, #28]
 8003362:	432b      	orrs	r3, r5
 8003364:	6a05      	ldr	r5, [r0, #32]
 8003366:	f36f 110e 	bfc	r1, #4, #11
 800336a:	432b      	orrs	r3, r5
 800336c:	430b      	orrs	r3, r1
 800336e:	6013      	str	r3, [r2, #0]
 8003370:	f7ff ffb4 	bl	80032dc <DMA_CalcDMAMUXChannelBaseAndMask>
 8003374:	f5b4 4f80 	cmp.w	r4, #16384	@ 0x4000
 8003378:	bf04      	itt	eq
 800337a:	2300      	moveq	r3, #0
 800337c:	6043      	streq	r3, [r0, #4]
 800337e:	6843      	ldr	r3, [r0, #4]
 8003380:	6c81      	ldr	r1, [r0, #72]	@ 0x48
 8003382:	b2da      	uxtb	r2, r3
 8003384:	600a      	str	r2, [r1, #0]
 8003386:	e9d0 1413 	ldrd	r1, r4, [r0, #76]	@ 0x4c
 800338a:	3b01      	subs	r3, #1
 800338c:	2b03      	cmp	r3, #3
 800338e:	604c      	str	r4, [r1, #4]
 8003390:	d81e      	bhi.n	80033d0 <HAL_DMA_Init+0xac>
 8003392:	4b16      	ldr	r3, [pc, #88]	@ (80033ec <HAL_DMA_Init+0xc8>)
 8003394:	4916      	ldr	r1, [pc, #88]	@ (80033f0 <HAL_DMA_Init+0xcc>)
 8003396:	6581      	str	r1, [r0, #88]	@ 0x58
 8003398:	4413      	add	r3, r2
 800339a:	009b      	lsls	r3, r3, #2
 800339c:	2101      	movs	r1, #1
 800339e:	3a01      	subs	r2, #1
 80033a0:	fa01 f202 	lsl.w	r2, r1, r2
 80033a4:	2100      	movs	r1, #0
 80033a6:	6543      	str	r3, [r0, #84]	@ 0x54
 80033a8:	65c2      	str	r2, [r0, #92]	@ 0x5c
 80033aa:	6019      	str	r1, [r3, #0]
 80033ac:	4b11      	ldr	r3, [pc, #68]	@ (80033f4 <HAL_DMA_Init+0xd0>)
 80033ae:	645a      	str	r2, [r3, #68]	@ 0x44
 80033b0:	2300      	movs	r3, #0
 80033b2:	2201      	movs	r2, #1
 80033b4:	63c3      	str	r3, [r0, #60]	@ 0x3c
 80033b6:	f880 3024 	strb.w	r3, [r0, #36]	@ 0x24
 80033ba:	f880 2025 	strb.w	r2, [r0, #37]	@ 0x25
 80033be:	4618      	mov	r0, r3
 80033c0:	bd38      	pop	{r3, r4, r5, pc}
 80033c2:	4b0d      	ldr	r3, [pc, #52]	@ (80033f8 <HAL_DMA_Init+0xd4>)
 80033c4:	4413      	add	r3, r2
 80033c6:	fbb3 f3f1 	udiv	r3, r3, r1
 80033ca:	490c      	ldr	r1, [pc, #48]	@ (80033fc <HAL_DMA_Init+0xd8>)
 80033cc:	009b      	lsls	r3, r3, #2
 80033ce:	e7b8      	b.n	8003342 <HAL_DMA_Init+0x1e>
 80033d0:	2300      	movs	r3, #0
 80033d2:	e9c0 3315 	strd	r3, r3, [r0, #84]	@ 0x54
 80033d6:	65c3      	str	r3, [r0, #92]	@ 0x5c
 80033d8:	e7ea      	b.n	80033b0 <HAL_DMA_Init+0x8c>
 80033da:	2001      	movs	r0, #1
 80033dc:	e7f0      	b.n	80033c0 <HAL_DMA_Init+0x9c>
 80033de:	bf00      	nop
 80033e0:	40020407 	.word	0x40020407
 80033e4:	bffdfff8 	.word	0xbffdfff8
 80033e8:	40020000 	.word	0x40020000
 80033ec:	1000823f 	.word	0x1000823f
 80033f0:	40020940 	.word	0x40020940
 80033f4:	40020900 	.word	0x40020900
 80033f8:	bffdfbf8 	.word	0xbffdfbf8
 80033fc:	40020400 	.word	0x40020400

08003400 <HAL_DMA_Start_IT>:
 8003400:	b570      	push	{r4, r5, r6, lr}
 8003402:	f890 5024 	ldrb.w	r5, [r0, #36]	@ 0x24
 8003406:	2d01      	cmp	r5, #1
 8003408:	4604      	mov	r4, r0
 800340a:	d037      	beq.n	800347c <HAL_DMA_Start_IT+0x7c>
 800340c:	2501      	movs	r5, #1
 800340e:	f880 5024 	strb.w	r5, [r0, #36]	@ 0x24
 8003412:	f890 5025 	ldrb.w	r5, [r0, #37]	@ 0x25
 8003416:	2d01      	cmp	r5, #1
 8003418:	f04f 0500 	mov.w	r5, #0
 800341c:	d12c      	bne.n	8003478 <HAL_DMA_Start_IT+0x78>
 800341e:	2602      	movs	r6, #2
 8003420:	f880 6025 	strb.w	r6, [r0, #37]	@ 0x25
 8003424:	63c5      	str	r5, [r0, #60]	@ 0x3c
 8003426:	6805      	ldr	r5, [r0, #0]
 8003428:	682e      	ldr	r6, [r5, #0]
 800342a:	f026 0601 	bic.w	r6, r6, #1
 800342e:	602e      	str	r6, [r5, #0]
 8003430:	f7ff ff3a 	bl	80032a8 <DMA_SetConfig>
 8003434:	6b03      	ldr	r3, [r0, #48]	@ 0x30
 8003436:	b1bb      	cbz	r3, 8003468 <HAL_DMA_Start_IT+0x68>
 8003438:	682b      	ldr	r3, [r5, #0]
 800343a:	f043 030e 	orr.w	r3, r3, #14
 800343e:	602b      	str	r3, [r5, #0]
 8003440:	6ca3      	ldr	r3, [r4, #72]	@ 0x48
 8003442:	681a      	ldr	r2, [r3, #0]
 8003444:	03d2      	lsls	r2, r2, #15
 8003446:	bf42      	ittt	mi
 8003448:	681a      	ldrmi	r2, [r3, #0]
 800344a:	f442 7280 	orrmi.w	r2, r2, #256	@ 0x100
 800344e:	601a      	strmi	r2, [r3, #0]
 8003450:	6d63      	ldr	r3, [r4, #84]	@ 0x54
 8003452:	b11b      	cbz	r3, 800345c <HAL_DMA_Start_IT+0x5c>
 8003454:	681a      	ldr	r2, [r3, #0]
 8003456:	f442 7280 	orr.w	r2, r2, #256	@ 0x100
 800345a:	601a      	str	r2, [r3, #0]
 800345c:	682b      	ldr	r3, [r5, #0]
 800345e:	f043 0301 	orr.w	r3, r3, #1
 8003462:	602b      	str	r3, [r5, #0]
 8003464:	2000      	movs	r0, #0
 8003466:	bd70      	pop	{r4, r5, r6, pc}
 8003468:	682b      	ldr	r3, [r5, #0]
 800346a:	f023 0304 	bic.w	r3, r3, #4
 800346e:	602b      	str	r3, [r5, #0]
 8003470:	682b      	ldr	r3, [r5, #0]
 8003472:	f043 030a 	orr.w	r3, r3, #10
 8003476:	e7e2      	b.n	800343e <HAL_DMA_Start_IT+0x3e>
 8003478:	f880 5024 	strb.w	r5, [r0, #36]	@ 0x24
 800347c:	2002      	movs	r0, #2
 800347e:	e7f2      	b.n	8003466 <HAL_DMA_Start_IT+0x66>

08003480 <HAL_DMA_IRQHandler>:
 8003480:	6c01      	ldr	r1, [r0, #64]	@ 0x40
 8003482:	6c42      	ldr	r2, [r0, #68]	@ 0x44
 8003484:	6803      	ldr	r3, [r0, #0]
 8003486:	b470      	push	{r4, r5, r6}
 8003488:	f002 021f 	and.w	r2, r2, #31
 800348c:	680e      	ldr	r6, [r1, #0]
 800348e:	681d      	ldr	r5, [r3, #0]
 8003490:	2404      	movs	r4, #4
 8003492:	4094      	lsls	r4, r2
 8003494:	4234      	tst	r4, r6
 8003496:	d00e      	beq.n	80034b6 <HAL_DMA_IRQHandler+0x36>
 8003498:	f015 0f04 	tst.w	r5, #4
 800349c:	d00b      	beq.n	80034b6 <HAL_DMA_IRQHandler+0x36>
 800349e:	681a      	ldr	r2, [r3, #0]
 80034a0:	0692      	lsls	r2, r2, #26
 80034a2:	bf5e      	ittt	pl
 80034a4:	681a      	ldrpl	r2, [r3, #0]
 80034a6:	f022 0204 	bicpl.w	r2, r2, #4
 80034aa:	601a      	strpl	r2, [r3, #0]
 80034ac:	6b03      	ldr	r3, [r0, #48]	@ 0x30
 80034ae:	604c      	str	r4, [r1, #4]
 80034b0:	b373      	cbz	r3, 8003510 <HAL_DMA_IRQHandler+0x90>
 80034b2:	bc70      	pop	{r4, r5, r6}
 80034b4:	4718      	bx	r3
 80034b6:	2402      	movs	r4, #2
 80034b8:	4094      	lsls	r4, r2
 80034ba:	4234      	tst	r4, r6
 80034bc:	d012      	beq.n	80034e4 <HAL_DMA_IRQHandler+0x64>
 80034be:	f015 0f02 	tst.w	r5, #2
 80034c2:	d00f      	beq.n	80034e4 <HAL_DMA_IRQHandler+0x64>
 80034c4:	681a      	ldr	r2, [r3, #0]
 80034c6:	0695      	lsls	r5, r2, #26
 80034c8:	d406      	bmi.n	80034d8 <HAL_DMA_IRQHandler+0x58>
 80034ca:	681a      	ldr	r2, [r3, #0]
 80034cc:	f022 020a 	bic.w	r2, r2, #10
 80034d0:	601a      	str	r2, [r3, #0]
 80034d2:	2301      	movs	r3, #1
 80034d4:	f880 3025 	strb.w	r3, [r0, #37]	@ 0x25
 80034d8:	2300      	movs	r3, #0
 80034da:	604c      	str	r4, [r1, #4]
 80034dc:	f880 3024 	strb.w	r3, [r0, #36]	@ 0x24
 80034e0:	6ac3      	ldr	r3, [r0, #44]	@ 0x2c
 80034e2:	e7e5      	b.n	80034b0 <HAL_DMA_IRQHandler+0x30>
 80034e4:	2408      	movs	r4, #8
 80034e6:	4094      	lsls	r4, r2
 80034e8:	4234      	tst	r4, r6
 80034ea:	d011      	beq.n	8003510 <HAL_DMA_IRQHandler+0x90>
 80034ec:	072c      	lsls	r4, r5, #28
 80034ee:	d50f      	bpl.n	8003510 <HAL_DMA_IRQHandler+0x90>
 80034f0:	681c      	ldr	r4, [r3, #0]
 80034f2:	f024 040e 	bic.w	r4, r4, #14
 80034f6:	601c      	str	r4, [r3, #0]
 80034f8:	2301      	movs	r3, #1
 80034fa:	fa03 f202 	lsl.w	r2, r3, r2
 80034fe:	604a      	str	r2, [r1, #4]
 8003500:	63c3      	str	r3, [r0, #60]	@ 0x3c
 8003502:	f880 3025 	strb.w	r3, [r0, #37]	@ 0x25
 8003506:	2300      	movs	r3, #0
 8003508:	f880 3024 	strb.w	r3, [r0, #36]	@ 0x24
 800350c:	6b43      	ldr	r3, [r0, #52]	@ 0x34
 800350e:	e7cf      	b.n	80034b0 <HAL_DMA_IRQHandler+0x30>
 8003510:	bc70      	pop	{r4, r5, r6}
 8003512:	4770      	bx	lr

08003514 <HAL_FDCAN_Init>:
 8003514:	b538      	push	{r3, r4, r5, lr}
 8003516:	4604      	mov	r4, r0
 8003518:	2800      	cmp	r0, #0
 800351a:	f000 80ce 	beq.w	80036ba <HAL_FDCAN_Init+0x1a6>
 800351e:	f890 305c 	ldrb.w	r3, [r0, #92]	@ 0x5c
 8003522:	f003 02ff 	and.w	r2, r3, #255	@ 0xff
 8003526:	b91b      	cbnz	r3, 8003530 <HAL_FDCAN_Init+0x1c>
 8003528:	f880 205d 	strb.w	r2, [r0, #93]	@ 0x5d
 800352c:	f7fe fa0e 	bl	800194c <HAL_FDCAN_MspInit>
 8003530:	6822      	ldr	r2, [r4, #0]
 8003532:	6993      	ldr	r3, [r2, #24]
 8003534:	f023 0310 	bic.w	r3, r3, #16
 8003538:	6193      	str	r3, [r2, #24]
 800353a:	f7fe fe4f 	bl	80021dc <HAL_GetTick>
 800353e:	4605      	mov	r5, r0
 8003540:	6823      	ldr	r3, [r4, #0]
 8003542:	699a      	ldr	r2, [r3, #24]
 8003544:	0711      	lsls	r1, r2, #28
 8003546:	f100 80ab 	bmi.w	80036a0 <HAL_FDCAN_Init+0x18c>
 800354a:	699a      	ldr	r2, [r3, #24]
 800354c:	f042 0201 	orr.w	r2, r2, #1
 8003550:	619a      	str	r2, [r3, #24]
 8003552:	f7fe fe43 	bl	80021dc <HAL_GetTick>
 8003556:	4605      	mov	r5, r0
 8003558:	6823      	ldr	r3, [r4, #0]
 800355a:	699a      	ldr	r2, [r3, #24]
 800355c:	07d2      	lsls	r2, r2, #31
 800355e:	f140 80ae 	bpl.w	80036be <HAL_FDCAN_Init+0x1aa>
 8003562:	699a      	ldr	r2, [r3, #24]
 8003564:	f042 0202 	orr.w	r2, r2, #2
 8003568:	619a      	str	r2, [r3, #24]
 800356a:	4a63      	ldr	r2, [pc, #396]	@ (80036f8 <HAL_FDCAN_Init+0x1e4>)
 800356c:	4293      	cmp	r3, r2
 800356e:	bf04      	itt	eq
 8003570:	6861      	ldreq	r1, [r4, #4]
 8003572:	f8c2 1100 	streq.w	r1, [r2, #256]	@ 0x100
 8003576:	7c22      	ldrb	r2, [r4, #16]
 8003578:	2a01      	cmp	r2, #1
 800357a:	699a      	ldr	r2, [r3, #24]
 800357c:	bf0c      	ite	eq
 800357e:	f022 0240 	biceq.w	r2, r2, #64	@ 0x40
 8003582:	f042 0240 	orrne.w	r2, r2, #64	@ 0x40
 8003586:	619a      	str	r2, [r3, #24]
 8003588:	7c62      	ldrb	r2, [r4, #17]
 800358a:	2a01      	cmp	r2, #1
 800358c:	699a      	ldr	r2, [r3, #24]
 800358e:	bf0c      	ite	eq
 8003590:	f442 4280 	orreq.w	r2, r2, #16384	@ 0x4000
 8003594:	f422 4280 	bicne.w	r2, r2, #16384	@ 0x4000
 8003598:	619a      	str	r2, [r3, #24]
 800359a:	7ca2      	ldrb	r2, [r4, #18]
 800359c:	2a01      	cmp	r2, #1
 800359e:	699a      	ldr	r2, [r3, #24]
 80035a0:	bf0c      	ite	eq
 80035a2:	f422 5280 	biceq.w	r2, r2, #4096	@ 0x1000
 80035a6:	f442 5280 	orrne.w	r2, r2, #4096	@ 0x1000
 80035aa:	619a      	str	r2, [r3, #24]
 80035ac:	699a      	ldr	r2, [r3, #24]
 80035ae:	68a0      	ldr	r0, [r4, #8]
 80035b0:	f422 7240 	bic.w	r2, r2, #768	@ 0x300
 80035b4:	4302      	orrs	r2, r0
 80035b6:	619a      	str	r2, [r3, #24]
 80035b8:	699a      	ldr	r2, [r3, #24]
 80035ba:	f022 02a4 	bic.w	r2, r2, #164	@ 0xa4
 80035be:	619a      	str	r2, [r3, #24]
 80035c0:	691a      	ldr	r2, [r3, #16]
 80035c2:	f022 0210 	bic.w	r2, r2, #16
 80035c6:	611a      	str	r2, [r3, #16]
 80035c8:	68e2      	ldr	r2, [r4, #12]
 80035ca:	2a01      	cmp	r2, #1
 80035cc:	d17e      	bne.n	80036cc <HAL_FDCAN_Init+0x1b8>
 80035ce:	699a      	ldr	r2, [r3, #24]
 80035d0:	f042 0204 	orr.w	r2, r2, #4
 80035d4:	619a      	str	r2, [r3, #24]
 80035d6:	69a2      	ldr	r2, [r4, #24]
 80035d8:	1e51      	subs	r1, r2, #1
 80035da:	69e2      	ldr	r2, [r4, #28]
 80035dc:	3a01      	subs	r2, #1
 80035de:	0212      	lsls	r2, r2, #8
 80035e0:	ea42 6241 	orr.w	r2, r2, r1, lsl #25
 80035e4:	6a21      	ldr	r1, [r4, #32]
 80035e6:	3901      	subs	r1, #1
 80035e8:	430a      	orrs	r2, r1
 80035ea:	6961      	ldr	r1, [r4, #20]
 80035ec:	3901      	subs	r1, #1
 80035ee:	ea42 4201 	orr.w	r2, r2, r1, lsl #16
 80035f2:	f5b0 7f40 	cmp.w	r0, #768	@ 0x300
 80035f6:	61da      	str	r2, [r3, #28]
 80035f8:	d10e      	bne.n	8003618 <HAL_FDCAN_Init+0x104>
 80035fa:	6ae2      	ldr	r2, [r4, #44]	@ 0x2c
 80035fc:	1e51      	subs	r1, r2, #1
 80035fe:	6b22      	ldr	r2, [r4, #48]	@ 0x30
 8003600:	3a01      	subs	r2, #1
 8003602:	0112      	lsls	r2, r2, #4
 8003604:	ea42 2201 	orr.w	r2, r2, r1, lsl #8
 8003608:	6aa1      	ldr	r1, [r4, #40]	@ 0x28
 800360a:	3901      	subs	r1, #1
 800360c:	430a      	orrs	r2, r1
 800360e:	6a61      	ldr	r1, [r4, #36]	@ 0x24
 8003610:	3901      	subs	r1, #1
 8003612:	ea42 4201 	orr.w	r2, r2, r1, lsl #16
 8003616:	60da      	str	r2, [r3, #12]
 8003618:	f8d3 20c0 	ldr.w	r2, [r3, #192]	@ 0xc0
 800361c:	6be1      	ldr	r1, [r4, #60]	@ 0x3c
 800361e:	430a      	orrs	r2, r1
 8003620:	f8c3 20c0 	str.w	r2, [r3, #192]	@ 0xc0
 8003624:	4a35      	ldr	r2, [pc, #212]	@ (80036fc <HAL_FDCAN_Init+0x1e8>)
 8003626:	4293      	cmp	r3, r2
 8003628:	d063      	beq.n	80036f2 <HAL_FDCAN_Init+0x1de>
 800362a:	4935      	ldr	r1, [pc, #212]	@ (8003700 <HAL_FDCAN_Init+0x1ec>)
 800362c:	4835      	ldr	r0, [pc, #212]	@ (8003704 <HAL_FDCAN_Init+0x1f0>)
 800362e:	f502 5270 	add.w	r2, r2, #15360	@ 0x3c00
 8003632:	428b      	cmp	r3, r1
 8003634:	bf18      	it	ne
 8003636:	4610      	movne	r0, r2
 8003638:	f8d3 2080 	ldr.w	r2, [r3, #128]	@ 0x80
 800363c:	6b61      	ldr	r1, [r4, #52]	@ 0x34
 800363e:	6420      	str	r0, [r4, #64]	@ 0x40
 8003640:	f422 12f8 	bic.w	r2, r2, #2031616	@ 0x1f0000
 8003644:	ea42 4201 	orr.w	r2, r2, r1, lsl #16
 8003648:	f8c3 2080 	str.w	r2, [r3, #128]	@ 0x80
 800364c:	f100 0270 	add.w	r2, r0, #112	@ 0x70
 8003650:	6462      	str	r2, [r4, #68]	@ 0x44
 8003652:	f8d3 2080 	ldr.w	r2, [r3, #128]	@ 0x80
 8003656:	6ba1      	ldr	r1, [r4, #56]	@ 0x38
 8003658:	f022 6270 	bic.w	r2, r2, #251658240	@ 0xf000000
 800365c:	ea42 6201 	orr.w	r2, r2, r1, lsl #24
 8003660:	f8c3 2080 	str.w	r2, [r3, #128]	@ 0x80
 8003664:	f100 03b0 	add.w	r3, r0, #176	@ 0xb0
 8003668:	64a3      	str	r3, [r4, #72]	@ 0x48
 800366a:	f500 73c4 	add.w	r3, r0, #392	@ 0x188
 800366e:	64e3      	str	r3, [r4, #76]	@ 0x4c
 8003670:	f500 7318 	add.w	r3, r0, #608	@ 0x260
 8003674:	6523      	str	r3, [r4, #80]	@ 0x50
 8003676:	f500 731e 	add.w	r3, r0, #632	@ 0x278
 800367a:	6563      	str	r3, [r4, #84]	@ 0x54
 800367c:	f500 7254 	add.w	r2, r0, #848	@ 0x350
 8003680:	1d03      	adds	r3, r0, #4
 8003682:	429a      	cmp	r2, r3
 8003684:	bf34      	ite	cc
 8003686:	2201      	movcc	r2, #1
 8003688:	22d4      	movcs	r2, #212	@ 0xd4
 800368a:	0092      	lsls	r2, r2, #2
 800368c:	2100      	movs	r1, #0
 800368e:	f003 f91f 	bl	80068d0 <memset>
 8003692:	2000      	movs	r0, #0
 8003694:	2301      	movs	r3, #1
 8003696:	6620      	str	r0, [r4, #96]	@ 0x60
 8003698:	65a0      	str	r0, [r4, #88]	@ 0x58
 800369a:	f884 305c 	strb.w	r3, [r4, #92]	@ 0x5c
 800369e:	e00d      	b.n	80036bc <HAL_FDCAN_Init+0x1a8>
 80036a0:	f7fe fd9c 	bl	80021dc <HAL_GetTick>
 80036a4:	1b40      	subs	r0, r0, r5
 80036a6:	280a      	cmp	r0, #10
 80036a8:	f67f af4a 	bls.w	8003540 <HAL_FDCAN_Init+0x2c>
 80036ac:	6e23      	ldr	r3, [r4, #96]	@ 0x60
 80036ae:	f043 0301 	orr.w	r3, r3, #1
 80036b2:	6623      	str	r3, [r4, #96]	@ 0x60
 80036b4:	2303      	movs	r3, #3
 80036b6:	f884 305c 	strb.w	r3, [r4, #92]	@ 0x5c
 80036ba:	2001      	movs	r0, #1
 80036bc:	bd38      	pop	{r3, r4, r5, pc}
 80036be:	f7fe fd8d 	bl	80021dc <HAL_GetTick>
 80036c2:	1b40      	subs	r0, r0, r5
 80036c4:	280a      	cmp	r0, #10
 80036c6:	f67f af47 	bls.w	8003558 <HAL_FDCAN_Init+0x44>
 80036ca:	e7ef      	b.n	80036ac <HAL_FDCAN_Init+0x198>
 80036cc:	2a00      	cmp	r2, #0
 80036ce:	d082      	beq.n	80035d6 <HAL_FDCAN_Init+0xc2>
 80036d0:	2a02      	cmp	r2, #2
 80036d2:	d00a      	beq.n	80036ea <HAL_FDCAN_Init+0x1d6>
 80036d4:	6999      	ldr	r1, [r3, #24]
 80036d6:	f041 0180 	orr.w	r1, r1, #128	@ 0x80
 80036da:	6199      	str	r1, [r3, #24]
 80036dc:	6919      	ldr	r1, [r3, #16]
 80036de:	2a03      	cmp	r2, #3
 80036e0:	f041 0110 	orr.w	r1, r1, #16
 80036e4:	6119      	str	r1, [r3, #16]
 80036e6:	f47f af76 	bne.w	80035d6 <HAL_FDCAN_Init+0xc2>
 80036ea:	699a      	ldr	r2, [r3, #24]
 80036ec:	f042 0220 	orr.w	r2, r2, #32
 80036f0:	e770      	b.n	80035d4 <HAL_FDCAN_Init+0xc0>
 80036f2:	4805      	ldr	r0, [pc, #20]	@ (8003708 <HAL_FDCAN_Init+0x1f4>)
 80036f4:	e7a0      	b.n	8003638 <HAL_FDCAN_Init+0x124>
 80036f6:	bf00      	nop
 80036f8:	40006400 	.word	0x40006400
 80036fc:	40006800 	.word	0x40006800
 8003700:	40006c00 	.word	0x40006c00
 8003704:	4000aaa0 	.word	0x4000aaa0
 8003708:	4000a750 	.word	0x4000a750

0800370c <HAL_FDCAN_Start>:
 800370c:	f890 305c 	ldrb.w	r3, [r0, #92]	@ 0x5c
 8003710:	2b01      	cmp	r3, #1
 8003712:	d10b      	bne.n	800372c <HAL_FDCAN_Start+0x20>
 8003714:	6802      	ldr	r2, [r0, #0]
 8003716:	2302      	movs	r3, #2
 8003718:	f880 305c 	strb.w	r3, [r0, #92]	@ 0x5c
 800371c:	6993      	ldr	r3, [r2, #24]
 800371e:	f023 0301 	bic.w	r3, r3, #1
 8003722:	6193      	str	r3, [r2, #24]
 8003724:	2300      	movs	r3, #0
 8003726:	6603      	str	r3, [r0, #96]	@ 0x60
 8003728:	4618      	mov	r0, r3
 800372a:	4770      	bx	lr
 800372c:	6e03      	ldr	r3, [r0, #96]	@ 0x60
 800372e:	f043 0304 	orr.w	r3, r3, #4
 8003732:	6603      	str	r3, [r0, #96]	@ 0x60
 8003734:	2001      	movs	r0, #1
 8003736:	4770      	bx	lr

08003738 <HAL_FDCAN_AddMessageToTxFifoQ>:
 8003738:	e92d 43f0 	stmdb	sp!, {r4, r5, r6, r7, r8, r9, lr}
 800373c:	f890 305c 	ldrb.w	r3, [r0, #92]	@ 0x5c
 8003740:	2b02      	cmp	r3, #2
 8003742:	4691      	mov	r9, r2
 8003744:	d156      	bne.n	80037f4 <HAL_FDCAN_AddMessageToTxFifoQ+0xbc>
 8003746:	f8d0 c000 	ldr.w	ip, [r0]
 800374a:	f8dc 50c4 	ldr.w	r5, [ip, #196]	@ 0xc4
 800374e:	f415 1500 	ands.w	r5, r5, #2097152	@ 0x200000
 8003752:	d005      	beq.n	8003760 <HAL_FDCAN_AddMessageToTxFifoQ+0x28>
 8003754:	6e03      	ldr	r3, [r0, #96]	@ 0x60
 8003756:	f443 7300 	orr.w	r3, r3, #512	@ 0x200
 800375a:	6603      	str	r3, [r0, #96]	@ 0x60
 800375c:	2001      	movs	r0, #1
 800375e:	e030      	b.n	80037c2 <HAL_FDCAN_AddMessageToTxFifoQ+0x8a>
 8003760:	e9d1 4200 	ldrd	r4, r2, [r1]
 8003764:	f8dc 60c4 	ldr.w	r6, [ip, #196]	@ 0xc4
 8003768:	690b      	ldr	r3, [r1, #16]
 800376a:	688f      	ldr	r7, [r1, #8]
 800376c:	f3c6 4601 	ubfx	r6, r6, #16, #2
 8003770:	bb4a      	cbnz	r2, 80037c6 <HAL_FDCAN_AddMessageToTxFifoQ+0x8e>
 8003772:	433b      	orrs	r3, r7
 8003774:	ea43 4384 	orr.w	r3, r3, r4, lsl #18
 8003778:	e9d1 7406 	ldrd	r7, r4, [r1, #24]
 800377c:	433c      	orrs	r4, r7
 800377e:	694f      	ldr	r7, [r1, #20]
 8003780:	f8d0 8054 	ldr.w	r8, [r0, #84]	@ 0x54
 8003784:	433c      	orrs	r4, r7
 8003786:	6a0f      	ldr	r7, [r1, #32]
 8003788:	ea44 6407 	orr.w	r4, r4, r7, lsl #24
 800378c:	68cf      	ldr	r7, [r1, #12]
 800378e:	ea44 4407 	orr.w	r4, r4, r7, lsl #16
 8003792:	2748      	movs	r7, #72	@ 0x48
 8003794:	4377      	muls	r7, r6
 8003796:	eb07 0e08 	add.w	lr, r7, r8
 800379a:	f847 3008 	str.w	r3, [r7, r8]
 800379e:	f8ce 4004 	str.w	r4, [lr, #4]
 80037a2:	4c16      	ldr	r4, [pc, #88]	@ (80037fc <HAL_FDCAN_AddMessageToTxFifoQ+0xc4>)
 80037a4:	464a      	mov	r2, r9
 80037a6:	f10e 0e08 	add.w	lr, lr, #8
 80037aa:	68cb      	ldr	r3, [r1, #12]
 80037ac:	5ce3      	ldrb	r3, [r4, r3]
 80037ae:	429d      	cmp	r5, r3
 80037b0:	f102 0204 	add.w	r2, r2, #4
 80037b4:	d30c      	bcc.n	80037d0 <HAL_FDCAN_AddMessageToTxFifoQ+0x98>
 80037b6:	2301      	movs	r3, #1
 80037b8:	40b3      	lsls	r3, r6
 80037ba:	f8cc 30cc 	str.w	r3, [ip, #204]	@ 0xcc
 80037be:	6583      	str	r3, [r0, #88]	@ 0x58
 80037c0:	2000      	movs	r0, #0
 80037c2:	e8bd 83f0 	ldmia.w	sp!, {r4, r5, r6, r7, r8, r9, pc}
 80037c6:	4323      	orrs	r3, r4
 80037c8:	433b      	orrs	r3, r7
 80037ca:	f043 4380 	orr.w	r3, r3, #1073741824	@ 0x40000000
 80037ce:	e7d3      	b.n	8003778 <HAL_FDCAN_AddMessageToTxFifoQ+0x40>
 80037d0:	f812 3c02 	ldrb.w	r3, [r2, #-2]
 80037d4:	f812 7c01 	ldrb.w	r7, [r2, #-1]
 80037d8:	041b      	lsls	r3, r3, #16
 80037da:	ea43 6307 	orr.w	r3, r3, r7, lsl #24
 80037de:	f812 7c04 	ldrb.w	r7, [r2, #-4]
 80037e2:	433b      	orrs	r3, r7
 80037e4:	f812 7c03 	ldrb.w	r7, [r2, #-3]
 80037e8:	ea43 2307 	orr.w	r3, r3, r7, lsl #8
 80037ec:	f84e 3005 	str.w	r3, [lr, r5]
 80037f0:	3504      	adds	r5, #4
 80037f2:	e7da      	b.n	80037aa <HAL_FDCAN_AddMessageToTxFifoQ+0x72>
 80037f4:	6e03      	ldr	r3, [r0, #96]	@ 0x60
 80037f6:	f043 0308 	orr.w	r3, r3, #8
 80037fa:	e7ae      	b.n	800375a <HAL_FDCAN_AddMessageToTxFifoQ+0x22>
 80037fc:	08006d2c 	.word	0x08006d2c

08003800 <HAL_FDCAN_GetRxMessage>:
 8003800:	b5f0      	push	{r4, r5, r6, r7, lr}
 8003802:	f890 405c 	ldrb.w	r4, [r0, #92]	@ 0x5c
 8003806:	2c02      	cmp	r4, #2
 8003808:	d175      	bne.n	80038f6 <HAL_FDCAN_GetRxMessage+0xf6>
 800380a:	2940      	cmp	r1, #64	@ 0x40
 800380c:	6804      	ldr	r4, [r0, #0]
 800380e:	d155      	bne.n	80038bc <HAL_FDCAN_GetRxMessage+0xbc>
 8003810:	f8d4 5090 	ldr.w	r5, [r4, #144]	@ 0x90
 8003814:	072e      	lsls	r6, r5, #28
 8003816:	d105      	bne.n	8003824 <HAL_FDCAN_GetRxMessage+0x24>
 8003818:	6e03      	ldr	r3, [r0, #96]	@ 0x60
 800381a:	f443 7380 	orr.w	r3, r3, #256	@ 0x100
 800381e:	6603      	str	r3, [r0, #96]	@ 0x60
 8003820:	2001      	movs	r0, #1
 8003822:	bdf0      	pop	{r4, r5, r6, r7, pc}
 8003824:	f8d4 6090 	ldr.w	r6, [r4, #144]	@ 0x90
 8003828:	f016 7680 	ands.w	r6, r6, #16777216	@ 0x1000000
 800382c:	bf18      	it	ne
 800382e:	f8d4 6080 	ldrne.w	r6, [r4, #128]	@ 0x80
 8003832:	f8d4 5090 	ldr.w	r5, [r4, #144]	@ 0x90
 8003836:	6c84      	ldr	r4, [r0, #72]	@ 0x48
 8003838:	bf18      	it	ne
 800383a:	f3c6 2640 	ubfxne	r6, r6, #9, #1
 800383e:	f3c5 2501 	ubfx	r5, r5, #8, #2
 8003842:	4435      	add	r5, r6
 8003844:	2648      	movs	r6, #72	@ 0x48
 8003846:	fb06 4405 	mla	r4, r6, r5, r4
 800384a:	6827      	ldr	r7, [r4, #0]
 800384c:	f007 4780 	and.w	r7, r7, #1073741824	@ 0x40000000
 8003850:	6057      	str	r7, [r2, #4]
 8003852:	6826      	ldr	r6, [r4, #0]
 8003854:	2f00      	cmp	r7, #0
 8003856:	d146      	bne.n	80038e6 <HAL_FDCAN_GetRxMessage+0xe6>
 8003858:	f3c6 468a 	ubfx	r6, r6, #18, #11
 800385c:	6016      	str	r6, [r2, #0]
 800385e:	6826      	ldr	r6, [r4, #0]
 8003860:	f8df c09c 	ldr.w	ip, [pc, #156]	@ 8003900 <HAL_FDCAN_GetRxMessage+0x100>
 8003864:	f006 5600 	and.w	r6, r6, #536870912	@ 0x20000000
 8003868:	6096      	str	r6, [r2, #8]
 800386a:	6826      	ldr	r6, [r4, #0]
 800386c:	f006 4600 	and.w	r6, r6, #2147483648	@ 0x80000000
 8003870:	6116      	str	r6, [r2, #16]
 8003872:	88a6      	ldrh	r6, [r4, #4]
 8003874:	61d6      	str	r6, [r2, #28]
 8003876:	88e6      	ldrh	r6, [r4, #6]
 8003878:	f006 060f 	and.w	r6, r6, #15
 800387c:	60d6      	str	r6, [r2, #12]
 800387e:	6866      	ldr	r6, [r4, #4]
 8003880:	f406 1680 	and.w	r6, r6, #1048576	@ 0x100000
 8003884:	6156      	str	r6, [r2, #20]
 8003886:	6866      	ldr	r6, [r4, #4]
 8003888:	f406 1600 	and.w	r6, r6, #2097152	@ 0x200000
 800388c:	6196      	str	r6, [r2, #24]
 800388e:	79e6      	ldrb	r6, [r4, #7]
 8003890:	f006 067f 	and.w	r6, r6, #127	@ 0x7f
 8003894:	6216      	str	r6, [r2, #32]
 8003896:	6866      	ldr	r6, [r4, #4]
 8003898:	0ff6      	lsrs	r6, r6, #31
 800389a:	6256      	str	r6, [r2, #36]	@ 0x24
 800389c:	3407      	adds	r4, #7
 800389e:	2600      	movs	r6, #0
 80038a0:	68d7      	ldr	r7, [r2, #12]
 80038a2:	f81c 7007 	ldrb.w	r7, [ip, r7]
 80038a6:	42b7      	cmp	r7, r6
 80038a8:	d820      	bhi.n	80038ec <HAL_FDCAN_GetRxMessage+0xec>
 80038aa:	6803      	ldr	r3, [r0, #0]
 80038ac:	2940      	cmp	r1, #64	@ 0x40
 80038ae:	bf0c      	ite	eq
 80038b0:	f8c3 5094 	streq.w	r5, [r3, #148]	@ 0x94
 80038b4:	f8c3 509c 	strne.w	r5, [r3, #156]	@ 0x9c
 80038b8:	2000      	movs	r0, #0
 80038ba:	e7b2      	b.n	8003822 <HAL_FDCAN_GetRxMessage+0x22>
 80038bc:	f8d4 5098 	ldr.w	r5, [r4, #152]	@ 0x98
 80038c0:	072d      	lsls	r5, r5, #28
 80038c2:	d0a9      	beq.n	8003818 <HAL_FDCAN_GetRxMessage+0x18>
 80038c4:	f8d4 6098 	ldr.w	r6, [r4, #152]	@ 0x98
 80038c8:	f016 7680 	ands.w	r6, r6, #16777216	@ 0x1000000
 80038cc:	bf18      	it	ne
 80038ce:	f8d4 6080 	ldrne.w	r6, [r4, #128]	@ 0x80
 80038d2:	f8d4 5098 	ldr.w	r5, [r4, #152]	@ 0x98
 80038d6:	6cc4      	ldr	r4, [r0, #76]	@ 0x4c
 80038d8:	bf18      	it	ne
 80038da:	f3c6 2600 	ubfxne	r6, r6, #8, #1
 80038de:	f3c5 2501 	ubfx	r5, r5, #8, #2
 80038e2:	4435      	add	r5, r6
 80038e4:	e7ae      	b.n	8003844 <HAL_FDCAN_GetRxMessage+0x44>
 80038e6:	f026 4660 	bic.w	r6, r6, #3758096384	@ 0xe0000000
 80038ea:	e7b7      	b.n	800385c <HAL_FDCAN_GetRxMessage+0x5c>
 80038ec:	f814 7f01 	ldrb.w	r7, [r4, #1]!
 80038f0:	559f      	strb	r7, [r3, r6]
 80038f2:	3601      	adds	r6, #1
 80038f4:	e7d4      	b.n	80038a0 <HAL_FDCAN_GetRxMessage+0xa0>
 80038f6:	6e03      	ldr	r3, [r0, #96]	@ 0x60
 80038f8:	f043 0308 	orr.w	r3, r3, #8
 80038fc:	e78f      	b.n	800381e <HAL_FDCAN_GetRxMessage+0x1e>
 80038fe:	bf00      	nop
 8003900:	08006d2c 	.word	0x08006d2c

08003904 <HAL_FDCAN_ActivateNotification>:
 8003904:	b530      	push	{r4, r5, lr}
 8003906:	f890 305c 	ldrb.w	r3, [r0, #92]	@ 0x5c
 800390a:	3b01      	subs	r3, #1
 800390c:	2b01      	cmp	r3, #1
 800390e:	d860      	bhi.n	80039d2 <HAL_FDCAN_ActivateNotification+0xce>
 8003910:	6800      	ldr	r0, [r0, #0]
 8003912:	f011 0507 	ands.w	r5, r1, #7
 8003916:	6d83      	ldr	r3, [r0, #88]	@ 0x58
 8003918:	d001      	beq.n	800391e <HAL_FDCAN_ActivateNotification+0x1a>
 800391a:	07dc      	lsls	r4, r3, #31
 800391c:	d51d      	bpl.n	800395a <HAL_FDCAN_ActivateNotification+0x56>
 800391e:	f011 0f38 	tst.w	r1, #56	@ 0x38
 8003922:	d001      	beq.n	8003928 <HAL_FDCAN_ActivateNotification+0x24>
 8003924:	079c      	lsls	r4, r3, #30
 8003926:	d518      	bpl.n	800395a <HAL_FDCAN_ActivateNotification+0x56>
 8003928:	f411 7fe0 	tst.w	r1, #448	@ 0x1c0
 800392c:	d001      	beq.n	8003932 <HAL_FDCAN_ActivateNotification+0x2e>
 800392e:	075c      	lsls	r4, r3, #29
 8003930:	d513      	bpl.n	800395a <HAL_FDCAN_ActivateNotification+0x56>
 8003932:	f411 5ff0 	tst.w	r1, #7680	@ 0x1e00
 8003936:	d001      	beq.n	800393c <HAL_FDCAN_ActivateNotification+0x38>
 8003938:	071c      	lsls	r4, r3, #28
 800393a:	d50e      	bpl.n	800395a <HAL_FDCAN_ActivateNotification+0x56>
 800393c:	f411 4f60 	tst.w	r1, #57344	@ 0xe000
 8003940:	d001      	beq.n	8003946 <HAL_FDCAN_ActivateNotification+0x42>
 8003942:	06dc      	lsls	r4, r3, #27
 8003944:	d509      	bpl.n	800395a <HAL_FDCAN_ActivateNotification+0x56>
 8003946:	f411 3f40 	tst.w	r1, #196608	@ 0x30000
 800394a:	d001      	beq.n	8003950 <HAL_FDCAN_ActivateNotification+0x4c>
 800394c:	069c      	lsls	r4, r3, #26
 800394e:	d504      	bpl.n	800395a <HAL_FDCAN_ActivateNotification+0x56>
 8003950:	f411 0f7c 	tst.w	r1, #16515072	@ 0xfc0000
 8003954:	d005      	beq.n	8003962 <HAL_FDCAN_ActivateNotification+0x5e>
 8003956:	065c      	lsls	r4, r3, #25
 8003958:	d403      	bmi.n	8003962 <HAL_FDCAN_ActivateNotification+0x5e>
 800395a:	6dc4      	ldr	r4, [r0, #92]	@ 0x5c
 800395c:	f044 0401 	orr.w	r4, r4, #1
 8003960:	65c4      	str	r4, [r0, #92]	@ 0x5c
 8003962:	b10d      	cbz	r5, 8003968 <HAL_FDCAN_ActivateNotification+0x64>
 8003964:	07dd      	lsls	r5, r3, #31
 8003966:	d41d      	bmi.n	80039a4 <HAL_FDCAN_ActivateNotification+0xa0>
 8003968:	f011 0f38 	tst.w	r1, #56	@ 0x38
 800396c:	d001      	beq.n	8003972 <HAL_FDCAN_ActivateNotification+0x6e>
 800396e:	079c      	lsls	r4, r3, #30
 8003970:	d418      	bmi.n	80039a4 <HAL_FDCAN_ActivateNotification+0xa0>
 8003972:	f411 7fe0 	tst.w	r1, #448	@ 0x1c0
 8003976:	d001      	beq.n	800397c <HAL_FDCAN_ActivateNotification+0x78>
 8003978:	075d      	lsls	r5, r3, #29
 800397a:	d413      	bmi.n	80039a4 <HAL_FDCAN_ActivateNotification+0xa0>
 800397c:	f411 5ff0 	tst.w	r1, #7680	@ 0x1e00
 8003980:	d001      	beq.n	8003986 <HAL_FDCAN_ActivateNotification+0x82>
 8003982:	071c      	lsls	r4, r3, #28
 8003984:	d40e      	bmi.n	80039a4 <HAL_FDCAN_ActivateNotification+0xa0>
 8003986:	f411 4f60 	tst.w	r1, #57344	@ 0xe000
 800398a:	d001      	beq.n	8003990 <HAL_FDCAN_ActivateNotification+0x8c>
 800398c:	06dd      	lsls	r5, r3, #27
 800398e:	d409      	bmi.n	80039a4 <HAL_FDCAN_ActivateNotification+0xa0>
 8003990:	f411 3f40 	tst.w	r1, #196608	@ 0x30000
 8003994:	d001      	beq.n	800399a <HAL_FDCAN_ActivateNotification+0x96>
 8003996:	069c      	lsls	r4, r3, #26
 8003998:	d404      	bmi.n	80039a4 <HAL_FDCAN_ActivateNotification+0xa0>
 800399a:	f411 0f7c 	tst.w	r1, #16515072	@ 0xfc0000
 800399e:	d005      	beq.n	80039ac <HAL_FDCAN_ActivateNotification+0xa8>
 80039a0:	065d      	lsls	r5, r3, #25
 80039a2:	d503      	bpl.n	80039ac <HAL_FDCAN_ActivateNotification+0xa8>
 80039a4:	6dc3      	ldr	r3, [r0, #92]	@ 0x5c
 80039a6:	f043 0302 	orr.w	r3, r3, #2
 80039aa:	65c3      	str	r3, [r0, #92]	@ 0x5c
 80039ac:	060c      	lsls	r4, r1, #24
 80039ae:	bf42      	ittt	mi
 80039b0:	f8d0 30dc 	ldrmi.w	r3, [r0, #220]	@ 0xdc
 80039b4:	4313      	orrmi	r3, r2
 80039b6:	f8c0 30dc 	strmi.w	r3, [r0, #220]	@ 0xdc
 80039ba:	05cb      	lsls	r3, r1, #23
 80039bc:	bf42      	ittt	mi
 80039be:	f8d0 30e0 	ldrmi.w	r3, [r0, #224]	@ 0xe0
 80039c2:	4313      	orrmi	r3, r2
 80039c4:	f8c0 30e0 	strmi.w	r3, [r0, #224]	@ 0xe0
 80039c8:	6d43      	ldr	r3, [r0, #84]	@ 0x54
 80039ca:	430b      	orrs	r3, r1
 80039cc:	6543      	str	r3, [r0, #84]	@ 0x54
 80039ce:	2000      	movs	r0, #0
 80039d0:	bd30      	pop	{r4, r5, pc}
 80039d2:	6e03      	ldr	r3, [r0, #96]	@ 0x60
 80039d4:	f043 0302 	orr.w	r3, r3, #2
 80039d8:	6603      	str	r3, [r0, #96]	@ 0x60
 80039da:	2001      	movs	r0, #1
 80039dc:	e7f8      	b.n	80039d0 <HAL_FDCAN_ActivateNotification+0xcc>

080039de <HAL_FDCAN_TxEventFifoCallback>:
 80039de:	4770      	bx	lr

080039e0 <HAL_FDCAN_RxFifo1Callback>:
 80039e0:	4770      	bx	lr

080039e2 <HAL_FDCAN_TxFifoEmptyCallback>:
 80039e2:	4770      	bx	lr

080039e4 <HAL_FDCAN_TxBufferCompleteCallback>:
 80039e4:	4770      	bx	lr

080039e6 <HAL_FDCAN_TxBufferAbortCallback>:
 80039e6:	4770      	bx	lr

080039e8 <HAL_FDCAN_TimestampWraparoundCallback>:
 80039e8:	4770      	bx	lr

080039ea <HAL_FDCAN_TimeoutOccurredCallback>:
 80039ea:	4770      	bx	lr

080039ec <HAL_FDCAN_HighPriorityMessageCallback>:
 80039ec:	4770      	bx	lr

080039ee <HAL_FDCAN_ErrorCallback>:
 80039ee:	4770      	bx	lr

080039f0 <HAL_FDCAN_ErrorStatusCallback>:
 80039f0:	4770      	bx	lr

080039f2 <HAL_FDCAN_IRQHandler>:
 80039f2:	e92d 4ff8 	stmdb	sp!, {r3, r4, r5, r6, r7, r8, r9, sl, fp, lr}
 80039f6:	6803      	ldr	r3, [r0, #0]
 80039f8:	6d1a      	ldr	r2, [r3, #80]	@ 0x50
 80039fa:	6d59      	ldr	r1, [r3, #84]	@ 0x54
 80039fc:	ea02 0b01 	and.w	fp, r2, r1
 8003a00:	6d1a      	ldr	r2, [r3, #80]	@ 0x50
 8003a02:	6d59      	ldr	r1, [r3, #84]	@ 0x54
 8003a04:	ea02 0a01 	and.w	sl, r2, r1
 8003a08:	6d1a      	ldr	r2, [r3, #80]	@ 0x50
 8003a0a:	6d59      	ldr	r1, [r3, #84]	@ 0x54
 8003a0c:	6d1d      	ldr	r5, [r3, #80]	@ 0x50
 8003a0e:	ea02 0901 	and.w	r9, r2, r1
 8003a12:	6d5a      	ldr	r2, [r3, #84]	@ 0x54
 8003a14:	6d1e      	ldr	r6, [r3, #80]	@ 0x50
 8003a16:	4015      	ands	r5, r2
 8003a18:	6d5a      	ldr	r2, [r3, #84]	@ 0x54
 8003a1a:	6d5f      	ldr	r7, [r3, #84]	@ 0x54
 8003a1c:	f8d3 8050 	ldr.w	r8, [r3, #80]	@ 0x50
 8003a20:	4016      	ands	r6, r2
 8003a22:	f018 0f40 	tst.w	r8, #64	@ 0x40
 8003a26:	4604      	mov	r4, r0
 8003a28:	f40b 5be0 	and.w	fp, fp, #7168	@ 0x1c00
 8003a2c:	f00a 0a07 	and.w	sl, sl, #7
 8003a30:	f009 0938 	and.w	r9, r9, #56	@ 0x38
 8003a34:	f405 0571 	and.w	r5, r5, #15794176	@ 0xf10000
 8003a38:	f406 2660 	and.w	r6, r6, #917504	@ 0xe0000
 8003a3c:	d005      	beq.n	8003a4a <HAL_FDCAN_IRQHandler+0x58>
 8003a3e:	0679      	lsls	r1, r7, #25
 8003a40:	d503      	bpl.n	8003a4a <HAL_FDCAN_IRQHandler+0x58>
 8003a42:	2240      	movs	r2, #64	@ 0x40
 8003a44:	651a      	str	r2, [r3, #80]	@ 0x50
 8003a46:	f7ff ffd1 	bl	80039ec <HAL_FDCAN_HighPriorityMessageCallback>
 8003a4a:	f418 7f80 	tst.w	r8, #256	@ 0x100
 8003a4e:	d00d      	beq.n	8003a6c <HAL_FDCAN_IRQHandler+0x7a>
 8003a50:	05fa      	lsls	r2, r7, #23
 8003a52:	d50b      	bpl.n	8003a6c <HAL_FDCAN_IRQHandler+0x7a>
 8003a54:	6823      	ldr	r3, [r4, #0]
 8003a56:	f8d3 10d8 	ldr.w	r1, [r3, #216]	@ 0xd8
 8003a5a:	f8d3 20e0 	ldr.w	r2, [r3, #224]	@ 0xe0
 8003a5e:	f44f 7080 	mov.w	r0, #256	@ 0x100
 8003a62:	6518      	str	r0, [r3, #80]	@ 0x50
 8003a64:	4011      	ands	r1, r2
 8003a66:	4620      	mov	r0, r4
 8003a68:	f7ff ffbd 	bl	80039e6 <HAL_FDCAN_TxBufferAbortCallback>
 8003a6c:	f1bb 0f00 	cmp.w	fp, #0
 8003a70:	d006      	beq.n	8003a80 <HAL_FDCAN_IRQHandler+0x8e>
 8003a72:	6823      	ldr	r3, [r4, #0]
 8003a74:	4659      	mov	r1, fp
 8003a76:	f8c3 b050 	str.w	fp, [r3, #80]	@ 0x50
 8003a7a:	4620      	mov	r0, r4
 8003a7c:	f7ff ffaf 	bl	80039de <HAL_FDCAN_TxEventFifoCallback>
 8003a80:	f1ba 0f00 	cmp.w	sl, #0
 8003a84:	d006      	beq.n	8003a94 <HAL_FDCAN_IRQHandler+0xa2>
 8003a86:	6823      	ldr	r3, [r4, #0]
 8003a88:	4651      	mov	r1, sl
 8003a8a:	f8c3 a050 	str.w	sl, [r3, #80]	@ 0x50
 8003a8e:	4620      	mov	r0, r4
 8003a90:	f7fd fa72 	bl	8000f78 <HAL_FDCAN_RxFifo0Callback>
 8003a94:	f1b9 0f00 	cmp.w	r9, #0
 8003a98:	d006      	beq.n	8003aa8 <HAL_FDCAN_IRQHandler+0xb6>
 8003a9a:	6823      	ldr	r3, [r4, #0]
 8003a9c:	4649      	mov	r1, r9
 8003a9e:	f8c3 9050 	str.w	r9, [r3, #80]	@ 0x50
 8003aa2:	4620      	mov	r0, r4
 8003aa4:	f7ff ff9c 	bl	80039e0 <HAL_FDCAN_RxFifo1Callback>
 8003aa8:	f418 7f00 	tst.w	r8, #512	@ 0x200
 8003aac:	d008      	beq.n	8003ac0 <HAL_FDCAN_IRQHandler+0xce>
 8003aae:	05bb      	lsls	r3, r7, #22
 8003ab0:	d506      	bpl.n	8003ac0 <HAL_FDCAN_IRQHandler+0xce>
 8003ab2:	6823      	ldr	r3, [r4, #0]
 8003ab4:	f44f 7200 	mov.w	r2, #512	@ 0x200
 8003ab8:	651a      	str	r2, [r3, #80]	@ 0x50
 8003aba:	4620      	mov	r0, r4
 8003abc:	f7ff ff91 	bl	80039e2 <HAL_FDCAN_TxFifoEmptyCallback>
 8003ac0:	f018 0f80 	tst.w	r8, #128	@ 0x80
 8003ac4:	d00c      	beq.n	8003ae0 <HAL_FDCAN_IRQHandler+0xee>
 8003ac6:	0638      	lsls	r0, r7, #24
 8003ac8:	d50a      	bpl.n	8003ae0 <HAL_FDCAN_IRQHandler+0xee>
 8003aca:	6823      	ldr	r3, [r4, #0]
 8003acc:	f8d3 10d4 	ldr.w	r1, [r3, #212]	@ 0xd4
 8003ad0:	f8d3 20dc 	ldr.w	r2, [r3, #220]	@ 0xdc
 8003ad4:	2080      	movs	r0, #128	@ 0x80
 8003ad6:	6518      	str	r0, [r3, #80]	@ 0x50
 8003ad8:	4011      	ands	r1, r2
 8003ada:	4620      	mov	r0, r4
 8003adc:	f7ff ff82 	bl	80039e4 <HAL_FDCAN_TxBufferCompleteCallback>
 8003ae0:	f418 5f00 	tst.w	r8, #8192	@ 0x2000
 8003ae4:	d008      	beq.n	8003af8 <HAL_FDCAN_IRQHandler+0x106>
 8003ae6:	04b9      	lsls	r1, r7, #18
 8003ae8:	d506      	bpl.n	8003af8 <HAL_FDCAN_IRQHandler+0x106>
 8003aea:	6823      	ldr	r3, [r4, #0]
 8003aec:	f44f 5200 	mov.w	r2, #8192	@ 0x2000
 8003af0:	651a      	str	r2, [r3, #80]	@ 0x50
 8003af2:	4620      	mov	r0, r4
 8003af4:	f7ff ff78 	bl	80039e8 <HAL_FDCAN_TimestampWraparoundCallback>
 8003af8:	f418 4f00 	tst.w	r8, #32768	@ 0x8000
 8003afc:	d008      	beq.n	8003b10 <HAL_FDCAN_IRQHandler+0x11e>
 8003afe:	043a      	lsls	r2, r7, #16
 8003b00:	d506      	bpl.n	8003b10 <HAL_FDCAN_IRQHandler+0x11e>
 8003b02:	6823      	ldr	r3, [r4, #0]
 8003b04:	f44f 4200 	mov.w	r2, #32768	@ 0x8000
 8003b08:	651a      	str	r2, [r3, #80]	@ 0x50
 8003b0a:	4620      	mov	r0, r4
 8003b0c:	f7ff ff6d 	bl	80039ea <HAL_FDCAN_TimeoutOccurredCallback>
 8003b10:	f418 4f80 	tst.w	r8, #16384	@ 0x4000
 8003b14:	d009      	beq.n	8003b2a <HAL_FDCAN_IRQHandler+0x138>
 8003b16:	047b      	lsls	r3, r7, #17
 8003b18:	d507      	bpl.n	8003b2a <HAL_FDCAN_IRQHandler+0x138>
 8003b1a:	6823      	ldr	r3, [r4, #0]
 8003b1c:	f44f 4280 	mov.w	r2, #16384	@ 0x4000
 8003b20:	651a      	str	r2, [r3, #80]	@ 0x50
 8003b22:	6e23      	ldr	r3, [r4, #96]	@ 0x60
 8003b24:	f043 0380 	orr.w	r3, r3, #128	@ 0x80
 8003b28:	6623      	str	r3, [r4, #96]	@ 0x60
 8003b2a:	b12e      	cbz	r6, 8003b38 <HAL_FDCAN_IRQHandler+0x146>
 8003b2c:	6823      	ldr	r3, [r4, #0]
 8003b2e:	4631      	mov	r1, r6
 8003b30:	651e      	str	r6, [r3, #80]	@ 0x50
 8003b32:	4620      	mov	r0, r4
 8003b34:	f7ff ff5c 	bl	80039f0 <HAL_FDCAN_ErrorStatusCallback>
 8003b38:	b125      	cbz	r5, 8003b44 <HAL_FDCAN_IRQHandler+0x152>
 8003b3a:	6823      	ldr	r3, [r4, #0]
 8003b3c:	651d      	str	r5, [r3, #80]	@ 0x50
 8003b3e:	6e23      	ldr	r3, [r4, #96]	@ 0x60
 8003b40:	432b      	orrs	r3, r5
 8003b42:	6623      	str	r3, [r4, #96]	@ 0x60
 8003b44:	6e23      	ldr	r3, [r4, #96]	@ 0x60
 8003b46:	b113      	cbz	r3, 8003b4e <HAL_FDCAN_IRQHandler+0x15c>
 8003b48:	4620      	mov	r0, r4
 8003b4a:	f7ff ff50 	bl	80039ee <HAL_FDCAN_ErrorCallback>
 8003b4e:	e8bd 8ff8 	ldmia.w	sp!, {r3, r4, r5, r6, r7, r8, r9, sl, fp, pc}
	...

08003b54 <HAL_GPIO_Init>:
 8003b54:	e92d 4ff7 	stmdb	sp!, {r0, r1, r2, r4, r5, r6, r7, r8, r9, sl, fp, lr}
 8003b58:	f8df 9188 	ldr.w	r9, [pc, #392]	@ 8003ce4 <HAL_GPIO_Init+0x190>
 8003b5c:	4c5f      	ldr	r4, [pc, #380]	@ (8003cdc <HAL_GPIO_Init+0x188>)
 8003b5e:	2300      	movs	r3, #0
 8003b60:	680a      	ldr	r2, [r1, #0]
 8003b62:	fa32 f503 	lsrs.w	r5, r2, r3
 8003b66:	d102      	bne.n	8003b6e <HAL_GPIO_Init+0x1a>
 8003b68:	b003      	add	sp, #12
 8003b6a:	e8bd 8ff0 	ldmia.w	sp!, {r4, r5, r6, r7, r8, r9, sl, fp, pc}
 8003b6e:	2501      	movs	r5, #1
 8003b70:	fa05 f803 	lsl.w	r8, r5, r3
 8003b74:	ea18 0202 	ands.w	r2, r8, r2
 8003b78:	f000 80a4 	beq.w	8003cc4 <HAL_GPIO_Init+0x170>
 8003b7c:	684e      	ldr	r6, [r1, #4]
 8003b7e:	2703      	movs	r7, #3
 8003b80:	f006 0503 	and.w	r5, r6, #3
 8003b84:	ea4f 0e43 	mov.w	lr, r3, lsl #1
 8003b88:	fa07 fc0e 	lsl.w	ip, r7, lr
 8003b8c:	1e6f      	subs	r7, r5, #1
 8003b8e:	2f01      	cmp	r7, #1
 8003b90:	ea6f 0c0c 	mvn.w	ip, ip
 8003b94:	d834      	bhi.n	8003c00 <HAL_GPIO_Init+0xac>
 8003b96:	6887      	ldr	r7, [r0, #8]
 8003b98:	ea07 0a0c 	and.w	sl, r7, ip
 8003b9c:	68cf      	ldr	r7, [r1, #12]
 8003b9e:	fa07 f70e 	lsl.w	r7, r7, lr
 8003ba2:	ea47 070a 	orr.w	r7, r7, sl
 8003ba6:	6087      	str	r7, [r0, #8]
 8003ba8:	6847      	ldr	r7, [r0, #4]
 8003baa:	ea27 0808 	bic.w	r8, r7, r8
 8003bae:	f3c6 1700 	ubfx	r7, r6, #4, #1
 8003bb2:	409f      	lsls	r7, r3
 8003bb4:	ea47 0708 	orr.w	r7, r7, r8
 8003bb8:	6047      	str	r7, [r0, #4]
 8003bba:	68c7      	ldr	r7, [r0, #12]
 8003bbc:	ea07 080c 	and.w	r8, r7, ip
 8003bc0:	688f      	ldr	r7, [r1, #8]
 8003bc2:	fa07 f70e 	lsl.w	r7, r7, lr
 8003bc6:	ea47 0708 	orr.w	r7, r7, r8
 8003bca:	2d02      	cmp	r5, #2
 8003bcc:	60c7      	str	r7, [r0, #12]
 8003bce:	d119      	bne.n	8003c04 <HAL_GPIO_Init+0xb0>
 8003bd0:	ea4f 08d3 	mov.w	r8, r3, lsr #3
 8003bd4:	eb00 0888 	add.w	r8, r0, r8, lsl #2
 8003bd8:	f003 0a07 	and.w	sl, r3, #7
 8003bdc:	f8d8 7020 	ldr.w	r7, [r8, #32]
 8003be0:	ea4f 0a8a 	mov.w	sl, sl, lsl #2
 8003be4:	f04f 0b0f 	mov.w	fp, #15
 8003be8:	fa0b fb0a 	lsl.w	fp, fp, sl
 8003bec:	ea27 0b0b 	bic.w	fp, r7, fp
 8003bf0:	690f      	ldr	r7, [r1, #16]
 8003bf2:	fa07 f70a 	lsl.w	r7, r7, sl
 8003bf6:	ea47 070b 	orr.w	r7, r7, fp
 8003bfa:	f8c8 7020 	str.w	r7, [r8, #32]
 8003bfe:	e001      	b.n	8003c04 <HAL_GPIO_Init+0xb0>
 8003c00:	2d03      	cmp	r5, #3
 8003c02:	d1da      	bne.n	8003bba <HAL_GPIO_Init+0x66>
 8003c04:	6807      	ldr	r7, [r0, #0]
 8003c06:	fa05 f50e 	lsl.w	r5, r5, lr
 8003c0a:	ea07 070c 	and.w	r7, r7, ip
 8003c0e:	433d      	orrs	r5, r7
 8003c10:	f416 3f40 	tst.w	r6, #196608	@ 0x30000
 8003c14:	6005      	str	r5, [r0, #0]
 8003c16:	d055      	beq.n	8003cc4 <HAL_GPIO_Init+0x170>
 8003c18:	f8d9 5060 	ldr.w	r5, [r9, #96]	@ 0x60
 8003c1c:	f045 0501 	orr.w	r5, r5, #1
 8003c20:	f8c9 5060 	str.w	r5, [r9, #96]	@ 0x60
 8003c24:	f8d9 5060 	ldr.w	r5, [r9, #96]	@ 0x60
 8003c28:	f023 0703 	bic.w	r7, r3, #3
 8003c2c:	f107 4780 	add.w	r7, r7, #1073741824	@ 0x40000000
 8003c30:	f005 0501 	and.w	r5, r5, #1
 8003c34:	f507 3780 	add.w	r7, r7, #65536	@ 0x10000
 8003c38:	9501      	str	r5, [sp, #4]
 8003c3a:	f003 0c03 	and.w	ip, r3, #3
 8003c3e:	9d01      	ldr	r5, [sp, #4]
 8003c40:	68bd      	ldr	r5, [r7, #8]
 8003c42:	ea4f 0c8c 	mov.w	ip, ip, lsl #2
 8003c46:	f04f 0e0f 	mov.w	lr, #15
 8003c4a:	fa0e fe0c 	lsl.w	lr, lr, ip
 8003c4e:	f1b0 4f90 	cmp.w	r0, #1207959552	@ 0x48000000
 8003c52:	ea25 0e0e 	bic.w	lr, r5, lr
 8003c56:	d037      	beq.n	8003cc8 <HAL_GPIO_Init+0x174>
 8003c58:	4d21      	ldr	r5, [pc, #132]	@ (8003ce0 <HAL_GPIO_Init+0x18c>)
 8003c5a:	42a8      	cmp	r0, r5
 8003c5c:	d036      	beq.n	8003ccc <HAL_GPIO_Init+0x178>
 8003c5e:	f505 6580 	add.w	r5, r5, #1024	@ 0x400
 8003c62:	42a8      	cmp	r0, r5
 8003c64:	d034      	beq.n	8003cd0 <HAL_GPIO_Init+0x17c>
 8003c66:	f505 6580 	add.w	r5, r5, #1024	@ 0x400
 8003c6a:	42a8      	cmp	r0, r5
 8003c6c:	d032      	beq.n	8003cd4 <HAL_GPIO_Init+0x180>
 8003c6e:	f505 6580 	add.w	r5, r5, #1024	@ 0x400
 8003c72:	42a8      	cmp	r0, r5
 8003c74:	d030      	beq.n	8003cd8 <HAL_GPIO_Init+0x184>
 8003c76:	f505 6580 	add.w	r5, r5, #1024	@ 0x400
 8003c7a:	42a8      	cmp	r0, r5
 8003c7c:	bf14      	ite	ne
 8003c7e:	2506      	movne	r5, #6
 8003c80:	2505      	moveq	r5, #5
 8003c82:	fa05 f50c 	lsl.w	r5, r5, ip
 8003c86:	ea45 050e 	orr.w	r5, r5, lr
 8003c8a:	60bd      	str	r5, [r7, #8]
 8003c8c:	68a5      	ldr	r5, [r4, #8]
 8003c8e:	43d7      	mvns	r7, r2
 8003c90:	f416 1f80 	tst.w	r6, #1048576	@ 0x100000
 8003c94:	bf0c      	ite	eq
 8003c96:	403d      	andeq	r5, r7
 8003c98:	4315      	orrne	r5, r2
 8003c9a:	60a5      	str	r5, [r4, #8]
 8003c9c:	68e5      	ldr	r5, [r4, #12]
 8003c9e:	f416 1f00 	tst.w	r6, #2097152	@ 0x200000
 8003ca2:	bf0c      	ite	eq
 8003ca4:	403d      	andeq	r5, r7
 8003ca6:	4315      	orrne	r5, r2
 8003ca8:	60e5      	str	r5, [r4, #12]
 8003caa:	6865      	ldr	r5, [r4, #4]
 8003cac:	f416 3f00 	tst.w	r6, #131072	@ 0x20000
 8003cb0:	bf0c      	ite	eq
 8003cb2:	403d      	andeq	r5, r7
 8003cb4:	4315      	orrne	r5, r2
 8003cb6:	6065      	str	r5, [r4, #4]
 8003cb8:	6825      	ldr	r5, [r4, #0]
 8003cba:	03f6      	lsls	r6, r6, #15
 8003cbc:	bf54      	ite	pl
 8003cbe:	403d      	andpl	r5, r7
 8003cc0:	4315      	orrmi	r5, r2
 8003cc2:	6025      	str	r5, [r4, #0]
 8003cc4:	3301      	adds	r3, #1
 8003cc6:	e74b      	b.n	8003b60 <HAL_GPIO_Init+0xc>
 8003cc8:	2500      	movs	r5, #0
 8003cca:	e7da      	b.n	8003c82 <HAL_GPIO_Init+0x12e>
 8003ccc:	2501      	movs	r5, #1
 8003cce:	e7d8      	b.n	8003c82 <HAL_GPIO_Init+0x12e>
 8003cd0:	2502      	movs	r5, #2
 8003cd2:	e7d6      	b.n	8003c82 <HAL_GPIO_Init+0x12e>
 8003cd4:	2503      	movs	r5, #3
 8003cd6:	e7d4      	b.n	8003c82 <HAL_GPIO_Init+0x12e>
 8003cd8:	2504      	movs	r5, #4
 8003cda:	e7d2      	b.n	8003c82 <HAL_GPIO_Init+0x12e>
 8003cdc:	40010400 	.word	0x40010400
 8003ce0:	48000400 	.word	0x48000400
 8003ce4:	40021000 	.word	0x40021000

08003ce8 <HAL_GPIO_ReadPin>:
 8003ce8:	6903      	ldr	r3, [r0, #16]
 8003cea:	4219      	tst	r1, r3
 8003cec:	bf14      	ite	ne
 8003cee:	2001      	movne	r0, #1
 8003cf0:	2000      	moveq	r0, #0
 8003cf2:	4770      	bx	lr

08003cf4 <HAL_GPIO_WritePin>:
 8003cf4:	b10a      	cbz	r2, 8003cfa <HAL_GPIO_WritePin+0x6>
 8003cf6:	6181      	str	r1, [r0, #24]
 8003cf8:	4770      	bx	lr
 8003cfa:	6281      	str	r1, [r0, #40]	@ 0x28
 8003cfc:	4770      	bx	lr

08003cfe <HAL_GPIO_TogglePin>:
 8003cfe:	6943      	ldr	r3, [r0, #20]
 8003d00:	ea01 0203 	and.w	r2, r1, r3
 8003d04:	ea21 0103 	bic.w	r1, r1, r3
 8003d08:	ea41 4102 	orr.w	r1, r1, r2, lsl #16
 8003d0c:	6181      	str	r1, [r0, #24]
 8003d0e:	4770      	bx	lr

08003d10 <HAL_IWDG_Refresh>:
 8003d10:	6803      	ldr	r3, [r0, #0]
 8003d12:	f64a 22aa 	movw	r2, #43690	@ 0xaaaa
 8003d16:	601a      	str	r2, [r3, #0]
 8003d18:	2000      	movs	r0, #0
 8003d1a:	4770      	bx	lr

08003d1c <HAL_PWREx_ControlVoltageScaling>:
 8003d1c:	4b28      	ldr	r3, [pc, #160]	@ (8003dc0 <HAL_PWREx_ControlVoltageScaling+0xa4>)
 8003d1e:	681a      	ldr	r2, [r3, #0]
 8003d20:	bb18      	cbnz	r0, 8003d6a <HAL_PWREx_ControlVoltageScaling+0x4e>
 8003d22:	f402 62c0 	and.w	r2, r2, #1536	@ 0x600
 8003d26:	f5b2 6f80 	cmp.w	r2, #1024	@ 0x400
 8003d2a:	f8d3 2080 	ldr.w	r2, [r3, #128]	@ 0x80
 8003d2e:	f422 7280 	bic.w	r2, r2, #256	@ 0x100
 8003d32:	f8c3 2080 	str.w	r2, [r3, #128]	@ 0x80
 8003d36:	d140      	bne.n	8003dba <HAL_PWREx_ControlVoltageScaling+0x9e>
 8003d38:	681a      	ldr	r2, [r3, #0]
 8003d3a:	f422 62c0 	bic.w	r2, r2, #1536	@ 0x600
 8003d3e:	f442 7200 	orr.w	r2, r2, #512	@ 0x200
 8003d42:	601a      	str	r2, [r3, #0]
 8003d44:	4a1f      	ldr	r2, [pc, #124]	@ (8003dc4 <HAL_PWREx_ControlVoltageScaling+0xa8>)
 8003d46:	6812      	ldr	r2, [r2, #0]
 8003d48:	2132      	movs	r1, #50	@ 0x32
 8003d4a:	434a      	muls	r2, r1
 8003d4c:	491e      	ldr	r1, [pc, #120]	@ (8003dc8 <HAL_PWREx_ControlVoltageScaling+0xac>)
 8003d4e:	fbb2 f2f1 	udiv	r2, r2, r1
 8003d52:	3201      	adds	r2, #1
 8003d54:	6959      	ldr	r1, [r3, #20]
 8003d56:	0549      	lsls	r1, r1, #21
 8003d58:	d500      	bpl.n	8003d5c <HAL_PWREx_ControlVoltageScaling+0x40>
 8003d5a:	b922      	cbnz	r2, 8003d66 <HAL_PWREx_ControlVoltageScaling+0x4a>
 8003d5c:	695b      	ldr	r3, [r3, #20]
 8003d5e:	0558      	lsls	r0, r3, #21
 8003d60:	d52b      	bpl.n	8003dba <HAL_PWREx_ControlVoltageScaling+0x9e>
 8003d62:	2003      	movs	r0, #3
 8003d64:	4770      	bx	lr
 8003d66:	3a01      	subs	r2, #1
 8003d68:	e7f4      	b.n	8003d54 <HAL_PWREx_ControlVoltageScaling+0x38>
 8003d6a:	f5b0 7f00 	cmp.w	r0, #512	@ 0x200
 8003d6e:	d11f      	bne.n	8003db0 <HAL_PWREx_ControlVoltageScaling+0x94>
 8003d70:	f402 62c0 	and.w	r2, r2, #1536	@ 0x600
 8003d74:	f5b2 6f80 	cmp.w	r2, #1024	@ 0x400
 8003d78:	f8d3 2080 	ldr.w	r2, [r3, #128]	@ 0x80
 8003d7c:	f442 7280 	orr.w	r2, r2, #256	@ 0x100
 8003d80:	f8c3 2080 	str.w	r2, [r3, #128]	@ 0x80
 8003d84:	d119      	bne.n	8003dba <HAL_PWREx_ControlVoltageScaling+0x9e>
 8003d86:	681a      	ldr	r2, [r3, #0]
 8003d88:	f422 62c0 	bic.w	r2, r2, #1536	@ 0x600
 8003d8c:	f442 7200 	orr.w	r2, r2, #512	@ 0x200
 8003d90:	601a      	str	r2, [r3, #0]
 8003d92:	4a0c      	ldr	r2, [pc, #48]	@ (8003dc4 <HAL_PWREx_ControlVoltageScaling+0xa8>)
 8003d94:	6812      	ldr	r2, [r2, #0]
 8003d96:	2132      	movs	r1, #50	@ 0x32
 8003d98:	434a      	muls	r2, r1
 8003d9a:	490b      	ldr	r1, [pc, #44]	@ (8003dc8 <HAL_PWREx_ControlVoltageScaling+0xac>)
 8003d9c:	fbb2 f2f1 	udiv	r2, r2, r1
 8003da0:	3201      	adds	r2, #1
 8003da2:	6959      	ldr	r1, [r3, #20]
 8003da4:	0549      	lsls	r1, r1, #21
 8003da6:	d5d9      	bpl.n	8003d5c <HAL_PWREx_ControlVoltageScaling+0x40>
 8003da8:	2a00      	cmp	r2, #0
 8003daa:	d0d7      	beq.n	8003d5c <HAL_PWREx_ControlVoltageScaling+0x40>
 8003dac:	3a01      	subs	r2, #1
 8003dae:	e7f8      	b.n	8003da2 <HAL_PWREx_ControlVoltageScaling+0x86>
 8003db0:	f422 62c0 	bic.w	r2, r2, #1536	@ 0x600
 8003db4:	f442 6280 	orr.w	r2, r2, #1024	@ 0x400
 8003db8:	601a      	str	r2, [r3, #0]
 8003dba:	2000      	movs	r0, #0
 8003dbc:	4770      	bx	lr
 8003dbe:	bf00      	nop
 8003dc0:	40007000 	.word	0x40007000
 8003dc4:	200001e4 	.word	0x200001e4
 8003dc8:	000f4240 	.word	0x000f4240

08003dcc <HAL_PWREx_DisableUCPDDeadBattery>:
 8003dcc:	4a02      	ldr	r2, [pc, #8]	@ (8003dd8 <HAL_PWREx_DisableUCPDDeadBattery+0xc>)
 8003dce:	6893      	ldr	r3, [r2, #8]
 8003dd0:	f443 4380 	orr.w	r3, r3, #16384	@ 0x4000
 8003dd4:	6093      	str	r3, [r2, #8]
 8003dd6:	4770      	bx	lr
 8003dd8:	40007000 	.word	0x40007000

08003ddc <HAL_RCC_OscConfig>:
 8003ddc:	e92d 41f3 	stmdb	sp!, {r0, r1, r4, r5, r6, r7, r8, lr}
 8003de0:	4604      	mov	r4, r0
 8003de2:	b918      	cbnz	r0, 8003dec <HAL_RCC_OscConfig+0x10>
 8003de4:	2001      	movs	r0, #1
 8003de6:	b002      	add	sp, #8
 8003de8:	e8bd 81f0 	ldmia.w	sp!, {r4, r5, r6, r7, r8, pc}
 8003dec:	6803      	ldr	r3, [r0, #0]
 8003dee:	07d9      	lsls	r1, r3, #31
 8003df0:	d414      	bmi.n	8003e1c <HAL_RCC_OscConfig+0x40>
 8003df2:	6823      	ldr	r3, [r4, #0]
 8003df4:	079a      	lsls	r2, r3, #30
 8003df6:	d458      	bmi.n	8003eaa <HAL_RCC_OscConfig+0xce>
 8003df8:	6823      	ldr	r3, [r4, #0]
 8003dfa:	0719      	lsls	r1, r3, #28
 8003dfc:	f100 80a1 	bmi.w	8003f42 <HAL_RCC_OscConfig+0x166>
 8003e00:	6823      	ldr	r3, [r4, #0]
 8003e02:	075a      	lsls	r2, r3, #29
 8003e04:	f100 80c8 	bmi.w	8003f98 <HAL_RCC_OscConfig+0x1bc>
 8003e08:	6823      	ldr	r3, [r4, #0]
 8003e0a:	069a      	lsls	r2, r3, #26
 8003e0c:	f100 812f 	bmi.w	800406e <HAL_RCC_OscConfig+0x292>
 8003e10:	69e3      	ldr	r3, [r4, #28]
 8003e12:	2b00      	cmp	r3, #0
 8003e14:	f040 815c 	bne.w	80040d0 <HAL_RCC_OscConfig+0x2f4>
 8003e18:	2000      	movs	r0, #0
 8003e1a:	e7e4      	b.n	8003de6 <HAL_RCC_OscConfig+0xa>
 8003e1c:	4d9f      	ldr	r5, [pc, #636]	@ (800409c <HAL_RCC_OscConfig+0x2c0>)
 8003e1e:	68ab      	ldr	r3, [r5, #8]
 8003e20:	68ea      	ldr	r2, [r5, #12]
 8003e22:	f003 030c 	and.w	r3, r3, #12
 8003e26:	2b0c      	cmp	r3, #12
 8003e28:	d10a      	bne.n	8003e40 <HAL_RCC_OscConfig+0x64>
 8003e2a:	f002 0303 	and.w	r3, r2, #3
 8003e2e:	2b03      	cmp	r3, #3
 8003e30:	d108      	bne.n	8003e44 <HAL_RCC_OscConfig+0x68>
 8003e32:	682b      	ldr	r3, [r5, #0]
 8003e34:	039b      	lsls	r3, r3, #14
 8003e36:	d5dc      	bpl.n	8003df2 <HAL_RCC_OscConfig+0x16>
 8003e38:	6863      	ldr	r3, [r4, #4]
 8003e3a:	2b00      	cmp	r3, #0
 8003e3c:	d1d9      	bne.n	8003df2 <HAL_RCC_OscConfig+0x16>
 8003e3e:	e7d1      	b.n	8003de4 <HAL_RCC_OscConfig+0x8>
 8003e40:	2b08      	cmp	r3, #8
 8003e42:	e7f5      	b.n	8003e30 <HAL_RCC_OscConfig+0x54>
 8003e44:	6863      	ldr	r3, [r4, #4]
 8003e46:	f5b3 3f80 	cmp.w	r3, #65536	@ 0x10000
 8003e4a:	d110      	bne.n	8003e6e <HAL_RCC_OscConfig+0x92>
 8003e4c:	682b      	ldr	r3, [r5, #0]
 8003e4e:	f443 3380 	orr.w	r3, r3, #65536	@ 0x10000
 8003e52:	602b      	str	r3, [r5, #0]
 8003e54:	f7fe f9c2 	bl	80021dc <HAL_GetTick>
 8003e58:	4606      	mov	r6, r0
 8003e5a:	682b      	ldr	r3, [r5, #0]
 8003e5c:	039f      	lsls	r7, r3, #14
 8003e5e:	d4c8      	bmi.n	8003df2 <HAL_RCC_OscConfig+0x16>
 8003e60:	f7fe f9bc 	bl	80021dc <HAL_GetTick>
 8003e64:	1b80      	subs	r0, r0, r6
 8003e66:	2864      	cmp	r0, #100	@ 0x64
 8003e68:	d9f7      	bls.n	8003e5a <HAL_RCC_OscConfig+0x7e>
 8003e6a:	2003      	movs	r0, #3
 8003e6c:	e7bb      	b.n	8003de6 <HAL_RCC_OscConfig+0xa>
 8003e6e:	f5b3 2fa0 	cmp.w	r3, #327680	@ 0x50000
 8003e72:	d104      	bne.n	8003e7e <HAL_RCC_OscConfig+0xa2>
 8003e74:	682b      	ldr	r3, [r5, #0]
 8003e76:	f443 2380 	orr.w	r3, r3, #262144	@ 0x40000
 8003e7a:	602b      	str	r3, [r5, #0]
 8003e7c:	e7e6      	b.n	8003e4c <HAL_RCC_OscConfig+0x70>
 8003e7e:	682a      	ldr	r2, [r5, #0]
 8003e80:	f422 3280 	bic.w	r2, r2, #65536	@ 0x10000
 8003e84:	602a      	str	r2, [r5, #0]
 8003e86:	682a      	ldr	r2, [r5, #0]
 8003e88:	f422 2280 	bic.w	r2, r2, #262144	@ 0x40000
 8003e8c:	602a      	str	r2, [r5, #0]
 8003e8e:	2b00      	cmp	r3, #0
 8003e90:	d1e0      	bne.n	8003e54 <HAL_RCC_OscConfig+0x78>
 8003e92:	f7fe f9a3 	bl	80021dc <HAL_GetTick>
 8003e96:	4606      	mov	r6, r0
 8003e98:	682b      	ldr	r3, [r5, #0]
 8003e9a:	0399      	lsls	r1, r3, #14
 8003e9c:	d5a9      	bpl.n	8003df2 <HAL_RCC_OscConfig+0x16>
 8003e9e:	f7fe f99d 	bl	80021dc <HAL_GetTick>
 8003ea2:	1b80      	subs	r0, r0, r6
 8003ea4:	2864      	cmp	r0, #100	@ 0x64
 8003ea6:	d9f7      	bls.n	8003e98 <HAL_RCC_OscConfig+0xbc>
 8003ea8:	e7df      	b.n	8003e6a <HAL_RCC_OscConfig+0x8e>
 8003eaa:	4d7c      	ldr	r5, [pc, #496]	@ (800409c <HAL_RCC_OscConfig+0x2c0>)
 8003eac:	68ab      	ldr	r3, [r5, #8]
 8003eae:	68ea      	ldr	r2, [r5, #12]
 8003eb0:	f003 030c 	and.w	r3, r3, #12
 8003eb4:	2b0c      	cmp	r3, #12
 8003eb6:	d117      	bne.n	8003ee8 <HAL_RCC_OscConfig+0x10c>
 8003eb8:	f002 0303 	and.w	r3, r2, #3
 8003ebc:	2b02      	cmp	r3, #2
 8003ebe:	d115      	bne.n	8003eec <HAL_RCC_OscConfig+0x110>
 8003ec0:	682b      	ldr	r3, [r5, #0]
 8003ec2:	055a      	lsls	r2, r3, #21
 8003ec4:	d502      	bpl.n	8003ecc <HAL_RCC_OscConfig+0xf0>
 8003ec6:	68e3      	ldr	r3, [r4, #12]
 8003ec8:	2b00      	cmp	r3, #0
 8003eca:	d08b      	beq.n	8003de4 <HAL_RCC_OscConfig+0x8>
 8003ecc:	686b      	ldr	r3, [r5, #4]
 8003ece:	6922      	ldr	r2, [r4, #16]
 8003ed0:	f023 43fe 	bic.w	r3, r3, #2130706432	@ 0x7f000000
 8003ed4:	ea43 6302 	orr.w	r3, r3, r2, lsl #24
 8003ed8:	606b      	str	r3, [r5, #4]
 8003eda:	4b71      	ldr	r3, [pc, #452]	@ (80040a0 <HAL_RCC_OscConfig+0x2c4>)
 8003edc:	6818      	ldr	r0, [r3, #0]
 8003ede:	f7fd fdf9 	bl	8001ad4 <HAL_InitTick>
 8003ee2:	2800      	cmp	r0, #0
 8003ee4:	d088      	beq.n	8003df8 <HAL_RCC_OscConfig+0x1c>
 8003ee6:	e77d      	b.n	8003de4 <HAL_RCC_OscConfig+0x8>
 8003ee8:	2b04      	cmp	r3, #4
 8003eea:	e7e8      	b.n	8003ebe <HAL_RCC_OscConfig+0xe2>
 8003eec:	68e3      	ldr	r3, [r4, #12]
 8003eee:	b1bb      	cbz	r3, 8003f20 <HAL_RCC_OscConfig+0x144>
 8003ef0:	682b      	ldr	r3, [r5, #0]
 8003ef2:	f443 7380 	orr.w	r3, r3, #256	@ 0x100
 8003ef6:	602b      	str	r3, [r5, #0]
 8003ef8:	f7fe f970 	bl	80021dc <HAL_GetTick>
 8003efc:	4606      	mov	r6, r0
 8003efe:	682b      	ldr	r3, [r5, #0]
 8003f00:	055b      	lsls	r3, r3, #21
 8003f02:	d507      	bpl.n	8003f14 <HAL_RCC_OscConfig+0x138>
 8003f04:	686b      	ldr	r3, [r5, #4]
 8003f06:	6922      	ldr	r2, [r4, #16]
 8003f08:	f023 43fe 	bic.w	r3, r3, #2130706432	@ 0x7f000000
 8003f0c:	ea43 6302 	orr.w	r3, r3, r2, lsl #24
 8003f10:	606b      	str	r3, [r5, #4]
 8003f12:	e771      	b.n	8003df8 <HAL_RCC_OscConfig+0x1c>
 8003f14:	f7fe f962 	bl	80021dc <HAL_GetTick>
 8003f18:	1b80      	subs	r0, r0, r6
 8003f1a:	2802      	cmp	r0, #2
 8003f1c:	d9ef      	bls.n	8003efe <HAL_RCC_OscConfig+0x122>
 8003f1e:	e7a4      	b.n	8003e6a <HAL_RCC_OscConfig+0x8e>
 8003f20:	682b      	ldr	r3, [r5, #0]
 8003f22:	f423 7380 	bic.w	r3, r3, #256	@ 0x100
 8003f26:	602b      	str	r3, [r5, #0]
 8003f28:	f7fe f958 	bl	80021dc <HAL_GetTick>
 8003f2c:	4606      	mov	r6, r0
 8003f2e:	682b      	ldr	r3, [r5, #0]
 8003f30:	055f      	lsls	r7, r3, #21
 8003f32:	f57f af61 	bpl.w	8003df8 <HAL_RCC_OscConfig+0x1c>
 8003f36:	f7fe f951 	bl	80021dc <HAL_GetTick>
 8003f3a:	1b80      	subs	r0, r0, r6
 8003f3c:	2802      	cmp	r0, #2
 8003f3e:	d9f6      	bls.n	8003f2e <HAL_RCC_OscConfig+0x152>
 8003f40:	e793      	b.n	8003e6a <HAL_RCC_OscConfig+0x8e>
 8003f42:	6963      	ldr	r3, [r4, #20]
 8003f44:	4d55      	ldr	r5, [pc, #340]	@ (800409c <HAL_RCC_OscConfig+0x2c0>)
 8003f46:	b19b      	cbz	r3, 8003f70 <HAL_RCC_OscConfig+0x194>
 8003f48:	f8d5 3094 	ldr.w	r3, [r5, #148]	@ 0x94
 8003f4c:	f043 0301 	orr.w	r3, r3, #1
 8003f50:	f8c5 3094 	str.w	r3, [r5, #148]	@ 0x94
 8003f54:	f7fe f942 	bl	80021dc <HAL_GetTick>
 8003f58:	4606      	mov	r6, r0
 8003f5a:	f8d5 3094 	ldr.w	r3, [r5, #148]	@ 0x94
 8003f5e:	079b      	lsls	r3, r3, #30
 8003f60:	f53f af4e 	bmi.w	8003e00 <HAL_RCC_OscConfig+0x24>
 8003f64:	f7fe f93a 	bl	80021dc <HAL_GetTick>
 8003f68:	1b80      	subs	r0, r0, r6
 8003f6a:	2802      	cmp	r0, #2
 8003f6c:	d9f5      	bls.n	8003f5a <HAL_RCC_OscConfig+0x17e>
 8003f6e:	e77c      	b.n	8003e6a <HAL_RCC_OscConfig+0x8e>
 8003f70:	f8d5 3094 	ldr.w	r3, [r5, #148]	@ 0x94
 8003f74:	f023 0301 	bic.w	r3, r3, #1
 8003f78:	f8c5 3094 	str.w	r3, [r5, #148]	@ 0x94
 8003f7c:	f7fe f92e 	bl	80021dc <HAL_GetTick>
 8003f80:	4606      	mov	r6, r0
 8003f82:	f8d5 3094 	ldr.w	r3, [r5, #148]	@ 0x94
 8003f86:	079f      	lsls	r7, r3, #30
 8003f88:	f57f af3a 	bpl.w	8003e00 <HAL_RCC_OscConfig+0x24>
 8003f8c:	f7fe f926 	bl	80021dc <HAL_GetTick>
 8003f90:	1b80      	subs	r0, r0, r6
 8003f92:	2802      	cmp	r0, #2
 8003f94:	d9f5      	bls.n	8003f82 <HAL_RCC_OscConfig+0x1a6>
 8003f96:	e768      	b.n	8003e6a <HAL_RCC_OscConfig+0x8e>
 8003f98:	4d40      	ldr	r5, [pc, #256]	@ (800409c <HAL_RCC_OscConfig+0x2c0>)
 8003f9a:	6dab      	ldr	r3, [r5, #88]	@ 0x58
 8003f9c:	00d8      	lsls	r0, r3, #3
 8003f9e:	d427      	bmi.n	8003ff0 <HAL_RCC_OscConfig+0x214>
 8003fa0:	6dab      	ldr	r3, [r5, #88]	@ 0x58
 8003fa2:	f043 5380 	orr.w	r3, r3, #268435456	@ 0x10000000
 8003fa6:	65ab      	str	r3, [r5, #88]	@ 0x58
 8003fa8:	6dab      	ldr	r3, [r5, #88]	@ 0x58
 8003faa:	f003 5380 	and.w	r3, r3, #268435456	@ 0x10000000
 8003fae:	9301      	str	r3, [sp, #4]
 8003fb0:	9b01      	ldr	r3, [sp, #4]
 8003fb2:	2701      	movs	r7, #1
 8003fb4:	4e3b      	ldr	r6, [pc, #236]	@ (80040a4 <HAL_RCC_OscConfig+0x2c8>)
 8003fb6:	6833      	ldr	r3, [r6, #0]
 8003fb8:	05d9      	lsls	r1, r3, #23
 8003fba:	d51b      	bpl.n	8003ff4 <HAL_RCC_OscConfig+0x218>
 8003fbc:	68a3      	ldr	r3, [r4, #8]
 8003fbe:	2b01      	cmp	r3, #1
 8003fc0:	d129      	bne.n	8004016 <HAL_RCC_OscConfig+0x23a>
 8003fc2:	f8d5 3090 	ldr.w	r3, [r5, #144]	@ 0x90
 8003fc6:	f043 0301 	orr.w	r3, r3, #1
 8003fca:	f8c5 3090 	str.w	r3, [r5, #144]	@ 0x90
 8003fce:	f7fe f905 	bl	80021dc <HAL_GetTick>
 8003fd2:	f241 3888 	movw	r8, #5000	@ 0x1388
 8003fd6:	4606      	mov	r6, r0
 8003fd8:	f8d5 3090 	ldr.w	r3, [r5, #144]	@ 0x90
 8003fdc:	079b      	lsls	r3, r3, #30
 8003fde:	d540      	bpl.n	8004062 <HAL_RCC_OscConfig+0x286>
 8003fe0:	2f00      	cmp	r7, #0
 8003fe2:	f43f af11 	beq.w	8003e08 <HAL_RCC_OscConfig+0x2c>
 8003fe6:	6dab      	ldr	r3, [r5, #88]	@ 0x58
 8003fe8:	f023 5380 	bic.w	r3, r3, #268435456	@ 0x10000000
 8003fec:	65ab      	str	r3, [r5, #88]	@ 0x58
 8003fee:	e70b      	b.n	8003e08 <HAL_RCC_OscConfig+0x2c>
 8003ff0:	2700      	movs	r7, #0
 8003ff2:	e7df      	b.n	8003fb4 <HAL_RCC_OscConfig+0x1d8>
 8003ff4:	6833      	ldr	r3, [r6, #0]
 8003ff6:	f443 7380 	orr.w	r3, r3, #256	@ 0x100
 8003ffa:	6033      	str	r3, [r6, #0]
 8003ffc:	f7fe f8ee 	bl	80021dc <HAL_GetTick>
 8004000:	4680      	mov	r8, r0
 8004002:	6833      	ldr	r3, [r6, #0]
 8004004:	05da      	lsls	r2, r3, #23
 8004006:	d4d9      	bmi.n	8003fbc <HAL_RCC_OscConfig+0x1e0>
 8004008:	f7fe f8e8 	bl	80021dc <HAL_GetTick>
 800400c:	eba0 0008 	sub.w	r0, r0, r8
 8004010:	2802      	cmp	r0, #2
 8004012:	d9f6      	bls.n	8004002 <HAL_RCC_OscConfig+0x226>
 8004014:	e729      	b.n	8003e6a <HAL_RCC_OscConfig+0x8e>
 8004016:	2b05      	cmp	r3, #5
 8004018:	d106      	bne.n	8004028 <HAL_RCC_OscConfig+0x24c>
 800401a:	f8d5 3090 	ldr.w	r3, [r5, #144]	@ 0x90
 800401e:	f043 0304 	orr.w	r3, r3, #4
 8004022:	f8c5 3090 	str.w	r3, [r5, #144]	@ 0x90
 8004026:	e7cc      	b.n	8003fc2 <HAL_RCC_OscConfig+0x1e6>
 8004028:	f8d5 2090 	ldr.w	r2, [r5, #144]	@ 0x90
 800402c:	f022 0201 	bic.w	r2, r2, #1
 8004030:	f8c5 2090 	str.w	r2, [r5, #144]	@ 0x90
 8004034:	f8d5 2090 	ldr.w	r2, [r5, #144]	@ 0x90
 8004038:	f022 0204 	bic.w	r2, r2, #4
 800403c:	f8c5 2090 	str.w	r2, [r5, #144]	@ 0x90
 8004040:	2b00      	cmp	r3, #0
 8004042:	d1c4      	bne.n	8003fce <HAL_RCC_OscConfig+0x1f2>
 8004044:	f7fe f8ca 	bl	80021dc <HAL_GetTick>
 8004048:	f241 3888 	movw	r8, #5000	@ 0x1388
 800404c:	4606      	mov	r6, r0
 800404e:	f8d5 3090 	ldr.w	r3, [r5, #144]	@ 0x90
 8004052:	0799      	lsls	r1, r3, #30
 8004054:	d5c4      	bpl.n	8003fe0 <HAL_RCC_OscConfig+0x204>
 8004056:	f7fe f8c1 	bl	80021dc <HAL_GetTick>
 800405a:	1b80      	subs	r0, r0, r6
 800405c:	4540      	cmp	r0, r8
 800405e:	d9f6      	bls.n	800404e <HAL_RCC_OscConfig+0x272>
 8004060:	e703      	b.n	8003e6a <HAL_RCC_OscConfig+0x8e>
 8004062:	f7fe f8bb 	bl	80021dc <HAL_GetTick>
 8004066:	1b80      	subs	r0, r0, r6
 8004068:	4540      	cmp	r0, r8
 800406a:	d9b5      	bls.n	8003fd8 <HAL_RCC_OscConfig+0x1fc>
 800406c:	e6fd      	b.n	8003e6a <HAL_RCC_OscConfig+0x8e>
 800406e:	69a3      	ldr	r3, [r4, #24]
 8004070:	4d0a      	ldr	r5, [pc, #40]	@ (800409c <HAL_RCC_OscConfig+0x2c0>)
 8004072:	b1cb      	cbz	r3, 80040a8 <HAL_RCC_OscConfig+0x2cc>
 8004074:	f8d5 3098 	ldr.w	r3, [r5, #152]	@ 0x98
 8004078:	f043 0301 	orr.w	r3, r3, #1
 800407c:	f8c5 3098 	str.w	r3, [r5, #152]	@ 0x98
 8004080:	f7fe f8ac 	bl	80021dc <HAL_GetTick>
 8004084:	4606      	mov	r6, r0
 8004086:	f8d5 3098 	ldr.w	r3, [r5, #152]	@ 0x98
 800408a:	079b      	lsls	r3, r3, #30
 800408c:	f53f aec0 	bmi.w	8003e10 <HAL_RCC_OscConfig+0x34>
 8004090:	f7fe f8a4 	bl	80021dc <HAL_GetTick>
 8004094:	1b80      	subs	r0, r0, r6
 8004096:	2802      	cmp	r0, #2
 8004098:	d9f5      	bls.n	8004086 <HAL_RCC_OscConfig+0x2aa>
 800409a:	e6e6      	b.n	8003e6a <HAL_RCC_OscConfig+0x8e>
 800409c:	40021000 	.word	0x40021000
 80040a0:	200001ec 	.word	0x200001ec
 80040a4:	40007000 	.word	0x40007000
 80040a8:	f8d5 3098 	ldr.w	r3, [r5, #152]	@ 0x98
 80040ac:	f023 0301 	bic.w	r3, r3, #1
 80040b0:	f8c5 3098 	str.w	r3, [r5, #152]	@ 0x98
 80040b4:	f7fe f892 	bl	80021dc <HAL_GetTick>
 80040b8:	4606      	mov	r6, r0
 80040ba:	f8d5 3098 	ldr.w	r3, [r5, #152]	@ 0x98
 80040be:	079f      	lsls	r7, r3, #30
 80040c0:	f57f aea6 	bpl.w	8003e10 <HAL_RCC_OscConfig+0x34>
 80040c4:	f7fe f88a 	bl	80021dc <HAL_GetTick>
 80040c8:	1b80      	subs	r0, r0, r6
 80040ca:	2802      	cmp	r0, #2
 80040cc:	d9f5      	bls.n	80040ba <HAL_RCC_OscConfig+0x2de>
 80040ce:	e6cc      	b.n	8003e6a <HAL_RCC_OscConfig+0x8e>
 80040d0:	4d45      	ldr	r5, [pc, #276]	@ (80041e8 <HAL_RCC_OscConfig+0x40c>)
 80040d2:	68aa      	ldr	r2, [r5, #8]
 80040d4:	f002 020c 	and.w	r2, r2, #12
 80040d8:	2a0c      	cmp	r2, #12
 80040da:	d051      	beq.n	8004180 <HAL_RCC_OscConfig+0x3a4>
 80040dc:	2b02      	cmp	r3, #2
 80040de:	682b      	ldr	r3, [r5, #0]
 80040e0:	f023 7380 	bic.w	r3, r3, #16777216	@ 0x1000000
 80040e4:	602b      	str	r3, [r5, #0]
 80040e6:	d13a      	bne.n	800415e <HAL_RCC_OscConfig+0x382>
 80040e8:	f7fe f878 	bl	80021dc <HAL_GetTick>
 80040ec:	4606      	mov	r6, r0
 80040ee:	682b      	ldr	r3, [r5, #0]
 80040f0:	0199      	lsls	r1, r3, #6
 80040f2:	d42e      	bmi.n	8004152 <HAL_RCC_OscConfig+0x376>
 80040f4:	68ea      	ldr	r2, [r5, #12]
 80040f6:	4b3d      	ldr	r3, [pc, #244]	@ (80041ec <HAL_RCC_OscConfig+0x410>)
 80040f8:	4013      	ands	r3, r2
 80040fa:	6a22      	ldr	r2, [r4, #32]
 80040fc:	4313      	orrs	r3, r2
 80040fe:	6aa2      	ldr	r2, [r4, #40]	@ 0x28
 8004100:	ea43 2302 	orr.w	r3, r3, r2, lsl #8
 8004104:	6ae2      	ldr	r2, [r4, #44]	@ 0x2c
 8004106:	ea43 63c2 	orr.w	r3, r3, r2, lsl #27
 800410a:	6a62      	ldr	r2, [r4, #36]	@ 0x24
 800410c:	3a01      	subs	r2, #1
 800410e:	ea43 1302 	orr.w	r3, r3, r2, lsl #4
 8004112:	6b22      	ldr	r2, [r4, #48]	@ 0x30
 8004114:	0852      	lsrs	r2, r2, #1
 8004116:	3a01      	subs	r2, #1
 8004118:	ea43 5342 	orr.w	r3, r3, r2, lsl #21
 800411c:	6b62      	ldr	r2, [r4, #52]	@ 0x34
 800411e:	0852      	lsrs	r2, r2, #1
 8004120:	3a01      	subs	r2, #1
 8004122:	ea43 6342 	orr.w	r3, r3, r2, lsl #25
 8004126:	60eb      	str	r3, [r5, #12]
 8004128:	682b      	ldr	r3, [r5, #0]
 800412a:	f043 7380 	orr.w	r3, r3, #16777216	@ 0x1000000
 800412e:	602b      	str	r3, [r5, #0]
 8004130:	68eb      	ldr	r3, [r5, #12]
 8004132:	f043 7380 	orr.w	r3, r3, #16777216	@ 0x1000000
 8004136:	60eb      	str	r3, [r5, #12]
 8004138:	f7fe f850 	bl	80021dc <HAL_GetTick>
 800413c:	4604      	mov	r4, r0
 800413e:	682b      	ldr	r3, [r5, #0]
 8004140:	019a      	lsls	r2, r3, #6
 8004142:	f53f ae69 	bmi.w	8003e18 <HAL_RCC_OscConfig+0x3c>
 8004146:	f7fe f849 	bl	80021dc <HAL_GetTick>
 800414a:	1b00      	subs	r0, r0, r4
 800414c:	2802      	cmp	r0, #2
 800414e:	d9f6      	bls.n	800413e <HAL_RCC_OscConfig+0x362>
 8004150:	e68b      	b.n	8003e6a <HAL_RCC_OscConfig+0x8e>
 8004152:	f7fe f843 	bl	80021dc <HAL_GetTick>
 8004156:	1b80      	subs	r0, r0, r6
 8004158:	2802      	cmp	r0, #2
 800415a:	d9c8      	bls.n	80040ee <HAL_RCC_OscConfig+0x312>
 800415c:	e685      	b.n	8003e6a <HAL_RCC_OscConfig+0x8e>
 800415e:	f7fe f83d 	bl	80021dc <HAL_GetTick>
 8004162:	4604      	mov	r4, r0
 8004164:	682b      	ldr	r3, [r5, #0]
 8004166:	019b      	lsls	r3, r3, #6
 8004168:	d404      	bmi.n	8004174 <HAL_RCC_OscConfig+0x398>
 800416a:	68ea      	ldr	r2, [r5, #12]
 800416c:	4b20      	ldr	r3, [pc, #128]	@ (80041f0 <HAL_RCC_OscConfig+0x414>)
 800416e:	4013      	ands	r3, r2
 8004170:	60eb      	str	r3, [r5, #12]
 8004172:	e651      	b.n	8003e18 <HAL_RCC_OscConfig+0x3c>
 8004174:	f7fe f832 	bl	80021dc <HAL_GetTick>
 8004178:	1b00      	subs	r0, r0, r4
 800417a:	2802      	cmp	r0, #2
 800417c:	d9f2      	bls.n	8004164 <HAL_RCC_OscConfig+0x388>
 800417e:	e674      	b.n	8003e6a <HAL_RCC_OscConfig+0x8e>
 8004180:	2b01      	cmp	r3, #1
 8004182:	f43f ae2f 	beq.w	8003de4 <HAL_RCC_OscConfig+0x8>
 8004186:	68eb      	ldr	r3, [r5, #12]
 8004188:	6a22      	ldr	r2, [r4, #32]
 800418a:	f003 0103 	and.w	r1, r3, #3
 800418e:	4291      	cmp	r1, r2
 8004190:	f47f ae28 	bne.w	8003de4 <HAL_RCC_OscConfig+0x8>
 8004194:	6a61      	ldr	r1, [r4, #36]	@ 0x24
 8004196:	f003 02f0 	and.w	r2, r3, #240	@ 0xf0
 800419a:	3901      	subs	r1, #1
 800419c:	ebb2 1f01 	cmp.w	r2, r1, lsl #4
 80041a0:	f47f ae20 	bne.w	8003de4 <HAL_RCC_OscConfig+0x8>
 80041a4:	6aa1      	ldr	r1, [r4, #40]	@ 0x28
 80041a6:	f403 42fe 	and.w	r2, r3, #32512	@ 0x7f00
 80041aa:	ebb2 2f01 	cmp.w	r2, r1, lsl #8
 80041ae:	f47f ae19 	bne.w	8003de4 <HAL_RCC_OscConfig+0x8>
 80041b2:	6ae1      	ldr	r1, [r4, #44]	@ 0x2c
 80041b4:	f003 4278 	and.w	r2, r3, #4160749568	@ 0xf8000000
 80041b8:	ebb2 6fc1 	cmp.w	r2, r1, lsl #27
 80041bc:	f47f ae12 	bne.w	8003de4 <HAL_RCC_OscConfig+0x8>
 80041c0:	6b22      	ldr	r2, [r4, #48]	@ 0x30
 80041c2:	0852      	lsrs	r2, r2, #1
 80041c4:	f403 01c0 	and.w	r1, r3, #6291456	@ 0x600000
 80041c8:	3a01      	subs	r2, #1
 80041ca:	ebb1 5f42 	cmp.w	r1, r2, lsl #21
 80041ce:	f47f ae09 	bne.w	8003de4 <HAL_RCC_OscConfig+0x8>
 80041d2:	6b62      	ldr	r2, [r4, #52]	@ 0x34
 80041d4:	0852      	lsrs	r2, r2, #1
 80041d6:	3a01      	subs	r2, #1
 80041d8:	f003 63c0 	and.w	r3, r3, #100663296	@ 0x6000000
 80041dc:	ebb3 6f42 	cmp.w	r3, r2, lsl #25
 80041e0:	bf14      	ite	ne
 80041e2:	2001      	movne	r0, #1
 80041e4:	2000      	moveq	r0, #0
 80041e6:	e5fe      	b.n	8003de6 <HAL_RCC_OscConfig+0xa>
 80041e8:	40021000 	.word	0x40021000
 80041ec:	019f800c 	.word	0x019f800c
 80041f0:	feeefffc 	.word	0xfeeefffc

080041f4 <HAL_RCC_GetSysClockFreq>:
 80041f4:	4b17      	ldr	r3, [pc, #92]	@ (8004254 <HAL_RCC_GetSysClockFreq+0x60>)
 80041f6:	689a      	ldr	r2, [r3, #8]
 80041f8:	f002 020c 	and.w	r2, r2, #12
 80041fc:	2a04      	cmp	r2, #4
 80041fe:	d023      	beq.n	8004248 <HAL_RCC_GetSysClockFreq+0x54>
 8004200:	689a      	ldr	r2, [r3, #8]
 8004202:	f002 020c 	and.w	r2, r2, #12
 8004206:	2a08      	cmp	r2, #8
 8004208:	d020      	beq.n	800424c <HAL_RCC_GetSysClockFreq+0x58>
 800420a:	689a      	ldr	r2, [r3, #8]
 800420c:	f002 020c 	and.w	r2, r2, #12
 8004210:	2a0c      	cmp	r2, #12
 8004212:	d11d      	bne.n	8004250 <HAL_RCC_GetSysClockFreq+0x5c>
 8004214:	68d9      	ldr	r1, [r3, #12]
 8004216:	68da      	ldr	r2, [r3, #12]
 8004218:	68d8      	ldr	r0, [r3, #12]
 800421a:	68db      	ldr	r3, [r3, #12]
 800421c:	f001 0103 	and.w	r1, r1, #3
 8004220:	f3c3 6341 	ubfx	r3, r3, #25, #2
 8004224:	2903      	cmp	r1, #3
 8004226:	f3c2 1203 	ubfx	r2, r2, #4, #4
 800422a:	f3c0 2006 	ubfx	r0, r0, #8, #7
 800422e:	f103 0301 	add.w	r3, r3, #1
 8004232:	bf0c      	ite	eq
 8004234:	4908      	ldreq	r1, [pc, #32]	@ (8004258 <HAL_RCC_GetSysClockFreq+0x64>)
 8004236:	4909      	ldrne	r1, [pc, #36]	@ (800425c <HAL_RCC_GetSysClockFreq+0x68>)
 8004238:	005b      	lsls	r3, r3, #1
 800423a:	3201      	adds	r2, #1
 800423c:	fbb1 f2f2 	udiv	r2, r1, r2
 8004240:	4350      	muls	r0, r2
 8004242:	fbb0 f0f3 	udiv	r0, r0, r3
 8004246:	4770      	bx	lr
 8004248:	4804      	ldr	r0, [pc, #16]	@ (800425c <HAL_RCC_GetSysClockFreq+0x68>)
 800424a:	4770      	bx	lr
 800424c:	4802      	ldr	r0, [pc, #8]	@ (8004258 <HAL_RCC_GetSysClockFreq+0x64>)
 800424e:	4770      	bx	lr
 8004250:	2000      	movs	r0, #0
 8004252:	4770      	bx	lr
 8004254:	40021000 	.word	0x40021000
 8004258:	007a1200 	.word	0x007a1200
 800425c:	00f42400 	.word	0x00f42400

08004260 <HAL_RCC_ClockConfig>:
 8004260:	e92d 43f8 	stmdb	sp!, {r3, r4, r5, r6, r7, r8, r9, lr}
 8004264:	460e      	mov	r6, r1
 8004266:	4605      	mov	r5, r0
 8004268:	b910      	cbnz	r0, 8004270 <HAL_RCC_ClockConfig+0x10>
 800426a:	2001      	movs	r0, #1
 800426c:	e8bd 83f8 	ldmia.w	sp!, {r3, r4, r5, r6, r7, r8, r9, pc}
 8004270:	4a6d      	ldr	r2, [pc, #436]	@ (8004428 <HAL_RCC_ClockConfig+0x1c8>)
 8004272:	6813      	ldr	r3, [r2, #0]
 8004274:	f003 030f 	and.w	r3, r3, #15
 8004278:	428b      	cmp	r3, r1
 800427a:	d345      	bcc.n	8004308 <HAL_RCC_ClockConfig+0xa8>
 800427c:	6829      	ldr	r1, [r5, #0]
 800427e:	f011 0801 	ands.w	r8, r1, #1
 8004282:	d14c      	bne.n	800431e <HAL_RCC_ClockConfig+0xbe>
 8004284:	682a      	ldr	r2, [r5, #0]
 8004286:	0791      	lsls	r1, r2, #30
 8004288:	f140 80a7 	bpl.w	80043da <HAL_RCC_ClockConfig+0x17a>
 800428c:	4b67      	ldr	r3, [pc, #412]	@ (800442c <HAL_RCC_ClockConfig+0x1cc>)
 800428e:	f012 0f04 	tst.w	r2, #4
 8004292:	bf1e      	ittt	ne
 8004294:	6899      	ldrne	r1, [r3, #8]
 8004296:	f441 61e0 	orrne.w	r1, r1, #1792	@ 0x700
 800429a:	6099      	strne	r1, [r3, #8]
 800429c:	0712      	lsls	r2, r2, #28
 800429e:	bf41      	itttt	mi
 80042a0:	689a      	ldrmi	r2, [r3, #8]
 80042a2:	f422 527c 	bicmi.w	r2, r2, #16128	@ 0x3f00
 80042a6:	f442 62e0 	orrmi.w	r2, r2, #1792	@ 0x700
 80042aa:	609a      	strmi	r2, [r3, #8]
 80042ac:	689a      	ldr	r2, [r3, #8]
 80042ae:	68a9      	ldr	r1, [r5, #8]
 80042b0:	f022 02f0 	bic.w	r2, r2, #240	@ 0xf0
 80042b4:	430a      	orrs	r2, r1
 80042b6:	609a      	str	r2, [r3, #8]
 80042b8:	4c5b      	ldr	r4, [pc, #364]	@ (8004428 <HAL_RCC_ClockConfig+0x1c8>)
 80042ba:	6823      	ldr	r3, [r4, #0]
 80042bc:	f003 030f 	and.w	r3, r3, #15
 80042c0:	42b3      	cmp	r3, r6
 80042c2:	f200 8093 	bhi.w	80043ec <HAL_RCC_ClockConfig+0x18c>
 80042c6:	682a      	ldr	r2, [r5, #0]
 80042c8:	4c58      	ldr	r4, [pc, #352]	@ (800442c <HAL_RCC_ClockConfig+0x1cc>)
 80042ca:	f012 0f04 	tst.w	r2, #4
 80042ce:	f040 80a3 	bne.w	8004418 <HAL_RCC_ClockConfig+0x1b8>
 80042d2:	0713      	lsls	r3, r2, #28
 80042d4:	d506      	bpl.n	80042e4 <HAL_RCC_ClockConfig+0x84>
 80042d6:	68a3      	ldr	r3, [r4, #8]
 80042d8:	692a      	ldr	r2, [r5, #16]
 80042da:	f423 5360 	bic.w	r3, r3, #14336	@ 0x3800
 80042de:	ea43 03c2 	orr.w	r3, r3, r2, lsl #3
 80042e2:	60a3      	str	r3, [r4, #8]
 80042e4:	f7ff ff86 	bl	80041f4 <HAL_RCC_GetSysClockFreq>
 80042e8:	68a3      	ldr	r3, [r4, #8]
 80042ea:	4a51      	ldr	r2, [pc, #324]	@ (8004430 <HAL_RCC_ClockConfig+0x1d0>)
 80042ec:	f3c3 1303 	ubfx	r3, r3, #4, #4
 80042f0:	5cd3      	ldrb	r3, [r2, r3]
 80042f2:	f003 031f 	and.w	r3, r3, #31
 80042f6:	40d8      	lsrs	r0, r3
 80042f8:	4b4e      	ldr	r3, [pc, #312]	@ (8004434 <HAL_RCC_ClockConfig+0x1d4>)
 80042fa:	6018      	str	r0, [r3, #0]
 80042fc:	4b4e      	ldr	r3, [pc, #312]	@ (8004438 <HAL_RCC_ClockConfig+0x1d8>)
 80042fe:	6818      	ldr	r0, [r3, #0]
 8004300:	e8bd 43f8 	ldmia.w	sp!, {r3, r4, r5, r6, r7, r8, r9, lr}
 8004304:	f7fd bbe6 	b.w	8001ad4 <HAL_InitTick>
 8004308:	6813      	ldr	r3, [r2, #0]
 800430a:	f023 030f 	bic.w	r3, r3, #15
 800430e:	430b      	orrs	r3, r1
 8004310:	6013      	str	r3, [r2, #0]
 8004312:	6813      	ldr	r3, [r2, #0]
 8004314:	f003 030f 	and.w	r3, r3, #15
 8004318:	428b      	cmp	r3, r1
 800431a:	d1a6      	bne.n	800426a <HAL_RCC_ClockConfig+0xa>
 800431c:	e7ae      	b.n	800427c <HAL_RCC_ClockConfig+0x1c>
 800431e:	686f      	ldr	r7, [r5, #4]
 8004320:	4c42      	ldr	r4, [pc, #264]	@ (800442c <HAL_RCC_ClockConfig+0x1cc>)
 8004322:	2f03      	cmp	r7, #3
 8004324:	6823      	ldr	r3, [r4, #0]
 8004326:	d149      	bne.n	80043bc <HAL_RCC_ClockConfig+0x15c>
 8004328:	019b      	lsls	r3, r3, #6
 800432a:	d59e      	bpl.n	800426a <HAL_RCC_ClockConfig+0xa>
 800432c:	68e3      	ldr	r3, [r4, #12]
 800432e:	68e2      	ldr	r2, [r4, #12]
 8004330:	f003 0303 	and.w	r3, r3, #3
 8004334:	2b03      	cmp	r3, #3
 8004336:	68e3      	ldr	r3, [r4, #12]
 8004338:	bf0c      	ite	eq
 800433a:	4840      	ldreq	r0, [pc, #256]	@ (800443c <HAL_RCC_ClockConfig+0x1dc>)
 800433c:	4840      	ldrne	r0, [pc, #256]	@ (8004440 <HAL_RCC_ClockConfig+0x1e0>)
 800433e:	f3c2 1203 	ubfx	r2, r2, #4, #4
 8004342:	f3c3 2306 	ubfx	r3, r3, #8, #7
 8004346:	3201      	adds	r2, #1
 8004348:	fbb0 f2f2 	udiv	r2, r0, r2
 800434c:	4353      	muls	r3, r2
 800434e:	68e2      	ldr	r2, [r4, #12]
 8004350:	f3c2 6241 	ubfx	r2, r2, #25, #2
 8004354:	3201      	adds	r2, #1
 8004356:	0052      	lsls	r2, r2, #1
 8004358:	fbb3 f3f2 	udiv	r3, r3, r2
 800435c:	4a39      	ldr	r2, [pc, #228]	@ (8004444 <HAL_RCC_ClockConfig+0x1e4>)
 800435e:	4293      	cmp	r3, r2
 8004360:	d81a      	bhi.n	8004398 <HAL_RCC_ClockConfig+0x138>
 8004362:	f04f 0800 	mov.w	r8, #0
 8004366:	68a3      	ldr	r3, [r4, #8]
 8004368:	f023 0303 	bic.w	r3, r3, #3
 800436c:	433b      	orrs	r3, r7
 800436e:	60a3      	str	r3, [r4, #8]
 8004370:	f7fd ff34 	bl	80021dc <HAL_GetTick>
 8004374:	f241 3988 	movw	r9, #5000	@ 0x1388
 8004378:	4607      	mov	r7, r0
 800437a:	68a3      	ldr	r3, [r4, #8]
 800437c:	686a      	ldr	r2, [r5, #4]
 800437e:	f003 030c 	and.w	r3, r3, #12
 8004382:	ebb3 0f82 	cmp.w	r3, r2, lsl #2
 8004386:	f43f af7d 	beq.w	8004284 <HAL_RCC_ClockConfig+0x24>
 800438a:	f7fd ff27 	bl	80021dc <HAL_GetTick>
 800438e:	1bc0      	subs	r0, r0, r7
 8004390:	4548      	cmp	r0, r9
 8004392:	d9f2      	bls.n	800437a <HAL_RCC_ClockConfig+0x11a>
 8004394:	2003      	movs	r0, #3
 8004396:	e769      	b.n	800426c <HAL_RCC_ClockConfig+0xc>
 8004398:	68a3      	ldr	r3, [r4, #8]
 800439a:	f013 0ff0 	tst.w	r3, #240	@ 0xf0
 800439e:	d004      	beq.n	80043aa <HAL_RCC_ClockConfig+0x14a>
 80043a0:	0788      	lsls	r0, r1, #30
 80043a2:	d5de      	bpl.n	8004362 <HAL_RCC_ClockConfig+0x102>
 80043a4:	68ab      	ldr	r3, [r5, #8]
 80043a6:	2b00      	cmp	r3, #0
 80043a8:	d1db      	bne.n	8004362 <HAL_RCC_ClockConfig+0x102>
 80043aa:	68a3      	ldr	r3, [r4, #8]
 80043ac:	f023 03f0 	bic.w	r3, r3, #240	@ 0xf0
 80043b0:	f043 0380 	orr.w	r3, r3, #128	@ 0x80
 80043b4:	60a3      	str	r3, [r4, #8]
 80043b6:	f04f 0880 	mov.w	r8, #128	@ 0x80
 80043ba:	e7d4      	b.n	8004366 <HAL_RCC_ClockConfig+0x106>
 80043bc:	2f02      	cmp	r7, #2
 80043be:	d109      	bne.n	80043d4 <HAL_RCC_ClockConfig+0x174>
 80043c0:	f413 3f00 	tst.w	r3, #131072	@ 0x20000
 80043c4:	f43f af51 	beq.w	800426a <HAL_RCC_ClockConfig+0xa>
 80043c8:	f7ff ff14 	bl	80041f4 <HAL_RCC_GetSysClockFreq>
 80043cc:	4b1d      	ldr	r3, [pc, #116]	@ (8004444 <HAL_RCC_ClockConfig+0x1e4>)
 80043ce:	4298      	cmp	r0, r3
 80043d0:	d9c7      	bls.n	8004362 <HAL_RCC_ClockConfig+0x102>
 80043d2:	e7ea      	b.n	80043aa <HAL_RCC_ClockConfig+0x14a>
 80043d4:	f413 6f80 	tst.w	r3, #1024	@ 0x400
 80043d8:	e7f4      	b.n	80043c4 <HAL_RCC_ClockConfig+0x164>
 80043da:	f1b8 0f80 	cmp.w	r8, #128	@ 0x80
 80043de:	bf01      	itttt	eq
 80043e0:	4a12      	ldreq	r2, [pc, #72]	@ (800442c <HAL_RCC_ClockConfig+0x1cc>)
 80043e2:	6893      	ldreq	r3, [r2, #8]
 80043e4:	f023 03f0 	biceq.w	r3, r3, #240	@ 0xf0
 80043e8:	6093      	streq	r3, [r2, #8]
 80043ea:	e765      	b.n	80042b8 <HAL_RCC_ClockConfig+0x58>
 80043ec:	6823      	ldr	r3, [r4, #0]
 80043ee:	f023 030f 	bic.w	r3, r3, #15
 80043f2:	4333      	orrs	r3, r6
 80043f4:	6023      	str	r3, [r4, #0]
 80043f6:	f7fd fef1 	bl	80021dc <HAL_GetTick>
 80043fa:	f241 3888 	movw	r8, #5000	@ 0x1388
 80043fe:	4607      	mov	r7, r0
 8004400:	6823      	ldr	r3, [r4, #0]
 8004402:	f003 030f 	and.w	r3, r3, #15
 8004406:	42b3      	cmp	r3, r6
 8004408:	f43f af5d 	beq.w	80042c6 <HAL_RCC_ClockConfig+0x66>
 800440c:	f7fd fee6 	bl	80021dc <HAL_GetTick>
 8004410:	1bc0      	subs	r0, r0, r7
 8004412:	4540      	cmp	r0, r8
 8004414:	d9f4      	bls.n	8004400 <HAL_RCC_ClockConfig+0x1a0>
 8004416:	e7bd      	b.n	8004394 <HAL_RCC_ClockConfig+0x134>
 8004418:	68a3      	ldr	r3, [r4, #8]
 800441a:	68e9      	ldr	r1, [r5, #12]
 800441c:	f423 63e0 	bic.w	r3, r3, #1792	@ 0x700
 8004420:	430b      	orrs	r3, r1
 8004422:	60a3      	str	r3, [r4, #8]
 8004424:	e755      	b.n	80042d2 <HAL_RCC_ClockConfig+0x72>
 8004426:	bf00      	nop
 8004428:	40022000 	.word	0x40022000
 800442c:	40021000 	.word	0x40021000
 8004430:	08006d1c 	.word	0x08006d1c
 8004434:	200001e4 	.word	0x200001e4
 8004438:	200001ec 	.word	0x200001ec
 800443c:	007a1200 	.word	0x007a1200
 8004440:	00f42400 	.word	0x00f42400
 8004444:	04c4b400 	.word	0x04c4b400

08004448 <HAL_RCC_GetHCLKFreq>:
 8004448:	4b01      	ldr	r3, [pc, #4]	@ (8004450 <HAL_RCC_GetHCLKFreq+0x8>)
 800444a:	6818      	ldr	r0, [r3, #0]
 800444c:	4770      	bx	lr
 800444e:	bf00      	nop
 8004450:	200001e4 	.word	0x200001e4

08004454 <HAL_RCC_GetPCLK2Freq>:
 8004454:	4b05      	ldr	r3, [pc, #20]	@ (800446c <HAL_RCC_GetPCLK2Freq+0x18>)
 8004456:	4a06      	ldr	r2, [pc, #24]	@ (8004470 <HAL_RCC_GetPCLK2Freq+0x1c>)
 8004458:	689b      	ldr	r3, [r3, #8]
 800445a:	f3c3 23c2 	ubfx	r3, r3, #11, #3
 800445e:	5cd3      	ldrb	r3, [r2, r3]
 8004460:	4a04      	ldr	r2, [pc, #16]	@ (8004474 <HAL_RCC_GetPCLK2Freq+0x20>)
 8004462:	6810      	ldr	r0, [r2, #0]
 8004464:	f003 031f 	and.w	r3, r3, #31
 8004468:	40d8      	lsrs	r0, r3
 800446a:	4770      	bx	lr
 800446c:	40021000 	.word	0x40021000
 8004470:	08006d14 	.word	0x08006d14
 8004474:	200001e4 	.word	0x200001e4

08004478 <HAL_RCC_GetClockConfig>:
 8004478:	230f      	movs	r3, #15
 800447a:	6003      	str	r3, [r0, #0]
 800447c:	4b0b      	ldr	r3, [pc, #44]	@ (80044ac <HAL_RCC_GetClockConfig+0x34>)
 800447e:	689a      	ldr	r2, [r3, #8]
 8004480:	f002 0203 	and.w	r2, r2, #3
 8004484:	6042      	str	r2, [r0, #4]
 8004486:	689a      	ldr	r2, [r3, #8]
 8004488:	f002 02f0 	and.w	r2, r2, #240	@ 0xf0
 800448c:	6082      	str	r2, [r0, #8]
 800448e:	689a      	ldr	r2, [r3, #8]
 8004490:	f402 62e0 	and.w	r2, r2, #1792	@ 0x700
 8004494:	60c2      	str	r2, [r0, #12]
 8004496:	689b      	ldr	r3, [r3, #8]
 8004498:	08db      	lsrs	r3, r3, #3
 800449a:	f403 63e0 	and.w	r3, r3, #1792	@ 0x700
 800449e:	6103      	str	r3, [r0, #16]
 80044a0:	4b03      	ldr	r3, [pc, #12]	@ (80044b0 <HAL_RCC_GetClockConfig+0x38>)
 80044a2:	681b      	ldr	r3, [r3, #0]
 80044a4:	f003 030f 	and.w	r3, r3, #15
 80044a8:	600b      	str	r3, [r1, #0]
 80044aa:	4770      	bx	lr
 80044ac:	40021000 	.word	0x40021000
 80044b0:	40022000 	.word	0x40022000

080044b4 <HAL_RCCEx_PeriphCLKConfig>:
 80044b4:	e92d 41f3 	stmdb	sp!, {r0, r1, r4, r5, r6, r7, r8, lr}
 80044b8:	4604      	mov	r4, r0
 80044ba:	6800      	ldr	r0, [r0, #0]
 80044bc:	f410 2000 	ands.w	r0, r0, #524288	@ 0x80000
 80044c0:	d05a      	beq.n	8004578 <HAL_RCCEx_PeriphCLKConfig+0xc4>
 80044c2:	4d25      	ldr	r5, [pc, #148]	@ (8004558 <HAL_RCCEx_PeriphCLKConfig+0xa4>)
 80044c4:	6dab      	ldr	r3, [r5, #88]	@ 0x58
 80044c6:	00d8      	lsls	r0, r3, #3
 80044c8:	d444      	bmi.n	8004554 <HAL_RCCEx_PeriphCLKConfig+0xa0>
 80044ca:	6dab      	ldr	r3, [r5, #88]	@ 0x58
 80044cc:	f043 5380 	orr.w	r3, r3, #268435456	@ 0x10000000
 80044d0:	65ab      	str	r3, [r5, #88]	@ 0x58
 80044d2:	6dab      	ldr	r3, [r5, #88]	@ 0x58
 80044d4:	f003 5380 	and.w	r3, r3, #268435456	@ 0x10000000
 80044d8:	9301      	str	r3, [sp, #4]
 80044da:	9b01      	ldr	r3, [sp, #4]
 80044dc:	2601      	movs	r6, #1
 80044de:	4f1f      	ldr	r7, [pc, #124]	@ (800455c <HAL_RCCEx_PeriphCLKConfig+0xa8>)
 80044e0:	683b      	ldr	r3, [r7, #0]
 80044e2:	f443 7380 	orr.w	r3, r3, #256	@ 0x100
 80044e6:	603b      	str	r3, [r7, #0]
 80044e8:	f7fd fe78 	bl	80021dc <HAL_GetTick>
 80044ec:	4680      	mov	r8, r0
 80044ee:	683b      	ldr	r3, [r7, #0]
 80044f0:	05d9      	lsls	r1, r3, #23
 80044f2:	d535      	bpl.n	8004560 <HAL_RCCEx_PeriphCLKConfig+0xac>
 80044f4:	f8d5 3090 	ldr.w	r3, [r5, #144]	@ 0x90
 80044f8:	6d22      	ldr	r2, [r4, #80]	@ 0x50
 80044fa:	f413 7340 	ands.w	r3, r3, #768	@ 0x300
 80044fe:	d01f      	beq.n	8004540 <HAL_RCCEx_PeriphCLKConfig+0x8c>
 8004500:	429a      	cmp	r2, r3
 8004502:	d01d      	beq.n	8004540 <HAL_RCCEx_PeriphCLKConfig+0x8c>
 8004504:	f8d5 2090 	ldr.w	r2, [r5, #144]	@ 0x90
 8004508:	f8d5 3090 	ldr.w	r3, [r5, #144]	@ 0x90
 800450c:	f443 3380 	orr.w	r3, r3, #65536	@ 0x10000
 8004510:	f8c5 3090 	str.w	r3, [r5, #144]	@ 0x90
 8004514:	f8d5 3090 	ldr.w	r3, [r5, #144]	@ 0x90
 8004518:	f422 7140 	bic.w	r1, r2, #768	@ 0x300
 800451c:	f423 3380 	bic.w	r3, r3, #65536	@ 0x10000
 8004520:	07d2      	lsls	r2, r2, #31
 8004522:	f8c5 3090 	str.w	r3, [r5, #144]	@ 0x90
 8004526:	f8c5 1090 	str.w	r1, [r5, #144]	@ 0x90
 800452a:	d509      	bpl.n	8004540 <HAL_RCCEx_PeriphCLKConfig+0x8c>
 800452c:	f7fd fe56 	bl	80021dc <HAL_GetTick>
 8004530:	f241 3888 	movw	r8, #5000	@ 0x1388
 8004534:	4607      	mov	r7, r0
 8004536:	f8d5 3090 	ldr.w	r3, [r5, #144]	@ 0x90
 800453a:	079b      	lsls	r3, r3, #30
 800453c:	f140 8129 	bpl.w	8004792 <HAL_RCCEx_PeriphCLKConfig+0x2de>
 8004540:	f8d5 3090 	ldr.w	r3, [r5, #144]	@ 0x90
 8004544:	6d22      	ldr	r2, [r4, #80]	@ 0x50
 8004546:	f423 7340 	bic.w	r3, r3, #768	@ 0x300
 800454a:	4313      	orrs	r3, r2
 800454c:	f8c5 3090 	str.w	r3, [r5, #144]	@ 0x90
 8004550:	2000      	movs	r0, #0
 8004552:	e00c      	b.n	800456e <HAL_RCCEx_PeriphCLKConfig+0xba>
 8004554:	2600      	movs	r6, #0
 8004556:	e7c2      	b.n	80044de <HAL_RCCEx_PeriphCLKConfig+0x2a>
 8004558:	40021000 	.word	0x40021000
 800455c:	40007000 	.word	0x40007000
 8004560:	f7fd fe3c 	bl	80021dc <HAL_GetTick>
 8004564:	eba0 0008 	sub.w	r0, r0, r8
 8004568:	2802      	cmp	r0, #2
 800456a:	d9c0      	bls.n	80044ee <HAL_RCCEx_PeriphCLKConfig+0x3a>
 800456c:	2003      	movs	r0, #3
 800456e:	b11e      	cbz	r6, 8004578 <HAL_RCCEx_PeriphCLKConfig+0xc4>
 8004570:	6dab      	ldr	r3, [r5, #88]	@ 0x58
 8004572:	f023 5380 	bic.w	r3, r3, #268435456	@ 0x10000000
 8004576:	65ab      	str	r3, [r5, #88]	@ 0x58
 8004578:	6823      	ldr	r3, [r4, #0]
 800457a:	07dd      	lsls	r5, r3, #31
 800457c:	d508      	bpl.n	8004590 <HAL_RCCEx_PeriphCLKConfig+0xdc>
 800457e:	4988      	ldr	r1, [pc, #544]	@ (80047a0 <HAL_RCCEx_PeriphCLKConfig+0x2ec>)
 8004580:	6865      	ldr	r5, [r4, #4]
 8004582:	f8d1 2088 	ldr.w	r2, [r1, #136]	@ 0x88
 8004586:	f022 0203 	bic.w	r2, r2, #3
 800458a:	432a      	orrs	r2, r5
 800458c:	f8c1 2088 	str.w	r2, [r1, #136]	@ 0x88
 8004590:	0799      	lsls	r1, r3, #30
 8004592:	d508      	bpl.n	80045a6 <HAL_RCCEx_PeriphCLKConfig+0xf2>
 8004594:	4982      	ldr	r1, [pc, #520]	@ (80047a0 <HAL_RCCEx_PeriphCLKConfig+0x2ec>)
 8004596:	68a5      	ldr	r5, [r4, #8]
 8004598:	f8d1 2088 	ldr.w	r2, [r1, #136]	@ 0x88
 800459c:	f022 020c 	bic.w	r2, r2, #12
 80045a0:	432a      	orrs	r2, r5
 80045a2:	f8c1 2088 	str.w	r2, [r1, #136]	@ 0x88
 80045a6:	075a      	lsls	r2, r3, #29
 80045a8:	d508      	bpl.n	80045bc <HAL_RCCEx_PeriphCLKConfig+0x108>
 80045aa:	497d      	ldr	r1, [pc, #500]	@ (80047a0 <HAL_RCCEx_PeriphCLKConfig+0x2ec>)
 80045ac:	68e5      	ldr	r5, [r4, #12]
 80045ae:	f8d1 2088 	ldr.w	r2, [r1, #136]	@ 0x88
 80045b2:	f022 0230 	bic.w	r2, r2, #48	@ 0x30
 80045b6:	432a      	orrs	r2, r5
 80045b8:	f8c1 2088 	str.w	r2, [r1, #136]	@ 0x88
 80045bc:	071f      	lsls	r7, r3, #28
 80045be:	d508      	bpl.n	80045d2 <HAL_RCCEx_PeriphCLKConfig+0x11e>
 80045c0:	4977      	ldr	r1, [pc, #476]	@ (80047a0 <HAL_RCCEx_PeriphCLKConfig+0x2ec>)
 80045c2:	6925      	ldr	r5, [r4, #16]
 80045c4:	f8d1 2088 	ldr.w	r2, [r1, #136]	@ 0x88
 80045c8:	f022 02c0 	bic.w	r2, r2, #192	@ 0xc0
 80045cc:	432a      	orrs	r2, r5
 80045ce:	f8c1 2088 	str.w	r2, [r1, #136]	@ 0x88
 80045d2:	06de      	lsls	r6, r3, #27
 80045d4:	d508      	bpl.n	80045e8 <HAL_RCCEx_PeriphCLKConfig+0x134>
 80045d6:	4972      	ldr	r1, [pc, #456]	@ (80047a0 <HAL_RCCEx_PeriphCLKConfig+0x2ec>)
 80045d8:	6965      	ldr	r5, [r4, #20]
 80045da:	f8d1 2088 	ldr.w	r2, [r1, #136]	@ 0x88
 80045de:	f422 7240 	bic.w	r2, r2, #768	@ 0x300
 80045e2:	432a      	orrs	r2, r5
 80045e4:	f8c1 2088 	str.w	r2, [r1, #136]	@ 0x88
 80045e8:	069d      	lsls	r5, r3, #26
 80045ea:	d508      	bpl.n	80045fe <HAL_RCCEx_PeriphCLKConfig+0x14a>
 80045ec:	496c      	ldr	r1, [pc, #432]	@ (80047a0 <HAL_RCCEx_PeriphCLKConfig+0x2ec>)
 80045ee:	69a5      	ldr	r5, [r4, #24]
 80045f0:	f8d1 2088 	ldr.w	r2, [r1, #136]	@ 0x88
 80045f4:	f422 6240 	bic.w	r2, r2, #3072	@ 0xc00
 80045f8:	432a      	orrs	r2, r5
 80045fa:	f8c1 2088 	str.w	r2, [r1, #136]	@ 0x88
 80045fe:	0659      	lsls	r1, r3, #25
 8004600:	d508      	bpl.n	8004614 <HAL_RCCEx_PeriphCLKConfig+0x160>
 8004602:	4967      	ldr	r1, [pc, #412]	@ (80047a0 <HAL_RCCEx_PeriphCLKConfig+0x2ec>)
 8004604:	69e5      	ldr	r5, [r4, #28]
 8004606:	f8d1 2088 	ldr.w	r2, [r1, #136]	@ 0x88
 800460a:	f422 5240 	bic.w	r2, r2, #12288	@ 0x3000
 800460e:	432a      	orrs	r2, r5
 8004610:	f8c1 2088 	str.w	r2, [r1, #136]	@ 0x88
 8004614:	061a      	lsls	r2, r3, #24
 8004616:	d508      	bpl.n	800462a <HAL_RCCEx_PeriphCLKConfig+0x176>
 8004618:	4961      	ldr	r1, [pc, #388]	@ (80047a0 <HAL_RCCEx_PeriphCLKConfig+0x2ec>)
 800461a:	6a25      	ldr	r5, [r4, #32]
 800461c:	f8d1 2088 	ldr.w	r2, [r1, #136]	@ 0x88
 8004620:	f422 4240 	bic.w	r2, r2, #49152	@ 0xc000
 8004624:	432a      	orrs	r2, r5
 8004626:	f8c1 2088 	str.w	r2, [r1, #136]	@ 0x88
 800462a:	05df      	lsls	r7, r3, #23
 800462c:	d508      	bpl.n	8004640 <HAL_RCCEx_PeriphCLKConfig+0x18c>
 800462e:	495c      	ldr	r1, [pc, #368]	@ (80047a0 <HAL_RCCEx_PeriphCLKConfig+0x2ec>)
 8004630:	6a65      	ldr	r5, [r4, #36]	@ 0x24
 8004632:	f8d1 2088 	ldr.w	r2, [r1, #136]	@ 0x88
 8004636:	f422 3240 	bic.w	r2, r2, #196608	@ 0x30000
 800463a:	432a      	orrs	r2, r5
 800463c:	f8c1 2088 	str.w	r2, [r1, #136]	@ 0x88
 8004640:	039e      	lsls	r6, r3, #14
 8004642:	d508      	bpl.n	8004656 <HAL_RCCEx_PeriphCLKConfig+0x1a2>
 8004644:	4956      	ldr	r1, [pc, #344]	@ (80047a0 <HAL_RCCEx_PeriphCLKConfig+0x2ec>)
 8004646:	6aa5      	ldr	r5, [r4, #40]	@ 0x28
 8004648:	f8d1 209c 	ldr.w	r2, [r1, #156]	@ 0x9c
 800464c:	f022 0203 	bic.w	r2, r2, #3
 8004650:	432a      	orrs	r2, r5
 8004652:	f8c1 209c 	str.w	r2, [r1, #156]	@ 0x9c
 8004656:	059d      	lsls	r5, r3, #22
 8004658:	d508      	bpl.n	800466c <HAL_RCCEx_PeriphCLKConfig+0x1b8>
 800465a:	4951      	ldr	r1, [pc, #324]	@ (80047a0 <HAL_RCCEx_PeriphCLKConfig+0x2ec>)
 800465c:	6ae5      	ldr	r5, [r4, #44]	@ 0x2c
 800465e:	f8d1 2088 	ldr.w	r2, [r1, #136]	@ 0x88
 8004662:	f422 2240 	bic.w	r2, r2, #786432	@ 0xc0000
 8004666:	432a      	orrs	r2, r5
 8004668:	f8c1 2088 	str.w	r2, [r1, #136]	@ 0x88
 800466c:	0559      	lsls	r1, r3, #21
 800466e:	d50f      	bpl.n	8004690 <HAL_RCCEx_PeriphCLKConfig+0x1dc>
 8004670:	494b      	ldr	r1, [pc, #300]	@ (80047a0 <HAL_RCCEx_PeriphCLKConfig+0x2ec>)
 8004672:	6b25      	ldr	r5, [r4, #48]	@ 0x30
 8004674:	f8d1 2088 	ldr.w	r2, [r1, #136]	@ 0x88
 8004678:	f422 1240 	bic.w	r2, r2, #3145728	@ 0x300000
 800467c:	432a      	orrs	r2, r5
 800467e:	f8c1 2088 	str.w	r2, [r1, #136]	@ 0x88
 8004682:	f5b5 1f80 	cmp.w	r5, #1048576	@ 0x100000
 8004686:	bf02      	ittt	eq
 8004688:	68ca      	ldreq	r2, [r1, #12]
 800468a:	f442 1280 	orreq.w	r2, r2, #1048576	@ 0x100000
 800468e:	60ca      	streq	r2, [r1, #12]
 8004690:	051a      	lsls	r2, r3, #20
 8004692:	d50f      	bpl.n	80046b4 <HAL_RCCEx_PeriphCLKConfig+0x200>
 8004694:	4942      	ldr	r1, [pc, #264]	@ (80047a0 <HAL_RCCEx_PeriphCLKConfig+0x2ec>)
 8004696:	6b65      	ldr	r5, [r4, #52]	@ 0x34
 8004698:	f8d1 2088 	ldr.w	r2, [r1, #136]	@ 0x88
 800469c:	f422 0240 	bic.w	r2, r2, #12582912	@ 0xc00000
 80046a0:	432a      	orrs	r2, r5
 80046a2:	f8c1 2088 	str.w	r2, [r1, #136]	@ 0x88
 80046a6:	f5b5 0f80 	cmp.w	r5, #4194304	@ 0x400000
 80046aa:	bf02      	ittt	eq
 80046ac:	68ca      	ldreq	r2, [r1, #12]
 80046ae:	f442 1280 	orreq.w	r2, r2, #1048576	@ 0x100000
 80046b2:	60ca      	streq	r2, [r1, #12]
 80046b4:	04df      	lsls	r7, r3, #19
 80046b6:	d50f      	bpl.n	80046d8 <HAL_RCCEx_PeriphCLKConfig+0x224>
 80046b8:	4939      	ldr	r1, [pc, #228]	@ (80047a0 <HAL_RCCEx_PeriphCLKConfig+0x2ec>)
 80046ba:	6ba5      	ldr	r5, [r4, #56]	@ 0x38
 80046bc:	f8d1 2088 	ldr.w	r2, [r1, #136]	@ 0x88
 80046c0:	f022 7240 	bic.w	r2, r2, #50331648	@ 0x3000000
 80046c4:	432a      	orrs	r2, r5
 80046c6:	f8c1 2088 	str.w	r2, [r1, #136]	@ 0x88
 80046ca:	f1b5 7f80 	cmp.w	r5, #16777216	@ 0x1000000
 80046ce:	bf02      	ittt	eq
 80046d0:	68ca      	ldreq	r2, [r1, #12]
 80046d2:	f442 1280 	orreq.w	r2, r2, #1048576	@ 0x100000
 80046d6:	60ca      	streq	r2, [r1, #12]
 80046d8:	049e      	lsls	r6, r3, #18
 80046da:	d50f      	bpl.n	80046fc <HAL_RCCEx_PeriphCLKConfig+0x248>
 80046dc:	4930      	ldr	r1, [pc, #192]	@ (80047a0 <HAL_RCCEx_PeriphCLKConfig+0x2ec>)
 80046de:	6be5      	ldr	r5, [r4, #60]	@ 0x3c
 80046e0:	f8d1 2088 	ldr.w	r2, [r1, #136]	@ 0x88
 80046e4:	f022 6240 	bic.w	r2, r2, #201326592	@ 0xc000000
 80046e8:	432a      	orrs	r2, r5
 80046ea:	f8c1 2088 	str.w	r2, [r1, #136]	@ 0x88
 80046ee:	f1b5 6f00 	cmp.w	r5, #134217728	@ 0x8000000
 80046f2:	bf02      	ittt	eq
 80046f4:	68ca      	ldreq	r2, [r1, #12]
 80046f6:	f442 1280 	orreq.w	r2, r2, #1048576	@ 0x100000
 80046fa:	60ca      	streq	r2, [r1, #12]
 80046fc:	045d      	lsls	r5, r3, #17
 80046fe:	d50f      	bpl.n	8004720 <HAL_RCCEx_PeriphCLKConfig+0x26c>
 8004700:	4927      	ldr	r1, [pc, #156]	@ (80047a0 <HAL_RCCEx_PeriphCLKConfig+0x2ec>)
 8004702:	6c25      	ldr	r5, [r4, #64]	@ 0x40
 8004704:	f8d1 2088 	ldr.w	r2, [r1, #136]	@ 0x88
 8004708:	f022 6240 	bic.w	r2, r2, #201326592	@ 0xc000000
 800470c:	432a      	orrs	r2, r5
 800470e:	f8c1 2088 	str.w	r2, [r1, #136]	@ 0x88
 8004712:	f1b5 6f00 	cmp.w	r5, #134217728	@ 0x8000000
 8004716:	bf02      	ittt	eq
 8004718:	68ca      	ldreq	r2, [r1, #12]
 800471a:	f442 1280 	orreq.w	r2, r2, #1048576	@ 0x100000
 800471e:	60ca      	streq	r2, [r1, #12]
 8004720:	0419      	lsls	r1, r3, #16
 8004722:	d50f      	bpl.n	8004744 <HAL_RCCEx_PeriphCLKConfig+0x290>
 8004724:	491e      	ldr	r1, [pc, #120]	@ (80047a0 <HAL_RCCEx_PeriphCLKConfig+0x2ec>)
 8004726:	6c65      	ldr	r5, [r4, #68]	@ 0x44
 8004728:	f8d1 2088 	ldr.w	r2, [r1, #136]	@ 0x88
 800472c:	f022 5240 	bic.w	r2, r2, #805306368	@ 0x30000000
 8004730:	432a      	orrs	r2, r5
 8004732:	f8c1 2088 	str.w	r2, [r1, #136]	@ 0x88
 8004736:	f1b5 5f80 	cmp.w	r5, #268435456	@ 0x10000000
 800473a:	bf02      	ittt	eq
 800473c:	68ca      	ldreq	r2, [r1, #12]
 800473e:	f442 3280 	orreq.w	r2, r2, #65536	@ 0x10000
 8004742:	60ca      	streq	r2, [r1, #12]
 8004744:	03da      	lsls	r2, r3, #15
 8004746:	d50f      	bpl.n	8004768 <HAL_RCCEx_PeriphCLKConfig+0x2b4>
 8004748:	4915      	ldr	r1, [pc, #84]	@ (80047a0 <HAL_RCCEx_PeriphCLKConfig+0x2ec>)
 800474a:	6ca5      	ldr	r5, [r4, #72]	@ 0x48
 800474c:	f8d1 2088 	ldr.w	r2, [r1, #136]	@ 0x88
 8004750:	f022 4240 	bic.w	r2, r2, #3221225472	@ 0xc0000000
 8004754:	432a      	orrs	r2, r5
 8004756:	f8c1 2088 	str.w	r2, [r1, #136]	@ 0x88
 800475a:	f1b5 4f80 	cmp.w	r5, #1073741824	@ 0x40000000
 800475e:	bf02      	ittt	eq
 8004760:	68ca      	ldreq	r2, [r1, #12]
 8004762:	f442 3280 	orreq.w	r2, r2, #65536	@ 0x10000
 8004766:	60ca      	streq	r2, [r1, #12]
 8004768:	035b      	lsls	r3, r3, #13
 800476a:	d50f      	bpl.n	800478c <HAL_RCCEx_PeriphCLKConfig+0x2d8>
 800476c:	4a0c      	ldr	r2, [pc, #48]	@ (80047a0 <HAL_RCCEx_PeriphCLKConfig+0x2ec>)
 800476e:	6ce1      	ldr	r1, [r4, #76]	@ 0x4c
 8004770:	f8d2 309c 	ldr.w	r3, [r2, #156]	@ 0x9c
 8004774:	f423 1340 	bic.w	r3, r3, #3145728	@ 0x300000
 8004778:	430b      	orrs	r3, r1
 800477a:	f5b1 1f00 	cmp.w	r1, #2097152	@ 0x200000
 800477e:	f8c2 309c 	str.w	r3, [r2, #156]	@ 0x9c
 8004782:	d103      	bne.n	800478c <HAL_RCCEx_PeriphCLKConfig+0x2d8>
 8004784:	68d3      	ldr	r3, [r2, #12]
 8004786:	f443 1380 	orr.w	r3, r3, #1048576	@ 0x100000
 800478a:	60d3      	str	r3, [r2, #12]
 800478c:	b002      	add	sp, #8
 800478e:	e8bd 81f0 	ldmia.w	sp!, {r4, r5, r6, r7, r8, pc}
 8004792:	f7fd fd23 	bl	80021dc <HAL_GetTick>
 8004796:	1bc0      	subs	r0, r0, r7
 8004798:	4540      	cmp	r0, r8
 800479a:	f67f aecc 	bls.w	8004536 <HAL_RCCEx_PeriphCLKConfig+0x82>
 800479e:	e6e5      	b.n	800456c <HAL_RCCEx_PeriphCLKConfig+0xb8>
 80047a0:	40021000 	.word	0x40021000

080047a4 <HAL_TIM_Base_Start>:
 80047a4:	f890 303d 	ldrb.w	r3, [r0, #61]	@ 0x3d
 80047a8:	2b01      	cmp	r3, #1
 80047aa:	d12f      	bne.n	800480c <HAL_TIM_Base_Start+0x68>
 80047ac:	2302      	movs	r3, #2
 80047ae:	4a18      	ldr	r2, [pc, #96]	@ (8004810 <HAL_TIM_Base_Start+0x6c>)
 80047b0:	f880 303d 	strb.w	r3, [r0, #61]	@ 0x3d
 80047b4:	6803      	ldr	r3, [r0, #0]
 80047b6:	4293      	cmp	r3, r2
 80047b8:	d01a      	beq.n	80047f0 <HAL_TIM_Base_Start+0x4c>
 80047ba:	f1b3 4f80 	cmp.w	r3, #1073741824	@ 0x40000000
 80047be:	d017      	beq.n	80047f0 <HAL_TIM_Base_Start+0x4c>
 80047c0:	f5a2 3294 	sub.w	r2, r2, #75776	@ 0x12800
 80047c4:	4293      	cmp	r3, r2
 80047c6:	d013      	beq.n	80047f0 <HAL_TIM_Base_Start+0x4c>
 80047c8:	f502 6280 	add.w	r2, r2, #1024	@ 0x400
 80047cc:	4293      	cmp	r3, r2
 80047ce:	d00f      	beq.n	80047f0 <HAL_TIM_Base_Start+0x4c>
 80047d0:	f502 6280 	add.w	r2, r2, #1024	@ 0x400
 80047d4:	4293      	cmp	r3, r2
 80047d6:	d00b      	beq.n	80047f0 <HAL_TIM_Base_Start+0x4c>
 80047d8:	f502 3294 	add.w	r2, r2, #75776	@ 0x12800
 80047dc:	4293      	cmp	r3, r2
 80047de:	d007      	beq.n	80047f0 <HAL_TIM_Base_Start+0x4c>
 80047e0:	f502 6240 	add.w	r2, r2, #3072	@ 0xc00
 80047e4:	4293      	cmp	r3, r2
 80047e6:	d003      	beq.n	80047f0 <HAL_TIM_Base_Start+0x4c>
 80047e8:	f502 5280 	add.w	r2, r2, #4096	@ 0x1000
 80047ec:	4293      	cmp	r3, r2
 80047ee:	d107      	bne.n	8004800 <HAL_TIM_Base_Start+0x5c>
 80047f0:	6899      	ldr	r1, [r3, #8]
 80047f2:	4a08      	ldr	r2, [pc, #32]	@ (8004814 <HAL_TIM_Base_Start+0x70>)
 80047f4:	400a      	ands	r2, r1
 80047f6:	2a06      	cmp	r2, #6
 80047f8:	d006      	beq.n	8004808 <HAL_TIM_Base_Start+0x64>
 80047fa:	f5b2 3f80 	cmp.w	r2, #65536	@ 0x10000
 80047fe:	d003      	beq.n	8004808 <HAL_TIM_Base_Start+0x64>
 8004800:	681a      	ldr	r2, [r3, #0]
 8004802:	f042 0201 	orr.w	r2, r2, #1
 8004806:	601a      	str	r2, [r3, #0]
 8004808:	2000      	movs	r0, #0
 800480a:	4770      	bx	lr
 800480c:	2001      	movs	r0, #1
 800480e:	4770      	bx	lr
 8004810:	40012c00 	.word	0x40012c00
 8004814:	00010007 	.word	0x00010007

08004818 <HAL_TIM_Base_Start_IT>:
 8004818:	f890 303d 	ldrb.w	r3, [r0, #61]	@ 0x3d
 800481c:	2b01      	cmp	r3, #1
 800481e:	d133      	bne.n	8004888 <HAL_TIM_Base_Start_IT+0x70>
 8004820:	2302      	movs	r3, #2
 8004822:	f880 303d 	strb.w	r3, [r0, #61]	@ 0x3d
 8004826:	6803      	ldr	r3, [r0, #0]
 8004828:	68da      	ldr	r2, [r3, #12]
 800482a:	f042 0201 	orr.w	r2, r2, #1
 800482e:	60da      	str	r2, [r3, #12]
 8004830:	4a16      	ldr	r2, [pc, #88]	@ (800488c <HAL_TIM_Base_Start_IT+0x74>)
 8004832:	4293      	cmp	r3, r2
 8004834:	d01a      	beq.n	800486c <HAL_TIM_Base_Start_IT+0x54>
 8004836:	f1b3 4f80 	cmp.w	r3, #1073741824	@ 0x40000000
 800483a:	d017      	beq.n	800486c <HAL_TIM_Base_Start_IT+0x54>
 800483c:	f5a2 3294 	sub.w	r2, r2, #75776	@ 0x12800
 8004840:	4293      	cmp	r3, r2
 8004842:	d013      	beq.n	800486c <HAL_TIM_Base_Start_IT+0x54>
 8004844:	f502 6280 	add.w	r2, r2, #1024	@ 0x400
 8004848:	4293      	cmp	r3, r2
 800484a:	d00f      	beq.n	800486c <HAL_TIM_Base_Start_IT+0x54>
 800484c:	f502 6280 	add.w	r2, r2, #1024	@ 0x400
 8004850:	4293      	cmp	r3, r2
 8004852:	d00b      	beq.n	800486c <HAL_TIM_Base_Start_IT+0x54>
 8004854:	f502 3294 	add.w	r2, r2, #75776	@ 0x12800
 8004858:	4293      	cmp	r3, r2
 800485a:	d007      	beq.n	800486c <HAL_TIM_Base_Start_IT+0x54>
 800485c:	f502 6240 	add.w	r2, r2, #3072	@ 0xc00
 8004860:	4293      	cmp	r3, r2
 8004862:	d003      	beq.n	800486c <HAL_TIM_Base_Start_IT+0x54>
 8004864:	f502 5280 	add.w	r2, r2, #4096	@ 0x1000
 8004868:	4293      	cmp	r3, r2
 800486a:	d107      	bne.n	800487c <HAL_TIM_Base_Start_IT+0x64>
 800486c:	6899      	ldr	r1, [r3, #8]
 800486e:	4a08      	ldr	r2, [pc, #32]	@ (8004890 <HAL_TIM_Base_Start_IT+0x78>)
 8004870:	400a      	ands	r2, r1
 8004872:	2a06      	cmp	r2, #6
 8004874:	d006      	beq.n	8004884 <HAL_TIM_Base_Start_IT+0x6c>
 8004876:	f5b2 3f80 	cmp.w	r2, #65536	@ 0x10000
 800487a:	d003      	beq.n	8004884 <HAL_TIM_Base_Start_IT+0x6c>
 800487c:	681a      	ldr	r2, [r3, #0]
 800487e:	f042 0201 	orr.w	r2, r2, #1
 8004882:	601a      	str	r2, [r3, #0]
 8004884:	2000      	movs	r0, #0
 8004886:	4770      	bx	lr
 8004888:	2001      	movs	r0, #1
 800488a:	4770      	bx	lr
 800488c:	40012c00 	.word	0x40012c00
 8004890:	00010007 	.word	0x00010007

08004894 <HAL_TIM_OC_DelayElapsedCallback>:
 8004894:	4770      	bx	lr

08004896 <HAL_TIM_IC_CaptureCallback>:
 8004896:	4770      	bx	lr

08004898 <HAL_TIM_PWM_PulseFinishedCallback>:
 8004898:	4770      	bx	lr

0800489a <HAL_TIM_TriggerCallback>:
 800489a:	4770      	bx	lr

0800489c <HAL_TIM_IRQHandler>:
 800489c:	6803      	ldr	r3, [r0, #0]
 800489e:	b570      	push	{r4, r5, r6, lr}
 80048a0:	68dd      	ldr	r5, [r3, #12]
 80048a2:	691e      	ldr	r6, [r3, #16]
 80048a4:	07b2      	lsls	r2, r6, #30
 80048a6:	4604      	mov	r4, r0
 80048a8:	d50e      	bpl.n	80048c8 <HAL_TIM_IRQHandler+0x2c>
 80048aa:	07a9      	lsls	r1, r5, #30
 80048ac:	d50c      	bpl.n	80048c8 <HAL_TIM_IRQHandler+0x2c>
 80048ae:	f06f 0202 	mvn.w	r2, #2
 80048b2:	611a      	str	r2, [r3, #16]
 80048b4:	2201      	movs	r2, #1
 80048b6:	7702      	strb	r2, [r0, #28]
 80048b8:	699b      	ldr	r3, [r3, #24]
 80048ba:	079a      	lsls	r2, r3, #30
 80048bc:	f000 80a4 	beq.w	8004a08 <HAL_TIM_IRQHandler+0x16c>
 80048c0:	f7ff ffe9 	bl	8004896 <HAL_TIM_IC_CaptureCallback>
 80048c4:	2300      	movs	r3, #0
 80048c6:	7723      	strb	r3, [r4, #28]
 80048c8:	0773      	lsls	r3, r6, #29
 80048ca:	d511      	bpl.n	80048f0 <HAL_TIM_IRQHandler+0x54>
 80048cc:	0768      	lsls	r0, r5, #29
 80048ce:	d50f      	bpl.n	80048f0 <HAL_TIM_IRQHandler+0x54>
 80048d0:	6823      	ldr	r3, [r4, #0]
 80048d2:	f06f 0204 	mvn.w	r2, #4
 80048d6:	611a      	str	r2, [r3, #16]
 80048d8:	2202      	movs	r2, #2
 80048da:	7722      	strb	r2, [r4, #28]
 80048dc:	699b      	ldr	r3, [r3, #24]
 80048de:	f413 7f40 	tst.w	r3, #768	@ 0x300
 80048e2:	4620      	mov	r0, r4
 80048e4:	f000 8096 	beq.w	8004a14 <HAL_TIM_IRQHandler+0x178>
 80048e8:	f7ff ffd5 	bl	8004896 <HAL_TIM_IC_CaptureCallback>
 80048ec:	2300      	movs	r3, #0
 80048ee:	7723      	strb	r3, [r4, #28]
 80048f0:	0731      	lsls	r1, r6, #28
 80048f2:	d510      	bpl.n	8004916 <HAL_TIM_IRQHandler+0x7a>
 80048f4:	072a      	lsls	r2, r5, #28
 80048f6:	d50e      	bpl.n	8004916 <HAL_TIM_IRQHandler+0x7a>
 80048f8:	6823      	ldr	r3, [r4, #0]
 80048fa:	f06f 0208 	mvn.w	r2, #8
 80048fe:	611a      	str	r2, [r3, #16]
 8004900:	2204      	movs	r2, #4
 8004902:	7722      	strb	r2, [r4, #28]
 8004904:	69db      	ldr	r3, [r3, #28]
 8004906:	079b      	lsls	r3, r3, #30
 8004908:	4620      	mov	r0, r4
 800490a:	f000 8089 	beq.w	8004a20 <HAL_TIM_IRQHandler+0x184>
 800490e:	f7ff ffc2 	bl	8004896 <HAL_TIM_IC_CaptureCallback>
 8004912:	2300      	movs	r3, #0
 8004914:	7723      	strb	r3, [r4, #28]
 8004916:	06f1      	lsls	r1, r6, #27
 8004918:	d510      	bpl.n	800493c <HAL_TIM_IRQHandler+0xa0>
 800491a:	06ea      	lsls	r2, r5, #27
 800491c:	d50e      	bpl.n	800493c <HAL_TIM_IRQHandler+0xa0>
 800491e:	6823      	ldr	r3, [r4, #0]
 8004920:	f06f 0210 	mvn.w	r2, #16
 8004924:	611a      	str	r2, [r3, #16]
 8004926:	2208      	movs	r2, #8
 8004928:	7722      	strb	r2, [r4, #28]
 800492a:	69db      	ldr	r3, [r3, #28]
 800492c:	f413 7f40 	tst.w	r3, #768	@ 0x300
 8004930:	4620      	mov	r0, r4
 8004932:	d07b      	beq.n	8004a2c <HAL_TIM_IRQHandler+0x190>
 8004934:	f7ff ffaf 	bl	8004896 <HAL_TIM_IC_CaptureCallback>
 8004938:	2300      	movs	r3, #0
 800493a:	7723      	strb	r3, [r4, #28]
 800493c:	07f3      	lsls	r3, r6, #31
 800493e:	d508      	bpl.n	8004952 <HAL_TIM_IRQHandler+0xb6>
 8004940:	07e8      	lsls	r0, r5, #31
 8004942:	d506      	bpl.n	8004952 <HAL_TIM_IRQHandler+0xb6>
 8004944:	6823      	ldr	r3, [r4, #0]
 8004946:	f06f 0201 	mvn.w	r2, #1
 800494a:	611a      	str	r2, [r3, #16]
 800494c:	4620      	mov	r0, r4
 800494e:	f7fc fe35 	bl	80015bc <HAL_TIM_PeriodElapsedCallback>
 8004952:	f416 5f02 	tst.w	r6, #8320	@ 0x2080
 8004956:	d008      	beq.n	800496a <HAL_TIM_IRQHandler+0xce>
 8004958:	0629      	lsls	r1, r5, #24
 800495a:	d506      	bpl.n	800496a <HAL_TIM_IRQHandler+0xce>
 800495c:	6823      	ldr	r3, [r4, #0]
 800495e:	f46f 5202 	mvn.w	r2, #8320	@ 0x2080
 8004962:	611a      	str	r2, [r3, #16]
 8004964:	4620      	mov	r0, r4
 8004966:	f000 fa1e 	bl	8004da6 <HAL_TIMEx_BreakCallback>
 800496a:	05f2      	lsls	r2, r6, #23
 800496c:	d508      	bpl.n	8004980 <HAL_TIM_IRQHandler+0xe4>
 800496e:	062b      	lsls	r3, r5, #24
 8004970:	d506      	bpl.n	8004980 <HAL_TIM_IRQHandler+0xe4>
 8004972:	6823      	ldr	r3, [r4, #0]
 8004974:	f46f 7280 	mvn.w	r2, #256	@ 0x100
 8004978:	611a      	str	r2, [r3, #16]
 800497a:	4620      	mov	r0, r4
 800497c:	f000 fa14 	bl	8004da8 <HAL_TIMEx_Break2Callback>
 8004980:	0670      	lsls	r0, r6, #25
 8004982:	d508      	bpl.n	8004996 <HAL_TIM_IRQHandler+0xfa>
 8004984:	0669      	lsls	r1, r5, #25
 8004986:	d506      	bpl.n	8004996 <HAL_TIM_IRQHandler+0xfa>
 8004988:	6823      	ldr	r3, [r4, #0]
 800498a:	f06f 0240 	mvn.w	r2, #64	@ 0x40
 800498e:	611a      	str	r2, [r3, #16]
 8004990:	4620      	mov	r0, r4
 8004992:	f7ff ff82 	bl	800489a <HAL_TIM_TriggerCallback>
 8004996:	06b2      	lsls	r2, r6, #26
 8004998:	d508      	bpl.n	80049ac <HAL_TIM_IRQHandler+0x110>
 800499a:	06ab      	lsls	r3, r5, #26
 800499c:	d506      	bpl.n	80049ac <HAL_TIM_IRQHandler+0x110>
 800499e:	6823      	ldr	r3, [r4, #0]
 80049a0:	f06f 0220 	mvn.w	r2, #32
 80049a4:	611a      	str	r2, [r3, #16]
 80049a6:	4620      	mov	r0, r4
 80049a8:	f000 f9fc 	bl	8004da4 <HAL_TIMEx_CommutCallback>
 80049ac:	02f0      	lsls	r0, r6, #11
 80049ae:	d508      	bpl.n	80049c2 <HAL_TIM_IRQHandler+0x126>
 80049b0:	02e9      	lsls	r1, r5, #11
 80049b2:	d506      	bpl.n	80049c2 <HAL_TIM_IRQHandler+0x126>
 80049b4:	6823      	ldr	r3, [r4, #0]
 80049b6:	f46f 1280 	mvn.w	r2, #1048576	@ 0x100000
 80049ba:	611a      	str	r2, [r3, #16]
 80049bc:	4620      	mov	r0, r4
 80049be:	f000 f9f4 	bl	8004daa <HAL_TIMEx_EncoderIndexCallback>
 80049c2:	02b2      	lsls	r2, r6, #10
 80049c4:	d508      	bpl.n	80049d8 <HAL_TIM_IRQHandler+0x13c>
 80049c6:	02ab      	lsls	r3, r5, #10
 80049c8:	d506      	bpl.n	80049d8 <HAL_TIM_IRQHandler+0x13c>
 80049ca:	6823      	ldr	r3, [r4, #0]
 80049cc:	f46f 1200 	mvn.w	r2, #2097152	@ 0x200000
 80049d0:	611a      	str	r2, [r3, #16]
 80049d2:	4620      	mov	r0, r4
 80049d4:	f000 f9ea 	bl	8004dac <HAL_TIMEx_DirectionChangeCallback>
 80049d8:	0270      	lsls	r0, r6, #9
 80049da:	d508      	bpl.n	80049ee <HAL_TIM_IRQHandler+0x152>
 80049dc:	0269      	lsls	r1, r5, #9
 80049de:	d506      	bpl.n	80049ee <HAL_TIM_IRQHandler+0x152>
 80049e0:	6823      	ldr	r3, [r4, #0]
 80049e2:	f46f 0280 	mvn.w	r2, #4194304	@ 0x400000
 80049e6:	611a      	str	r2, [r3, #16]
 80049e8:	4620      	mov	r0, r4
 80049ea:	f000 f9e0 	bl	8004dae <HAL_TIMEx_IndexErrorCallback>
 80049ee:	0232      	lsls	r2, r6, #8
 80049f0:	d522      	bpl.n	8004a38 <HAL_TIM_IRQHandler+0x19c>
 80049f2:	022b      	lsls	r3, r5, #8
 80049f4:	d520      	bpl.n	8004a38 <HAL_TIM_IRQHandler+0x19c>
 80049f6:	6823      	ldr	r3, [r4, #0]
 80049f8:	f46f 0200 	mvn.w	r2, #8388608	@ 0x800000
 80049fc:	4620      	mov	r0, r4
 80049fe:	611a      	str	r2, [r3, #16]
 8004a00:	e8bd 4070 	ldmia.w	sp!, {r4, r5, r6, lr}
 8004a04:	f000 b9d4 	b.w	8004db0 <HAL_TIMEx_TransitionErrorCallback>
 8004a08:	f7ff ff44 	bl	8004894 <HAL_TIM_OC_DelayElapsedCallback>
 8004a0c:	4620      	mov	r0, r4
 8004a0e:	f7ff ff43 	bl	8004898 <HAL_TIM_PWM_PulseFinishedCallback>
 8004a12:	e757      	b.n	80048c4 <HAL_TIM_IRQHandler+0x28>
 8004a14:	f7ff ff3e 	bl	8004894 <HAL_TIM_OC_DelayElapsedCallback>
 8004a18:	4620      	mov	r0, r4
 8004a1a:	f7ff ff3d 	bl	8004898 <HAL_TIM_PWM_PulseFinishedCallback>
 8004a1e:	e765      	b.n	80048ec <HAL_TIM_IRQHandler+0x50>
 8004a20:	f7ff ff38 	bl	8004894 <HAL_TIM_OC_DelayElapsedCallback>
 8004a24:	4620      	mov	r0, r4
 8004a26:	f7ff ff37 	bl	8004898 <HAL_TIM_PWM_PulseFinishedCallback>
 8004a2a:	e772      	b.n	8004912 <HAL_TIM_IRQHandler+0x76>
 8004a2c:	f7ff ff32 	bl	8004894 <HAL_TIM_OC_DelayElapsedCallback>
 8004a30:	4620      	mov	r0, r4
 8004a32:	f7ff ff31 	bl	8004898 <HAL_TIM_PWM_PulseFinishedCallback>
 8004a36:	e77f      	b.n	8004938 <HAL_TIM_IRQHandler+0x9c>
 8004a38:	bd70      	pop	{r4, r5, r6, pc}
	...

08004a3c <TIM_Base_SetConfig>:
 8004a3c:	4a2d      	ldr	r2, [pc, #180]	@ (8004af4 <TIM_Base_SetConfig+0xb8>)
 8004a3e:	6803      	ldr	r3, [r0, #0]
 8004a40:	4290      	cmp	r0, r2
 8004a42:	d016      	beq.n	8004a72 <TIM_Base_SetConfig+0x36>
 8004a44:	f1b0 4f80 	cmp.w	r0, #1073741824	@ 0x40000000
 8004a48:	d013      	beq.n	8004a72 <TIM_Base_SetConfig+0x36>
 8004a4a:	f5a2 3294 	sub.w	r2, r2, #75776	@ 0x12800
 8004a4e:	4290      	cmp	r0, r2
 8004a50:	d00f      	beq.n	8004a72 <TIM_Base_SetConfig+0x36>
 8004a52:	f502 6280 	add.w	r2, r2, #1024	@ 0x400
 8004a56:	4290      	cmp	r0, r2
 8004a58:	d00b      	beq.n	8004a72 <TIM_Base_SetConfig+0x36>
 8004a5a:	f502 6280 	add.w	r2, r2, #1024	@ 0x400
 8004a5e:	4290      	cmp	r0, r2
 8004a60:	d007      	beq.n	8004a72 <TIM_Base_SetConfig+0x36>
 8004a62:	f502 3294 	add.w	r2, r2, #75776	@ 0x12800
 8004a66:	4290      	cmp	r0, r2
 8004a68:	d003      	beq.n	8004a72 <TIM_Base_SetConfig+0x36>
 8004a6a:	f502 52e0 	add.w	r2, r2, #7168	@ 0x1c00
 8004a6e:	4290      	cmp	r0, r2
 8004a70:	d108      	bne.n	8004a84 <TIM_Base_SetConfig+0x48>
 8004a72:	684a      	ldr	r2, [r1, #4]
 8004a74:	f023 0370 	bic.w	r3, r3, #112	@ 0x70
 8004a78:	4313      	orrs	r3, r2
 8004a7a:	68ca      	ldr	r2, [r1, #12]
 8004a7c:	f423 7340 	bic.w	r3, r3, #768	@ 0x300
 8004a80:	4313      	orrs	r3, r2
 8004a82:	e00a      	b.n	8004a9a <TIM_Base_SetConfig+0x5e>
 8004a84:	4a1c      	ldr	r2, [pc, #112]	@ (8004af8 <TIM_Base_SetConfig+0xbc>)
 8004a86:	4290      	cmp	r0, r2
 8004a88:	d0f7      	beq.n	8004a7a <TIM_Base_SetConfig+0x3e>
 8004a8a:	f502 6280 	add.w	r2, r2, #1024	@ 0x400
 8004a8e:	4290      	cmp	r0, r2
 8004a90:	d0f3      	beq.n	8004a7a <TIM_Base_SetConfig+0x3e>
 8004a92:	f502 6280 	add.w	r2, r2, #1024	@ 0x400
 8004a96:	4290      	cmp	r0, r2
 8004a98:	d0ef      	beq.n	8004a7a <TIM_Base_SetConfig+0x3e>
 8004a9a:	694a      	ldr	r2, [r1, #20]
 8004a9c:	f023 0380 	bic.w	r3, r3, #128	@ 0x80
 8004aa0:	4313      	orrs	r3, r2
 8004aa2:	6003      	str	r3, [r0, #0]
 8004aa4:	688b      	ldr	r3, [r1, #8]
 8004aa6:	62c3      	str	r3, [r0, #44]	@ 0x2c
 8004aa8:	680b      	ldr	r3, [r1, #0]
 8004aaa:	6283      	str	r3, [r0, #40]	@ 0x28
 8004aac:	4b11      	ldr	r3, [pc, #68]	@ (8004af4 <TIM_Base_SetConfig+0xb8>)
 8004aae:	4298      	cmp	r0, r3
 8004ab0:	d013      	beq.n	8004ada <TIM_Base_SetConfig+0x9e>
 8004ab2:	f503 6300 	add.w	r3, r3, #2048	@ 0x800
 8004ab6:	4298      	cmp	r0, r3
 8004ab8:	d00f      	beq.n	8004ada <TIM_Base_SetConfig+0x9e>
 8004aba:	f503 6340 	add.w	r3, r3, #3072	@ 0xc00
 8004abe:	4298      	cmp	r0, r3
 8004ac0:	d00b      	beq.n	8004ada <TIM_Base_SetConfig+0x9e>
 8004ac2:	f503 6380 	add.w	r3, r3, #1024	@ 0x400
 8004ac6:	4298      	cmp	r0, r3
 8004ac8:	d007      	beq.n	8004ada <TIM_Base_SetConfig+0x9e>
 8004aca:	f503 6380 	add.w	r3, r3, #1024	@ 0x400
 8004ace:	4298      	cmp	r0, r3
 8004ad0:	d003      	beq.n	8004ada <TIM_Base_SetConfig+0x9e>
 8004ad2:	f503 6300 	add.w	r3, r3, #2048	@ 0x800
 8004ad6:	4298      	cmp	r0, r3
 8004ad8:	d101      	bne.n	8004ade <TIM_Base_SetConfig+0xa2>
 8004ada:	690b      	ldr	r3, [r1, #16]
 8004adc:	6303      	str	r3, [r0, #48]	@ 0x30
 8004ade:	2301      	movs	r3, #1
 8004ae0:	6143      	str	r3, [r0, #20]
 8004ae2:	6903      	ldr	r3, [r0, #16]
 8004ae4:	07db      	lsls	r3, r3, #31
 8004ae6:	bf42      	ittt	mi
 8004ae8:	6903      	ldrmi	r3, [r0, #16]
 8004aea:	f023 0301 	bicmi.w	r3, r3, #1
 8004aee:	6103      	strmi	r3, [r0, #16]
 8004af0:	4770      	bx	lr
 8004af2:	bf00      	nop
 8004af4:	40012c00 	.word	0x40012c00
 8004af8:	40014000 	.word	0x40014000

08004afc <HAL_TIM_Base_Init>:
 8004afc:	b510      	push	{r4, lr}
 8004afe:	4604      	mov	r4, r0
 8004b00:	b350      	cbz	r0, 8004b58 <HAL_TIM_Base_Init+0x5c>
 8004b02:	f890 303d 	ldrb.w	r3, [r0, #61]	@ 0x3d
 8004b06:	f003 02ff 	and.w	r2, r3, #255	@ 0xff
 8004b0a:	b91b      	cbnz	r3, 8004b14 <HAL_TIM_Base_Init+0x18>
 8004b0c:	f880 203c 	strb.w	r2, [r0, #60]	@ 0x3c
 8004b10:	f7fc ffc2 	bl	8001a98 <HAL_TIM_Base_MspInit>
 8004b14:	2302      	movs	r3, #2
 8004b16:	6820      	ldr	r0, [r4, #0]
 8004b18:	f884 303d 	strb.w	r3, [r4, #61]	@ 0x3d
 8004b1c:	1d21      	adds	r1, r4, #4
 8004b1e:	f7ff ff8d 	bl	8004a3c <TIM_Base_SetConfig>
 8004b22:	2301      	movs	r3, #1
 8004b24:	f884 3048 	strb.w	r3, [r4, #72]	@ 0x48
 8004b28:	2000      	movs	r0, #0
 8004b2a:	f884 303e 	strb.w	r3, [r4, #62]	@ 0x3e
 8004b2e:	f884 303f 	strb.w	r3, [r4, #63]	@ 0x3f
 8004b32:	f884 3040 	strb.w	r3, [r4, #64]	@ 0x40
 8004b36:	f884 3041 	strb.w	r3, [r4, #65]	@ 0x41
 8004b3a:	f884 3042 	strb.w	r3, [r4, #66]	@ 0x42
 8004b3e:	f884 3043 	strb.w	r3, [r4, #67]	@ 0x43
 8004b42:	f884 3044 	strb.w	r3, [r4, #68]	@ 0x44
 8004b46:	f884 3045 	strb.w	r3, [r4, #69]	@ 0x45
 8004b4a:	f884 3046 	strb.w	r3, [r4, #70]	@ 0x46
 8004b4e:	f884 3047 	strb.w	r3, [r4, #71]	@ 0x47
 8004b52:	f884 303d 	strb.w	r3, [r4, #61]	@ 0x3d
 8004b56:	bd10      	pop	{r4, pc}
 8004b58:	2001      	movs	r0, #1
 8004b5a:	e7fc      	b.n	8004b56 <HAL_TIM_Base_Init+0x5a>

08004b5c <TIM_ETR_SetConfig>:
 8004b5c:	b510      	push	{r4, lr}
 8004b5e:	6884      	ldr	r4, [r0, #8]
 8004b60:	430a      	orrs	r2, r1
 8004b62:	f424 447f 	bic.w	r4, r4, #65280	@ 0xff00
 8004b66:	ea42 2203 	orr.w	r2, r2, r3, lsl #8
 8004b6a:	4322      	orrs	r2, r4
 8004b6c:	6082      	str	r2, [r0, #8]
 8004b6e:	bd10      	pop	{r4, pc}

08004b70 <HAL_TIM_ConfigClockSource>:
 8004b70:	b538      	push	{r3, r4, r5, lr}
 8004b72:	f890 303c 	ldrb.w	r3, [r0, #60]	@ 0x3c
 8004b76:	2b01      	cmp	r3, #1
 8004b78:	4604      	mov	r4, r0
 8004b7a:	f04f 0302 	mov.w	r3, #2
 8004b7e:	f000 80b5 	beq.w	8004cec <HAL_TIM_ConfigClockSource+0x17c>
 8004b82:	2201      	movs	r2, #1
 8004b84:	f880 303d 	strb.w	r3, [r0, #61]	@ 0x3d
 8004b88:	f880 203c 	strb.w	r2, [r0, #60]	@ 0x3c
 8004b8c:	6800      	ldr	r0, [r0, #0]
 8004b8e:	4b58      	ldr	r3, [pc, #352]	@ (8004cf0 <HAL_TIM_ConfigClockSource+0x180>)
 8004b90:	6885      	ldr	r5, [r0, #8]
 8004b92:	402b      	ands	r3, r5
 8004b94:	6083      	str	r3, [r0, #8]
 8004b96:	680b      	ldr	r3, [r1, #0]
 8004b98:	2b70      	cmp	r3, #112	@ 0x70
 8004b9a:	d047      	beq.n	8004c2c <HAL_TIM_ConfigClockSource+0xbc>
 8004b9c:	d824      	bhi.n	8004be8 <HAL_TIM_ConfigClockSource+0x78>
 8004b9e:	2b50      	cmp	r3, #80	@ 0x50
 8004ba0:	d058      	beq.n	8004c54 <HAL_TIM_ConfigClockSource+0xe4>
 8004ba2:	d817      	bhi.n	8004bd4 <HAL_TIM_ConfigClockSource+0x64>
 8004ba4:	2b40      	cmp	r3, #64	@ 0x40
 8004ba6:	f000 8088 	beq.w	8004cba <HAL_TIM_ConfigClockSource+0x14a>
 8004baa:	d815      	bhi.n	8004bd8 <HAL_TIM_ConfigClockSource+0x68>
 8004bac:	2b20      	cmp	r3, #32
 8004bae:	d007      	beq.n	8004bc0 <HAL_TIM_ConfigClockSource+0x50>
 8004bb0:	d804      	bhi.n	8004bbc <HAL_TIM_ConfigClockSource+0x4c>
 8004bb2:	f033 0210 	bics.w	r2, r3, #16
 8004bb6:	d003      	beq.n	8004bc0 <HAL_TIM_ConfigClockSource+0x50>
 8004bb8:	2201      	movs	r2, #1
 8004bba:	e00d      	b.n	8004bd8 <HAL_TIM_ConfigClockSource+0x68>
 8004bbc:	2b30      	cmp	r3, #48	@ 0x30
 8004bbe:	d1fb      	bne.n	8004bb8 <HAL_TIM_ConfigClockSource+0x48>
 8004bc0:	6882      	ldr	r2, [r0, #8]
 8004bc2:	f422 1240 	bic.w	r2, r2, #3145728	@ 0x300000
 8004bc6:	f022 0270 	bic.w	r2, r2, #112	@ 0x70
 8004bca:	431a      	orrs	r2, r3
 8004bcc:	f042 0207 	orr.w	r2, r2, #7
 8004bd0:	6082      	str	r2, [r0, #8]
 8004bd2:	e034      	b.n	8004c3e <HAL_TIM_ConfigClockSource+0xce>
 8004bd4:	2b60      	cmp	r3, #96	@ 0x60
 8004bd6:	d056      	beq.n	8004c86 <HAL_TIM_ConfigClockSource+0x116>
 8004bd8:	2301      	movs	r3, #1
 8004bda:	f884 303d 	strb.w	r3, [r4, #61]	@ 0x3d
 8004bde:	2300      	movs	r3, #0
 8004be0:	f884 303c 	strb.w	r3, [r4, #60]	@ 0x3c
 8004be4:	4610      	mov	r0, r2
 8004be6:	bd38      	pop	{r3, r4, r5, pc}
 8004be8:	f5b3 5f00 	cmp.w	r3, #8192	@ 0x2000
 8004bec:	d029      	beq.n	8004c42 <HAL_TIM_ConfigClockSource+0xd2>
 8004bee:	d804      	bhi.n	8004bfa <HAL_TIM_ConfigClockSource+0x8a>
 8004bf0:	f5b3 5280 	subs.w	r2, r3, #4096	@ 0x1000
 8004bf4:	bf18      	it	ne
 8004bf6:	2201      	movne	r2, #1
 8004bf8:	e7ee      	b.n	8004bd8 <HAL_TIM_ConfigClockSource+0x68>
 8004bfa:	493e      	ldr	r1, [pc, #248]	@ (8004cf4 <HAL_TIM_ConfigClockSource+0x184>)
 8004bfc:	428b      	cmp	r3, r1
 8004bfe:	d0df      	beq.n	8004bc0 <HAL_TIM_ConfigClockSource+0x50>
 8004c00:	d80b      	bhi.n	8004c1a <HAL_TIM_ConfigClockSource+0xaa>
 8004c02:	4a3d      	ldr	r2, [pc, #244]	@ (8004cf8 <HAL_TIM_ConfigClockSource+0x188>)
 8004c04:	4293      	cmp	r3, r2
 8004c06:	d0db      	beq.n	8004bc0 <HAL_TIM_ConfigClockSource+0x50>
 8004c08:	d804      	bhi.n	8004c14 <HAL_TIM_ConfigClockSource+0xa4>
 8004c0a:	f023 0210 	bic.w	r2, r3, #16
 8004c0e:	f5b2 1f80 	cmp.w	r2, #1048576	@ 0x100000
 8004c12:	e7d4      	b.n	8004bbe <HAL_TIM_ConfigClockSource+0x4e>
 8004c14:	4a39      	ldr	r2, [pc, #228]	@ (8004cfc <HAL_TIM_ConfigClockSource+0x18c>)
 8004c16:	4293      	cmp	r3, r2
 8004c18:	e7d1      	b.n	8004bbe <HAL_TIM_ConfigClockSource+0x4e>
 8004c1a:	4939      	ldr	r1, [pc, #228]	@ (8004d00 <HAL_TIM_ConfigClockSource+0x190>)
 8004c1c:	428b      	cmp	r3, r1
 8004c1e:	d0cf      	beq.n	8004bc0 <HAL_TIM_ConfigClockSource+0x50>
 8004c20:	f023 0520 	bic.w	r5, r3, #32
 8004c24:	3910      	subs	r1, #16
 8004c26:	428d      	cmp	r5, r1
 8004c28:	d1d6      	bne.n	8004bd8 <HAL_TIM_ConfigClockSource+0x68>
 8004c2a:	e7c9      	b.n	8004bc0 <HAL_TIM_ConfigClockSource+0x50>
 8004c2c:	68cb      	ldr	r3, [r1, #12]
 8004c2e:	e9d1 2101 	ldrd	r2, r1, [r1, #4]
 8004c32:	f7ff ff93 	bl	8004b5c <TIM_ETR_SetConfig>
 8004c36:	6883      	ldr	r3, [r0, #8]
 8004c38:	f043 0377 	orr.w	r3, r3, #119	@ 0x77
 8004c3c:	6083      	str	r3, [r0, #8]
 8004c3e:	2200      	movs	r2, #0
 8004c40:	e7ca      	b.n	8004bd8 <HAL_TIM_ConfigClockSource+0x68>
 8004c42:	68cb      	ldr	r3, [r1, #12]
 8004c44:	e9d1 2101 	ldrd	r2, r1, [r1, #4]
 8004c48:	f7ff ff88 	bl	8004b5c <TIM_ETR_SetConfig>
 8004c4c:	6883      	ldr	r3, [r0, #8]
 8004c4e:	f443 4380 	orr.w	r3, r3, #16384	@ 0x4000
 8004c52:	e7f3      	b.n	8004c3c <HAL_TIM_ConfigClockSource+0xcc>
 8004c54:	684a      	ldr	r2, [r1, #4]
 8004c56:	68cd      	ldr	r5, [r1, #12]
 8004c58:	6a01      	ldr	r1, [r0, #32]
 8004c5a:	6a03      	ldr	r3, [r0, #32]
 8004c5c:	f023 0301 	bic.w	r3, r3, #1
 8004c60:	6203      	str	r3, [r0, #32]
 8004c62:	6983      	ldr	r3, [r0, #24]
 8004c64:	f021 010a 	bic.w	r1, r1, #10
 8004c68:	f023 03f0 	bic.w	r3, r3, #240	@ 0xf0
 8004c6c:	ea43 1305 	orr.w	r3, r3, r5, lsl #4
 8004c70:	430a      	orrs	r2, r1
 8004c72:	6183      	str	r3, [r0, #24]
 8004c74:	6202      	str	r2, [r0, #32]
 8004c76:	6883      	ldr	r3, [r0, #8]
 8004c78:	f423 1340 	bic.w	r3, r3, #3145728	@ 0x300000
 8004c7c:	f023 0370 	bic.w	r3, r3, #112	@ 0x70
 8004c80:	f043 0357 	orr.w	r3, r3, #87	@ 0x57
 8004c84:	e7da      	b.n	8004c3c <HAL_TIM_ConfigClockSource+0xcc>
 8004c86:	6a03      	ldr	r3, [r0, #32]
 8004c88:	6a02      	ldr	r2, [r0, #32]
 8004c8a:	684d      	ldr	r5, [r1, #4]
 8004c8c:	68c9      	ldr	r1, [r1, #12]
 8004c8e:	f022 0210 	bic.w	r2, r2, #16
 8004c92:	6202      	str	r2, [r0, #32]
 8004c94:	6982      	ldr	r2, [r0, #24]
 8004c96:	f023 03a0 	bic.w	r3, r3, #160	@ 0xa0
 8004c9a:	f422 4270 	bic.w	r2, r2, #61440	@ 0xf000
 8004c9e:	ea43 1305 	orr.w	r3, r3, r5, lsl #4
 8004ca2:	ea42 3201 	orr.w	r2, r2, r1, lsl #12
 8004ca6:	6182      	str	r2, [r0, #24]
 8004ca8:	6203      	str	r3, [r0, #32]
 8004caa:	6883      	ldr	r3, [r0, #8]
 8004cac:	f423 1340 	bic.w	r3, r3, #3145728	@ 0x300000
 8004cb0:	f023 0370 	bic.w	r3, r3, #112	@ 0x70
 8004cb4:	f043 0367 	orr.w	r3, r3, #103	@ 0x67
 8004cb8:	e7c0      	b.n	8004c3c <HAL_TIM_ConfigClockSource+0xcc>
 8004cba:	684a      	ldr	r2, [r1, #4]
 8004cbc:	68cd      	ldr	r5, [r1, #12]
 8004cbe:	6a01      	ldr	r1, [r0, #32]
 8004cc0:	6a03      	ldr	r3, [r0, #32]
 8004cc2:	f023 0301 	bic.w	r3, r3, #1
 8004cc6:	6203      	str	r3, [r0, #32]
 8004cc8:	6983      	ldr	r3, [r0, #24]
 8004cca:	f021 010a 	bic.w	r1, r1, #10
 8004cce:	f023 03f0 	bic.w	r3, r3, #240	@ 0xf0
 8004cd2:	ea43 1305 	orr.w	r3, r3, r5, lsl #4
 8004cd6:	430a      	orrs	r2, r1
 8004cd8:	6183      	str	r3, [r0, #24]
 8004cda:	6202      	str	r2, [r0, #32]
 8004cdc:	6883      	ldr	r3, [r0, #8]
 8004cde:	f423 1340 	bic.w	r3, r3, #3145728	@ 0x300000
 8004ce2:	f023 0370 	bic.w	r3, r3, #112	@ 0x70
 8004ce6:	f043 0347 	orr.w	r3, r3, #71	@ 0x47
 8004cea:	e7a7      	b.n	8004c3c <HAL_TIM_ConfigClockSource+0xcc>
 8004cec:	461a      	mov	r2, r3
 8004cee:	e779      	b.n	8004be4 <HAL_TIM_ConfigClockSource+0x74>
 8004cf0:	ffce0088 	.word	0xffce0088
 8004cf4:	00100040 	.word	0x00100040
 8004cf8:	00100020 	.word	0x00100020
 8004cfc:	00100030 	.word	0x00100030
 8004d00:	00100060 	.word	0x00100060

08004d04 <HAL_TIMEx_MasterConfigSynchronization>:
 8004d04:	b530      	push	{r4, r5, lr}
 8004d06:	f890 303c 	ldrb.w	r3, [r0, #60]	@ 0x3c
 8004d0a:	2b01      	cmp	r3, #1
 8004d0c:	4604      	mov	r4, r0
 8004d0e:	f04f 0002 	mov.w	r0, #2
 8004d12:	d043      	beq.n	8004d9c <HAL_TIMEx_MasterConfigSynchronization+0x98>
 8004d14:	6823      	ldr	r3, [r4, #0]
 8004d16:	4d22      	ldr	r5, [pc, #136]	@ (8004da0 <HAL_TIMEx_MasterConfigSynchronization+0x9c>)
 8004d18:	f884 003d 	strb.w	r0, [r4, #61]	@ 0x3d
 8004d1c:	42ab      	cmp	r3, r5
 8004d1e:	685a      	ldr	r2, [r3, #4]
 8004d20:	6898      	ldr	r0, [r3, #8]
 8004d22:	d007      	beq.n	8004d34 <HAL_TIMEx_MasterConfigSynchronization+0x30>
 8004d24:	f505 6500 	add.w	r5, r5, #2048	@ 0x800
 8004d28:	42ab      	cmp	r3, r5
 8004d2a:	d003      	beq.n	8004d34 <HAL_TIMEx_MasterConfigSynchronization+0x30>
 8004d2c:	f505 55e0 	add.w	r5, r5, #7168	@ 0x1c00
 8004d30:	42ab      	cmp	r3, r5
 8004d32:	d103      	bne.n	8004d3c <HAL_TIMEx_MasterConfigSynchronization+0x38>
 8004d34:	684d      	ldr	r5, [r1, #4]
 8004d36:	f422 0270 	bic.w	r2, r2, #15728640	@ 0xf00000
 8004d3a:	432a      	orrs	r2, r5
 8004d3c:	680d      	ldr	r5, [r1, #0]
 8004d3e:	f022 7200 	bic.w	r2, r2, #33554432	@ 0x2000000
 8004d42:	f022 0270 	bic.w	r2, r2, #112	@ 0x70
 8004d46:	432a      	orrs	r2, r5
 8004d48:	605a      	str	r2, [r3, #4]
 8004d4a:	4a15      	ldr	r2, [pc, #84]	@ (8004da0 <HAL_TIMEx_MasterConfigSynchronization+0x9c>)
 8004d4c:	4293      	cmp	r3, r2
 8004d4e:	d01a      	beq.n	8004d86 <HAL_TIMEx_MasterConfigSynchronization+0x82>
 8004d50:	f1b3 4f80 	cmp.w	r3, #1073741824	@ 0x40000000
 8004d54:	d017      	beq.n	8004d86 <HAL_TIMEx_MasterConfigSynchronization+0x82>
 8004d56:	f5a2 3294 	sub.w	r2, r2, #75776	@ 0x12800
 8004d5a:	4293      	cmp	r3, r2
 8004d5c:	d013      	beq.n	8004d86 <HAL_TIMEx_MasterConfigSynchronization+0x82>
 8004d5e:	f502 6280 	add.w	r2, r2, #1024	@ 0x400
 8004d62:	4293      	cmp	r3, r2
 8004d64:	d00f      	beq.n	8004d86 <HAL_TIMEx_MasterConfigSynchronization+0x82>
 8004d66:	f502 6280 	add.w	r2, r2, #1024	@ 0x400
 8004d6a:	4293      	cmp	r3, r2
 8004d6c:	d00b      	beq.n	8004d86 <HAL_TIMEx_MasterConfigSynchronization+0x82>
 8004d6e:	f502 3294 	add.w	r2, r2, #75776	@ 0x12800
 8004d72:	4293      	cmp	r3, r2
 8004d74:	d007      	beq.n	8004d86 <HAL_TIMEx_MasterConfigSynchronization+0x82>
 8004d76:	f502 6240 	add.w	r2, r2, #3072	@ 0xc00
 8004d7a:	4293      	cmp	r3, r2
 8004d7c:	d003      	beq.n	8004d86 <HAL_TIMEx_MasterConfigSynchronization+0x82>
 8004d7e:	f502 5280 	add.w	r2, r2, #4096	@ 0x1000
 8004d82:	4293      	cmp	r3, r2
 8004d84:	d104      	bne.n	8004d90 <HAL_TIMEx_MasterConfigSynchronization+0x8c>
 8004d86:	6889      	ldr	r1, [r1, #8]
 8004d88:	f020 0280 	bic.w	r2, r0, #128	@ 0x80
 8004d8c:	430a      	orrs	r2, r1
 8004d8e:	609a      	str	r2, [r3, #8]
 8004d90:	2301      	movs	r3, #1
 8004d92:	2000      	movs	r0, #0
 8004d94:	f884 303d 	strb.w	r3, [r4, #61]	@ 0x3d
 8004d98:	f884 003c 	strb.w	r0, [r4, #60]	@ 0x3c
 8004d9c:	bd30      	pop	{r4, r5, pc}
 8004d9e:	bf00      	nop
 8004da0:	40012c00 	.word	0x40012c00

08004da4 <HAL_TIMEx_CommutCallback>:
 8004da4:	4770      	bx	lr

08004da6 <HAL_TIMEx_BreakCallback>:
 8004da6:	4770      	bx	lr

08004da8 <HAL_TIMEx_Break2Callback>:
 8004da8:	4770      	bx	lr

08004daa <HAL_TIMEx_EncoderIndexCallback>:
 8004daa:	4770      	bx	lr

08004dac <HAL_TIMEx_DirectionChangeCallback>:
 8004dac:	4770      	bx	lr

08004dae <HAL_TIMEx_IndexErrorCallback>:
 8004dae:	4770      	bx	lr

08004db0 <HAL_TIMEx_TransitionErrorCallback>:
 8004db0:	4770      	bx	lr

08004db2 <SysTick_Handler>:
 8004db2:	b508      	push	{r3, lr}
 8004db4:	f04f 23e0 	mov.w	r3, #3758153728	@ 0xe000e000
 8004db8:	691b      	ldr	r3, [r3, #16]
 8004dba:	f001 f841 	bl	8005e40 <xTaskGetSchedulerState>
 8004dbe:	2801      	cmp	r0, #1
 8004dc0:	d003      	beq.n	8004dca <SysTick_Handler+0x18>
 8004dc2:	e8bd 4008 	ldmia.w	sp!, {r3, lr}
 8004dc6:	f001 bb45 	b.w	8006454 <xPortSysTickHandler>
 8004dca:	bd08      	pop	{r3, pc}

08004dcc <osKernelInitialize>:
 8004dcc:	f3ef 8305 	mrs	r3, IPSR
 8004dd0:	b92b      	cbnz	r3, 8004dde <osKernelInitialize+0x12>
 8004dd2:	4b06      	ldr	r3, [pc, #24]	@ (8004dec <osKernelInitialize+0x20>)
 8004dd4:	6818      	ldr	r0, [r3, #0]
 8004dd6:	b928      	cbnz	r0, 8004de4 <osKernelInitialize+0x18>
 8004dd8:	2201      	movs	r2, #1
 8004dda:	601a      	str	r2, [r3, #0]
 8004ddc:	4770      	bx	lr
 8004dde:	f06f 0005 	mvn.w	r0, #5
 8004de2:	4770      	bx	lr
 8004de4:	f04f 30ff 	mov.w	r0, #4294967295
 8004de8:	4770      	bx	lr
 8004dea:	bf00      	nop
 8004dec:	20001620 	.word	0x20001620

08004df0 <osKernelStart>:
 8004df0:	b510      	push	{r4, lr}
 8004df2:	f3ef 8405 	mrs	r4, IPSR
 8004df6:	b95c      	cbnz	r4, 8004e10 <osKernelStart+0x20>
 8004df8:	4b08      	ldr	r3, [pc, #32]	@ (8004e1c <osKernelStart+0x2c>)
 8004dfa:	681a      	ldr	r2, [r3, #0]
 8004dfc:	2a01      	cmp	r2, #1
 8004dfe:	d10a      	bne.n	8004e16 <osKernelStart+0x26>
 8004e00:	4a07      	ldr	r2, [pc, #28]	@ (8004e20 <osKernelStart+0x30>)
 8004e02:	77d4      	strb	r4, [r2, #31]
 8004e04:	2202      	movs	r2, #2
 8004e06:	601a      	str	r2, [r3, #0]
 8004e08:	f000 fd88 	bl	800591c <vTaskStartScheduler>
 8004e0c:	4620      	mov	r0, r4
 8004e0e:	bd10      	pop	{r4, pc}
 8004e10:	f06f 0005 	mvn.w	r0, #5
 8004e14:	e7fb      	b.n	8004e0e <osKernelStart+0x1e>
 8004e16:	f04f 30ff 	mov.w	r0, #4294967295
 8004e1a:	e7f8      	b.n	8004e0e <osKernelStart+0x1e>
 8004e1c:	20001620 	.word	0x20001620
 8004e20:	e000ed00 	.word	0xe000ed00

08004e24 <osThreadNew>:
 8004e24:	b5f0      	push	{r4, r5, r6, r7, lr}
 8004e26:	b087      	sub	sp, #28
 8004e28:	4614      	mov	r4, r2
 8004e2a:	2200      	movs	r2, #0
 8004e2c:	460b      	mov	r3, r1
 8004e2e:	9205      	str	r2, [sp, #20]
 8004e30:	f3ef 8205 	mrs	r2, IPSR
 8004e34:	b9fa      	cbnz	r2, 8004e76 <osThreadNew+0x52>
 8004e36:	b1f0      	cbz	r0, 8004e76 <osThreadNew+0x52>
 8004e38:	b354      	cbz	r4, 8004e90 <osThreadNew+0x6c>
 8004e3a:	69a5      	ldr	r5, [r4, #24]
 8004e3c:	b125      	cbz	r5, 8004e48 <osThreadNew+0x24>
 8004e3e:	1e69      	subs	r1, r5, #1
 8004e40:	2937      	cmp	r1, #55	@ 0x37
 8004e42:	d902      	bls.n	8004e4a <osThreadNew+0x26>
 8004e44:	2000      	movs	r0, #0
 8004e46:	e017      	b.n	8004e78 <osThreadNew+0x54>
 8004e48:	2518      	movs	r5, #24
 8004e4a:	6862      	ldr	r2, [r4, #4]
 8004e4c:	07d2      	lsls	r2, r2, #31
 8004e4e:	d4f9      	bmi.n	8004e44 <osThreadNew+0x20>
 8004e50:	6966      	ldr	r6, [r4, #20]
 8004e52:	b19e      	cbz	r6, 8004e7c <osThreadNew+0x58>
 8004e54:	08b2      	lsrs	r2, r6, #2
 8004e56:	e9d4 7c02 	ldrd	r7, ip, [r4, #8]
 8004e5a:	6821      	ldr	r1, [r4, #0]
 8004e5c:	b187      	cbz	r7, 8004e80 <osThreadNew+0x5c>
 8004e5e:	f1bc 0fa7 	cmp.w	ip, #167	@ 0xa7
 8004e62:	d908      	bls.n	8004e76 <osThreadNew+0x52>
 8004e64:	6924      	ldr	r4, [r4, #16]
 8004e66:	b134      	cbz	r4, 8004e76 <osThreadNew+0x52>
 8004e68:	b12e      	cbz	r6, 8004e76 <osThreadNew+0x52>
 8004e6a:	e9cd 4701 	strd	r4, r7, [sp, #4]
 8004e6e:	9500      	str	r5, [sp, #0]
 8004e70:	f000 fcee 	bl	8005850 <xTaskCreateStatic>
 8004e74:	9005      	str	r0, [sp, #20]
 8004e76:	9805      	ldr	r0, [sp, #20]
 8004e78:	b007      	add	sp, #28
 8004e7a:	bdf0      	pop	{r4, r5, r6, r7, pc}
 8004e7c:	2280      	movs	r2, #128	@ 0x80
 8004e7e:	e7ea      	b.n	8004e56 <osThreadNew+0x32>
 8004e80:	f1bc 0f00 	cmp.w	ip, #0
 8004e84:	d1f7      	bne.n	8004e76 <osThreadNew+0x52>
 8004e86:	6924      	ldr	r4, [r4, #16]
 8004e88:	2c00      	cmp	r4, #0
 8004e8a:	d1f4      	bne.n	8004e76 <osThreadNew+0x52>
 8004e8c:	460c      	mov	r4, r1
 8004e8e:	e001      	b.n	8004e94 <osThreadNew+0x70>
 8004e90:	2518      	movs	r5, #24
 8004e92:	2280      	movs	r2, #128	@ 0x80
 8004e94:	a905      	add	r1, sp, #20
 8004e96:	e9cd 5100 	strd	r5, r1, [sp]
 8004e9a:	b292      	uxth	r2, r2
 8004e9c:	4621      	mov	r1, r4
 8004e9e:	f000 fd0f 	bl	80058c0 <xTaskCreate>
 8004ea2:	2801      	cmp	r0, #1
 8004ea4:	bf1c      	itt	ne
 8004ea6:	2300      	movne	r3, #0
 8004ea8:	9305      	strne	r3, [sp, #20]
 8004eaa:	e7e4      	b.n	8004e76 <osThreadNew+0x52>

08004eac <osDelay>:
 8004eac:	b508      	push	{r3, lr}
 8004eae:	f3ef 8205 	mrs	r2, IPSR
 8004eb2:	b922      	cbnz	r2, 8004ebe <osDelay+0x12>
 8004eb4:	b108      	cbz	r0, 8004eba <osDelay+0xe>
 8004eb6:	f000 fe99 	bl	8005bec <vTaskDelay>
 8004eba:	2000      	movs	r0, #0
 8004ebc:	bd08      	pop	{r3, pc}
 8004ebe:	f06f 0005 	mvn.w	r0, #5
 8004ec2:	e7fb      	b.n	8004ebc <osDelay+0x10>

08004ec4 <vApplicationGetIdleTaskMemory>:
 8004ec4:	4b03      	ldr	r3, [pc, #12]	@ (8004ed4 <vApplicationGetIdleTaskMemory+0x10>)
 8004ec6:	6003      	str	r3, [r0, #0]
 8004ec8:	4b03      	ldr	r3, [pc, #12]	@ (8004ed8 <vApplicationGetIdleTaskMemory+0x14>)
 8004eca:	600b      	str	r3, [r1, #0]
 8004ecc:	2380      	movs	r3, #128	@ 0x80
 8004ece:	6013      	str	r3, [r2, #0]
 8004ed0:	4770      	bx	lr
 8004ed2:	bf00      	nop
 8004ed4:	20001578 	.word	0x20001578
 8004ed8:	20001378 	.word	0x20001378

08004edc <vApplicationGetTimerTaskMemory>:
 8004edc:	4b03      	ldr	r3, [pc, #12]	@ (8004eec <vApplicationGetTimerTaskMemory+0x10>)
 8004ede:	6003      	str	r3, [r0, #0]
 8004ee0:	4b03      	ldr	r3, [pc, #12]	@ (8004ef0 <vApplicationGetTimerTaskMemory+0x14>)
 8004ee2:	600b      	str	r3, [r1, #0]
 8004ee4:	f44f 7380 	mov.w	r3, #256	@ 0x100
 8004ee8:	6013      	str	r3, [r2, #0]
 8004eea:	4770      	bx	lr
 8004eec:	200012d0 	.word	0x200012d0
 8004ef0:	20000ed0 	.word	0x20000ed0

08004ef4 <vListInitialise>:
 8004ef4:	f100 0308 	add.w	r3, r0, #8
 8004ef8:	f04f 32ff 	mov.w	r2, #4294967295
 8004efc:	e9c0 2302 	strd	r2, r3, [r0, #8]
 8004f00:	6043      	str	r3, [r0, #4]
 8004f02:	6103      	str	r3, [r0, #16]
 8004f04:	2300      	movs	r3, #0
 8004f06:	6003      	str	r3, [r0, #0]
 8004f08:	4770      	bx	lr

08004f0a <vListInitialiseItem>:
 8004f0a:	2300      	movs	r3, #0
 8004f0c:	6103      	str	r3, [r0, #16]
 8004f0e:	4770      	bx	lr

08004f10 <vListInsertEnd>:
 8004f10:	6843      	ldr	r3, [r0, #4]
 8004f12:	604b      	str	r3, [r1, #4]
 8004f14:	689a      	ldr	r2, [r3, #8]
 8004f16:	608a      	str	r2, [r1, #8]
 8004f18:	6051      	str	r1, [r2, #4]
 8004f1a:	6099      	str	r1, [r3, #8]
 8004f1c:	6803      	ldr	r3, [r0, #0]
 8004f1e:	6108      	str	r0, [r1, #16]
 8004f20:	3301      	adds	r3, #1
 8004f22:	6003      	str	r3, [r0, #0]
 8004f24:	4770      	bx	lr

08004f26 <vListInsert>:
 8004f26:	b530      	push	{r4, r5, lr}
 8004f28:	680c      	ldr	r4, [r1, #0]
 8004f2a:	1c63      	adds	r3, r4, #1
 8004f2c:	d10a      	bne.n	8004f44 <vListInsert+0x1e>
 8004f2e:	6903      	ldr	r3, [r0, #16]
 8004f30:	685a      	ldr	r2, [r3, #4]
 8004f32:	604a      	str	r2, [r1, #4]
 8004f34:	6091      	str	r1, [r2, #8]
 8004f36:	608b      	str	r3, [r1, #8]
 8004f38:	6059      	str	r1, [r3, #4]
 8004f3a:	6803      	ldr	r3, [r0, #0]
 8004f3c:	6108      	str	r0, [r1, #16]
 8004f3e:	3301      	adds	r3, #1
 8004f40:	6003      	str	r3, [r0, #0]
 8004f42:	bd30      	pop	{r4, r5, pc}
 8004f44:	f100 0208 	add.w	r2, r0, #8
 8004f48:	4613      	mov	r3, r2
 8004f4a:	6852      	ldr	r2, [r2, #4]
 8004f4c:	6815      	ldr	r5, [r2, #0]
 8004f4e:	42a5      	cmp	r5, r4
 8004f50:	d9fa      	bls.n	8004f48 <vListInsert+0x22>
 8004f52:	e7ed      	b.n	8004f30 <vListInsert+0xa>

08004f54 <uxListRemove>:
 8004f54:	e9d0 1201 	ldrd	r1, r2, [r0, #4]
 8004f58:	6903      	ldr	r3, [r0, #16]
 8004f5a:	608a      	str	r2, [r1, #8]
 8004f5c:	6051      	str	r1, [r2, #4]
 8004f5e:	6859      	ldr	r1, [r3, #4]
 8004f60:	4281      	cmp	r1, r0
 8004f62:	bf08      	it	eq
 8004f64:	605a      	streq	r2, [r3, #4]
 8004f66:	2200      	movs	r2, #0
 8004f68:	6102      	str	r2, [r0, #16]
 8004f6a:	681a      	ldr	r2, [r3, #0]
 8004f6c:	3a01      	subs	r2, #1
 8004f6e:	601a      	str	r2, [r3, #0]
 8004f70:	6818      	ldr	r0, [r3, #0]
 8004f72:	4770      	bx	lr

08004f74 <prvIsQueueEmpty>:
 8004f74:	b510      	push	{r4, lr}
 8004f76:	4604      	mov	r4, r0
 8004f78:	f001 fa04 	bl	8006384 <vPortEnterCritical>
 8004f7c:	6ba4      	ldr	r4, [r4, #56]	@ 0x38
 8004f7e:	f001 fa21 	bl	80063c4 <vPortExitCritical>
 8004f82:	fab4 f084 	clz	r0, r4
 8004f86:	0940      	lsrs	r0, r0, #5
 8004f88:	bd10      	pop	{r4, pc}

08004f8a <prvCopyDataToQueue>:
 8004f8a:	b570      	push	{r4, r5, r6, lr}
 8004f8c:	4616      	mov	r6, r2
 8004f8e:	6c02      	ldr	r2, [r0, #64]	@ 0x40
 8004f90:	6b85      	ldr	r5, [r0, #56]	@ 0x38
 8004f92:	4604      	mov	r4, r0
 8004f94:	b942      	cbnz	r2, 8004fa8 <prvCopyDataToQueue+0x1e>
 8004f96:	6806      	ldr	r6, [r0, #0]
 8004f98:	b99e      	cbnz	r6, 8004fc2 <prvCopyDataToQueue+0x38>
 8004f9a:	6880      	ldr	r0, [r0, #8]
 8004f9c:	f000 ff60 	bl	8005e60 <xTaskPriorityDisinherit>
 8004fa0:	60a6      	str	r6, [r4, #8]
 8004fa2:	3501      	adds	r5, #1
 8004fa4:	63a5      	str	r5, [r4, #56]	@ 0x38
 8004fa6:	bd70      	pop	{r4, r5, r6, pc}
 8004fa8:	b96e      	cbnz	r6, 8004fc6 <prvCopyDataToQueue+0x3c>
 8004faa:	6840      	ldr	r0, [r0, #4]
 8004fac:	f001 fd1c 	bl	80069e8 <memcpy>
 8004fb0:	6863      	ldr	r3, [r4, #4]
 8004fb2:	6c22      	ldr	r2, [r4, #64]	@ 0x40
 8004fb4:	4413      	add	r3, r2
 8004fb6:	68a2      	ldr	r2, [r4, #8]
 8004fb8:	6063      	str	r3, [r4, #4]
 8004fba:	4293      	cmp	r3, r2
 8004fbc:	bf24      	itt	cs
 8004fbe:	6823      	ldrcs	r3, [r4, #0]
 8004fc0:	6063      	strcs	r3, [r4, #4]
 8004fc2:	2000      	movs	r0, #0
 8004fc4:	e7ed      	b.n	8004fa2 <prvCopyDataToQueue+0x18>
 8004fc6:	68c0      	ldr	r0, [r0, #12]
 8004fc8:	f001 fd0e 	bl	80069e8 <memcpy>
 8004fcc:	6c22      	ldr	r2, [r4, #64]	@ 0x40
 8004fce:	68e3      	ldr	r3, [r4, #12]
 8004fd0:	4251      	negs	r1, r2
 8004fd2:	1a9b      	subs	r3, r3, r2
 8004fd4:	6822      	ldr	r2, [r4, #0]
 8004fd6:	60e3      	str	r3, [r4, #12]
 8004fd8:	4293      	cmp	r3, r2
 8004fda:	bf3e      	ittt	cc
 8004fdc:	68a3      	ldrcc	r3, [r4, #8]
 8004fde:	185b      	addcc	r3, r3, r1
 8004fe0:	60e3      	strcc	r3, [r4, #12]
 8004fe2:	2e02      	cmp	r6, #2
 8004fe4:	d1ed      	bne.n	8004fc2 <prvCopyDataToQueue+0x38>
 8004fe6:	b10d      	cbz	r5, 8004fec <prvCopyDataToQueue+0x62>
 8004fe8:	3d01      	subs	r5, #1
 8004fea:	e7ea      	b.n	8004fc2 <prvCopyDataToQueue+0x38>
 8004fec:	4628      	mov	r0, r5
 8004fee:	e7d8      	b.n	8004fa2 <prvCopyDataToQueue+0x18>

08004ff0 <prvCopyDataFromQueue>:
 8004ff0:	4603      	mov	r3, r0
 8004ff2:	b410      	push	{r4}
 8004ff4:	6c1a      	ldr	r2, [r3, #64]	@ 0x40
 8004ff6:	4608      	mov	r0, r1
 8004ff8:	b16a      	cbz	r2, 8005016 <prvCopyDataFromQueue+0x26>
 8004ffa:	68dc      	ldr	r4, [r3, #12]
 8004ffc:	6899      	ldr	r1, [r3, #8]
 8004ffe:	4414      	add	r4, r2
 8005000:	428c      	cmp	r4, r1
 8005002:	bf28      	it	cs
 8005004:	6819      	ldrcs	r1, [r3, #0]
 8005006:	60dc      	str	r4, [r3, #12]
 8005008:	bf28      	it	cs
 800500a:	60d9      	strcs	r1, [r3, #12]
 800500c:	68d9      	ldr	r1, [r3, #12]
 800500e:	f85d 4b04 	ldr.w	r4, [sp], #4
 8005012:	f001 bce9 	b.w	80069e8 <memcpy>
 8005016:	f85d 4b04 	ldr.w	r4, [sp], #4
 800501a:	4770      	bx	lr

0800501c <prvUnlockQueue>:
 800501c:	b570      	push	{r4, r5, r6, lr}
 800501e:	4604      	mov	r4, r0
 8005020:	f001 f9b0 	bl	8006384 <vPortEnterCritical>
 8005024:	f894 5045 	ldrb.w	r5, [r4, #69]	@ 0x45
 8005028:	f104 0624 	add.w	r6, r4, #36	@ 0x24
 800502c:	b26d      	sxtb	r5, r5
 800502e:	2d00      	cmp	r5, #0
 8005030:	dd01      	ble.n	8005036 <prvUnlockQueue+0x1a>
 8005032:	6a63      	ldr	r3, [r4, #36]	@ 0x24
 8005034:	b9b3      	cbnz	r3, 8005064 <prvUnlockQueue+0x48>
 8005036:	23ff      	movs	r3, #255	@ 0xff
 8005038:	f884 3045 	strb.w	r3, [r4, #69]	@ 0x45
 800503c:	f001 f9c2 	bl	80063c4 <vPortExitCritical>
 8005040:	f001 f9a0 	bl	8006384 <vPortEnterCritical>
 8005044:	f894 5044 	ldrb.w	r5, [r4, #68]	@ 0x44
 8005048:	f104 0610 	add.w	r6, r4, #16
 800504c:	b26d      	sxtb	r5, r5
 800504e:	2d00      	cmp	r5, #0
 8005050:	dd01      	ble.n	8005056 <prvUnlockQueue+0x3a>
 8005052:	6923      	ldr	r3, [r4, #16]
 8005054:	b97b      	cbnz	r3, 8005076 <prvUnlockQueue+0x5a>
 8005056:	23ff      	movs	r3, #255	@ 0xff
 8005058:	f884 3044 	strb.w	r3, [r4, #68]	@ 0x44
 800505c:	e8bd 4070 	ldmia.w	sp!, {r4, r5, r6, lr}
 8005060:	f001 b9b0 	b.w	80063c4 <vPortExitCritical>
 8005064:	4630      	mov	r0, r6
 8005066:	f000 fe5d 	bl	8005d24 <xTaskRemoveFromEventList>
 800506a:	b108      	cbz	r0, 8005070 <prvUnlockQueue+0x54>
 800506c:	f000 fee2 	bl	8005e34 <vTaskMissedYield>
 8005070:	3d01      	subs	r5, #1
 8005072:	b26d      	sxtb	r5, r5
 8005074:	e7db      	b.n	800502e <prvUnlockQueue+0x12>
 8005076:	4630      	mov	r0, r6
 8005078:	f000 fe54 	bl	8005d24 <xTaskRemoveFromEventList>
 800507c:	b108      	cbz	r0, 8005082 <prvUnlockQueue+0x66>
 800507e:	f000 fed9 	bl	8005e34 <vTaskMissedYield>
 8005082:	3d01      	subs	r5, #1
 8005084:	b26d      	sxtb	r5, r5
 8005086:	e7e2      	b.n	800504e <prvUnlockQueue+0x32>

08005088 <xQueueGenericReset>:
 8005088:	b538      	push	{r3, r4, r5, lr}
 800508a:	460d      	mov	r5, r1
 800508c:	4604      	mov	r4, r0
 800508e:	b940      	cbnz	r0, 80050a2 <xQueueGenericReset+0x1a>
 8005090:	f04f 0350 	mov.w	r3, #80	@ 0x50
 8005094:	f383 8811 	msr	BASEPRI, r3
 8005098:	f3bf 8f6f 	isb	sy
 800509c:	f3bf 8f4f 	dsb	sy
 80050a0:	e7fe      	b.n	80050a0 <xQueueGenericReset+0x18>
 80050a2:	f001 f96f 	bl	8006384 <vPortEnterCritical>
 80050a6:	e9d4 310f 	ldrd	r3, r1, [r4, #60]	@ 0x3c
 80050aa:	6822      	ldr	r2, [r4, #0]
 80050ac:	6062      	str	r2, [r4, #4]
 80050ae:	434b      	muls	r3, r1
 80050b0:	18d0      	adds	r0, r2, r3
 80050b2:	1a5b      	subs	r3, r3, r1
 80050b4:	441a      	add	r2, r3
 80050b6:	60a0      	str	r0, [r4, #8]
 80050b8:	23ff      	movs	r3, #255	@ 0xff
 80050ba:	2000      	movs	r0, #0
 80050bc:	63a0      	str	r0, [r4, #56]	@ 0x38
 80050be:	60e2      	str	r2, [r4, #12]
 80050c0:	f884 3044 	strb.w	r3, [r4, #68]	@ 0x44
 80050c4:	f884 3045 	strb.w	r3, [r4, #69]	@ 0x45
 80050c8:	b9a5      	cbnz	r5, 80050f4 <xQueueGenericReset+0x6c>
 80050ca:	6923      	ldr	r3, [r4, #16]
 80050cc:	b173      	cbz	r3, 80050ec <xQueueGenericReset+0x64>
 80050ce:	f104 0010 	add.w	r0, r4, #16
 80050d2:	f000 fe27 	bl	8005d24 <xTaskRemoveFromEventList>
 80050d6:	b148      	cbz	r0, 80050ec <xQueueGenericReset+0x64>
 80050d8:	f04f 23e0 	mov.w	r3, #3758153728	@ 0xe000e000
 80050dc:	f04f 5280 	mov.w	r2, #268435456	@ 0x10000000
 80050e0:	f8c3 2d04 	str.w	r2, [r3, #3332]	@ 0xd04
 80050e4:	f3bf 8f4f 	dsb	sy
 80050e8:	f3bf 8f6f 	isb	sy
 80050ec:	f001 f96a 	bl	80063c4 <vPortExitCritical>
 80050f0:	2001      	movs	r0, #1
 80050f2:	bd38      	pop	{r3, r4, r5, pc}
 80050f4:	f104 0010 	add.w	r0, r4, #16
 80050f8:	f7ff fefc 	bl	8004ef4 <vListInitialise>
 80050fc:	f104 0024 	add.w	r0, r4, #36	@ 0x24
 8005100:	f7ff fef8 	bl	8004ef4 <vListInitialise>
 8005104:	e7f2      	b.n	80050ec <xQueueGenericReset+0x64>

08005106 <xQueueGenericCreateStatic>:
 8005106:	b537      	push	{r0, r1, r2, r4, r5, lr}
 8005108:	460d      	mov	r5, r1
 800510a:	461c      	mov	r4, r3
 800510c:	b940      	cbnz	r0, 8005120 <xQueueGenericCreateStatic+0x1a>
 800510e:	f04f 0350 	mov.w	r3, #80	@ 0x50
 8005112:	f383 8811 	msr	BASEPRI, r3
 8005116:	f3bf 8f6f 	isb	sy
 800511a:	f3bf 8f4f 	dsb	sy
 800511e:	e7fe      	b.n	800511e <xQueueGenericCreateStatic+0x18>
 8005120:	b943      	cbnz	r3, 8005134 <xQueueGenericCreateStatic+0x2e>
 8005122:	f04f 0350 	mov.w	r3, #80	@ 0x50
 8005126:	f383 8811 	msr	BASEPRI, r3
 800512a:	f3bf 8f6f 	isb	sy
 800512e:	f3bf 8f4f 	dsb	sy
 8005132:	e7fe      	b.n	8005132 <xQueueGenericCreateStatic+0x2c>
 8005134:	b14a      	cbz	r2, 800514a <xQueueGenericCreateStatic+0x44>
 8005136:	b991      	cbnz	r1, 800515e <xQueueGenericCreateStatic+0x58>
 8005138:	f04f 0350 	mov.w	r3, #80	@ 0x50
 800513c:	f383 8811 	msr	BASEPRI, r3
 8005140:	f3bf 8f6f 	isb	sy
 8005144:	f3bf 8f4f 	dsb	sy
 8005148:	e7fe      	b.n	8005148 <xQueueGenericCreateStatic+0x42>
 800514a:	b141      	cbz	r1, 800515e <xQueueGenericCreateStatic+0x58>
 800514c:	f04f 0350 	mov.w	r3, #80	@ 0x50
 8005150:	f383 8811 	msr	BASEPRI, r3
 8005154:	f3bf 8f6f 	isb	sy
 8005158:	f3bf 8f4f 	dsb	sy
 800515c:	e7fe      	b.n	800515c <xQueueGenericCreateStatic+0x56>
 800515e:	2350      	movs	r3, #80	@ 0x50
 8005160:	9301      	str	r3, [sp, #4]
 8005162:	9b01      	ldr	r3, [sp, #4]
 8005164:	2b50      	cmp	r3, #80	@ 0x50
 8005166:	d008      	beq.n	800517a <xQueueGenericCreateStatic+0x74>
 8005168:	f04f 0350 	mov.w	r3, #80	@ 0x50
 800516c:	f383 8811 	msr	BASEPRI, r3
 8005170:	f3bf 8f6f 	isb	sy
 8005174:	f3bf 8f4f 	dsb	sy
 8005178:	e7fe      	b.n	8005178 <xQueueGenericCreateStatic+0x72>
 800517a:	2101      	movs	r1, #1
 800517c:	2d00      	cmp	r5, #0
 800517e:	bf08      	it	eq
 8005180:	4622      	moveq	r2, r4
 8005182:	e9c4 050f 	strd	r0, r5, [r4, #60]	@ 0x3c
 8005186:	f884 1046 	strb.w	r1, [r4, #70]	@ 0x46
 800518a:	6022      	str	r2, [r4, #0]
 800518c:	4620      	mov	r0, r4
 800518e:	9b01      	ldr	r3, [sp, #4]
 8005190:	f7ff ff7a 	bl	8005088 <xQueueGenericReset>
 8005194:	f89d 3018 	ldrb.w	r3, [sp, #24]
 8005198:	f884 304c 	strb.w	r3, [r4, #76]	@ 0x4c
 800519c:	4620      	mov	r0, r4
 800519e:	b003      	add	sp, #12
 80051a0:	bd30      	pop	{r4, r5, pc}

080051a2 <xQueueGenericSend>:
 80051a2:	e92d 41ff 	stmdb	sp!, {r0, r1, r2, r3, r4, r5, r6, r7, r8, lr}
 80051a6:	460f      	mov	r7, r1
 80051a8:	9201      	str	r2, [sp, #4]
 80051aa:	461e      	mov	r6, r3
 80051ac:	4604      	mov	r4, r0
 80051ae:	b940      	cbnz	r0, 80051c2 <xQueueGenericSend+0x20>
 80051b0:	f04f 0350 	mov.w	r3, #80	@ 0x50
 80051b4:	f383 8811 	msr	BASEPRI, r3
 80051b8:	f3bf 8f6f 	isb	sy
 80051bc:	f3bf 8f4f 	dsb	sy
 80051c0:	e7fe      	b.n	80051c0 <xQueueGenericSend+0x1e>
 80051c2:	b951      	cbnz	r1, 80051da <xQueueGenericSend+0x38>
 80051c4:	6c03      	ldr	r3, [r0, #64]	@ 0x40
 80051c6:	b143      	cbz	r3, 80051da <xQueueGenericSend+0x38>
 80051c8:	f04f 0350 	mov.w	r3, #80	@ 0x50
 80051cc:	f383 8811 	msr	BASEPRI, r3
 80051d0:	f3bf 8f6f 	isb	sy
 80051d4:	f3bf 8f4f 	dsb	sy
 80051d8:	e7fe      	b.n	80051d8 <xQueueGenericSend+0x36>
 80051da:	2e02      	cmp	r6, #2
 80051dc:	d10b      	bne.n	80051f6 <xQueueGenericSend+0x54>
 80051de:	6be3      	ldr	r3, [r4, #60]	@ 0x3c
 80051e0:	2b01      	cmp	r3, #1
 80051e2:	d008      	beq.n	80051f6 <xQueueGenericSend+0x54>
 80051e4:	f04f 0350 	mov.w	r3, #80	@ 0x50
 80051e8:	f383 8811 	msr	BASEPRI, r3
 80051ec:	f3bf 8f6f 	isb	sy
 80051f0:	f3bf 8f4f 	dsb	sy
 80051f4:	e7fe      	b.n	80051f4 <xQueueGenericSend+0x52>
 80051f6:	f000 fe23 	bl	8005e40 <xTaskGetSchedulerState>
 80051fa:	4605      	mov	r5, r0
 80051fc:	b320      	cbz	r0, 8005248 <xQueueGenericSend+0xa6>
 80051fe:	2500      	movs	r5, #0
 8005200:	f04f 0800 	mov.w	r8, #0
 8005204:	f001 f8be 	bl	8006384 <vPortEnterCritical>
 8005208:	6ba2      	ldr	r2, [r4, #56]	@ 0x38
 800520a:	6be3      	ldr	r3, [r4, #60]	@ 0x3c
 800520c:	429a      	cmp	r2, r3
 800520e:	d227      	bcs.n	8005260 <xQueueGenericSend+0xbe>
 8005210:	4632      	mov	r2, r6
 8005212:	4639      	mov	r1, r7
 8005214:	4620      	mov	r0, r4
 8005216:	f7ff feb8 	bl	8004f8a <prvCopyDataToQueue>
 800521a:	6a63      	ldr	r3, [r4, #36]	@ 0x24
 800521c:	b11b      	cbz	r3, 8005226 <xQueueGenericSend+0x84>
 800521e:	f104 0024 	add.w	r0, r4, #36	@ 0x24
 8005222:	f000 fd7f 	bl	8005d24 <xTaskRemoveFromEventList>
 8005226:	b148      	cbz	r0, 800523c <xQueueGenericSend+0x9a>
 8005228:	f04f 23e0 	mov.w	r3, #3758153728	@ 0xe000e000
 800522c:	f04f 5280 	mov.w	r2, #268435456	@ 0x10000000
 8005230:	f8c3 2d04 	str.w	r2, [r3, #3332]	@ 0xd04
 8005234:	f3bf 8f4f 	dsb	sy
 8005238:	f3bf 8f6f 	isb	sy
 800523c:	f001 f8c2 	bl	80063c4 <vPortExitCritical>
 8005240:	2001      	movs	r0, #1
 8005242:	b004      	add	sp, #16
 8005244:	e8bd 81f0 	ldmia.w	sp!, {r4, r5, r6, r7, r8, pc}
 8005248:	9b01      	ldr	r3, [sp, #4]
 800524a:	2b00      	cmp	r3, #0
 800524c:	d0d8      	beq.n	8005200 <xQueueGenericSend+0x5e>
 800524e:	f04f 0350 	mov.w	r3, #80	@ 0x50
 8005252:	f383 8811 	msr	BASEPRI, r3
 8005256:	f3bf 8f6f 	isb	sy
 800525a:	f3bf 8f4f 	dsb	sy
 800525e:	e7fe      	b.n	800525e <xQueueGenericSend+0xbc>
 8005260:	2e02      	cmp	r6, #2
 8005262:	d0d5      	beq.n	8005210 <xQueueGenericSend+0x6e>
 8005264:	9b01      	ldr	r3, [sp, #4]
 8005266:	b91b      	cbnz	r3, 8005270 <xQueueGenericSend+0xce>
 8005268:	f001 f8ac 	bl	80063c4 <vPortExitCritical>
 800526c:	2000      	movs	r0, #0
 800526e:	e7e8      	b.n	8005242 <xQueueGenericSend+0xa0>
 8005270:	b915      	cbnz	r5, 8005278 <xQueueGenericSend+0xd6>
 8005272:	a802      	add	r0, sp, #8
 8005274:	f000 fd96 	bl	8005da4 <vTaskInternalSetTimeOutState>
 8005278:	f001 f8a4 	bl	80063c4 <vPortExitCritical>
 800527c:	f000 fb9e 	bl	80059bc <vTaskSuspendAll>
 8005280:	f001 f880 	bl	8006384 <vPortEnterCritical>
 8005284:	f894 3044 	ldrb.w	r3, [r4, #68]	@ 0x44
 8005288:	2bff      	cmp	r3, #255	@ 0xff
 800528a:	bf08      	it	eq
 800528c:	f884 8044 	strbeq.w	r8, [r4, #68]	@ 0x44
 8005290:	f894 3045 	ldrb.w	r3, [r4, #69]	@ 0x45
 8005294:	2bff      	cmp	r3, #255	@ 0xff
 8005296:	bf08      	it	eq
 8005298:	f884 8045 	strbeq.w	r8, [r4, #69]	@ 0x45
 800529c:	f001 f892 	bl	80063c4 <vPortExitCritical>
 80052a0:	a901      	add	r1, sp, #4
 80052a2:	a802      	add	r0, sp, #8
 80052a4:	f000 fd8a 	bl	8005dbc <xTaskCheckForTimeOut>
 80052a8:	bb38      	cbnz	r0, 80052fa <xQueueGenericSend+0x158>
 80052aa:	f001 f86b 	bl	8006384 <vPortEnterCritical>
 80052ae:	6ba2      	ldr	r2, [r4, #56]	@ 0x38
 80052b0:	6be3      	ldr	r3, [r4, #60]	@ 0x3c
 80052b2:	429a      	cmp	r2, r3
 80052b4:	d10e      	bne.n	80052d4 <xQueueGenericSend+0x132>
 80052b6:	f001 f885 	bl	80063c4 <vPortExitCritical>
 80052ba:	9901      	ldr	r1, [sp, #4]
 80052bc:	f104 0010 	add.w	r0, r4, #16
 80052c0:	f000 fcf8 	bl	8005cb4 <vTaskPlaceOnEventList>
 80052c4:	4620      	mov	r0, r4
 80052c6:	f7ff fea9 	bl	800501c <prvUnlockQueue>
 80052ca:	f000 fc1b 	bl	8005b04 <xTaskResumeAll>
 80052ce:	b148      	cbz	r0, 80052e4 <xQueueGenericSend+0x142>
 80052d0:	2501      	movs	r5, #1
 80052d2:	e797      	b.n	8005204 <xQueueGenericSend+0x62>
 80052d4:	f001 f876 	bl	80063c4 <vPortExitCritical>
 80052d8:	4620      	mov	r0, r4
 80052da:	f7ff fe9f 	bl	800501c <prvUnlockQueue>
 80052de:	f000 fc11 	bl	8005b04 <xTaskResumeAll>
 80052e2:	e7f5      	b.n	80052d0 <xQueueGenericSend+0x12e>
 80052e4:	f04f 23e0 	mov.w	r3, #3758153728	@ 0xe000e000
 80052e8:	f04f 5280 	mov.w	r2, #268435456	@ 0x10000000
 80052ec:	f8c3 2d04 	str.w	r2, [r3, #3332]	@ 0xd04
 80052f0:	f3bf 8f4f 	dsb	sy
 80052f4:	f3bf 8f6f 	isb	sy
 80052f8:	e7ea      	b.n	80052d0 <xQueueGenericSend+0x12e>
 80052fa:	4620      	mov	r0, r4
 80052fc:	f7ff fe8e 	bl	800501c <prvUnlockQueue>
 8005300:	f000 fc00 	bl	8005b04 <xTaskResumeAll>
 8005304:	e7b2      	b.n	800526c <xQueueGenericSend+0xca>

08005306 <xQueueGenericSendFromISR>:
 8005306:	e92d 43f8 	stmdb	sp!, {r3, r4, r5, r6, r7, r8, r9, lr}
 800530a:	4689      	mov	r9, r1
 800530c:	4617      	mov	r7, r2
 800530e:	461e      	mov	r6, r3
 8005310:	4604      	mov	r4, r0
 8005312:	b940      	cbnz	r0, 8005326 <xQueueGenericSendFromISR+0x20>
 8005314:	f04f 0350 	mov.w	r3, #80	@ 0x50
 8005318:	f383 8811 	msr	BASEPRI, r3
 800531c:	f3bf 8f6f 	isb	sy
 8005320:	f3bf 8f4f 	dsb	sy
 8005324:	e7fe      	b.n	8005324 <xQueueGenericSendFromISR+0x1e>
 8005326:	b951      	cbnz	r1, 800533e <xQueueGenericSendFromISR+0x38>
 8005328:	6c03      	ldr	r3, [r0, #64]	@ 0x40
 800532a:	b143      	cbz	r3, 800533e <xQueueGenericSendFromISR+0x38>
 800532c:	f04f 0350 	mov.w	r3, #80	@ 0x50
 8005330:	f383 8811 	msr	BASEPRI, r3
 8005334:	f3bf 8f6f 	isb	sy
 8005338:	f3bf 8f4f 	dsb	sy
 800533c:	e7fe      	b.n	800533c <xQueueGenericSendFromISR+0x36>
 800533e:	2e02      	cmp	r6, #2
 8005340:	d10b      	bne.n	800535a <xQueueGenericSendFromISR+0x54>
 8005342:	6be3      	ldr	r3, [r4, #60]	@ 0x3c
 8005344:	2b01      	cmp	r3, #1
 8005346:	d008      	beq.n	800535a <xQueueGenericSendFromISR+0x54>
 8005348:	f04f 0350 	mov.w	r3, #80	@ 0x50
 800534c:	f383 8811 	msr	BASEPRI, r3
 8005350:	f3bf 8f6f 	isb	sy
 8005354:	f3bf 8f4f 	dsb	sy
 8005358:	e7fe      	b.n	8005358 <xQueueGenericSendFromISR+0x52>
 800535a:	f001 f925 	bl	80065a8 <vPortValidateInterruptPriority>
 800535e:	f3ef 8811 	mrs	r8, BASEPRI
 8005362:	f04f 0350 	mov.w	r3, #80	@ 0x50
 8005366:	f383 8811 	msr	BASEPRI, r3
 800536a:	f3bf 8f6f 	isb	sy
 800536e:	f3bf 8f4f 	dsb	sy
 8005372:	6ba2      	ldr	r2, [r4, #56]	@ 0x38
 8005374:	6be3      	ldr	r3, [r4, #60]	@ 0x3c
 8005376:	429a      	cmp	r2, r3
 8005378:	d301      	bcc.n	800537e <xQueueGenericSendFromISR+0x78>
 800537a:	2e02      	cmp	r6, #2
 800537c:	d11e      	bne.n	80053bc <xQueueGenericSendFromISR+0xb6>
 800537e:	f894 5045 	ldrb.w	r5, [r4, #69]	@ 0x45
 8005382:	6ba3      	ldr	r3, [r4, #56]	@ 0x38
 8005384:	b26d      	sxtb	r5, r5
 8005386:	4632      	mov	r2, r6
 8005388:	4649      	mov	r1, r9
 800538a:	4620      	mov	r0, r4
 800538c:	f7ff fdfd 	bl	8004f8a <prvCopyDataToQueue>
 8005390:	1c6b      	adds	r3, r5, #1
 8005392:	d10e      	bne.n	80053b2 <xQueueGenericSendFromISR+0xac>
 8005394:	6a63      	ldr	r3, [r4, #36]	@ 0x24
 8005396:	b13b      	cbz	r3, 80053a8 <xQueueGenericSendFromISR+0xa2>
 8005398:	f104 0024 	add.w	r0, r4, #36	@ 0x24
 800539c:	f000 fcc2 	bl	8005d24 <xTaskRemoveFromEventList>
 80053a0:	b110      	cbz	r0, 80053a8 <xQueueGenericSendFromISR+0xa2>
 80053a2:	b10f      	cbz	r7, 80053a8 <xQueueGenericSendFromISR+0xa2>
 80053a4:	2301      	movs	r3, #1
 80053a6:	603b      	str	r3, [r7, #0]
 80053a8:	2001      	movs	r0, #1
 80053aa:	f388 8811 	msr	BASEPRI, r8
 80053ae:	e8bd 83f8 	ldmia.w	sp!, {r3, r4, r5, r6, r7, r8, r9, pc}
 80053b2:	3501      	adds	r5, #1
 80053b4:	b26d      	sxtb	r5, r5
 80053b6:	f884 5045 	strb.w	r5, [r4, #69]	@ 0x45
 80053ba:	e7f5      	b.n	80053a8 <xQueueGenericSendFromISR+0xa2>
 80053bc:	2000      	movs	r0, #0
 80053be:	e7f4      	b.n	80053aa <xQueueGenericSendFromISR+0xa4>

080053c0 <xQueueReceive>:
 80053c0:	e92d 41ff 	stmdb	sp!, {r0, r1, r2, r3, r4, r5, r6, r7, r8, lr}
 80053c4:	460e      	mov	r6, r1
 80053c6:	9201      	str	r2, [sp, #4]
 80053c8:	4604      	mov	r4, r0
 80053ca:	b940      	cbnz	r0, 80053de <xQueueReceive+0x1e>
 80053cc:	f04f 0350 	mov.w	r3, #80	@ 0x50
 80053d0:	f383 8811 	msr	BASEPRI, r3
 80053d4:	f3bf 8f6f 	isb	sy
 80053d8:	f3bf 8f4f 	dsb	sy
 80053dc:	e7fe      	b.n	80053dc <xQueueReceive+0x1c>
 80053de:	b951      	cbnz	r1, 80053f6 <xQueueReceive+0x36>
 80053e0:	6c03      	ldr	r3, [r0, #64]	@ 0x40
 80053e2:	b143      	cbz	r3, 80053f6 <xQueueReceive+0x36>
 80053e4:	f04f 0350 	mov.w	r3, #80	@ 0x50
 80053e8:	f383 8811 	msr	BASEPRI, r3
 80053ec:	f3bf 8f6f 	isb	sy
 80053f0:	f3bf 8f4f 	dsb	sy
 80053f4:	e7fe      	b.n	80053f4 <xQueueReceive+0x34>
 80053f6:	f000 fd23 	bl	8005e40 <xTaskGetSchedulerState>
 80053fa:	4605      	mov	r5, r0
 80053fc:	b318      	cbz	r0, 8005446 <xQueueReceive+0x86>
 80053fe:	2500      	movs	r5, #0
 8005400:	f04f 0800 	mov.w	r8, #0
 8005404:	f000 ffbe 	bl	8006384 <vPortEnterCritical>
 8005408:	6ba7      	ldr	r7, [r4, #56]	@ 0x38
 800540a:	b347      	cbz	r7, 800545e <xQueueReceive+0x9e>
 800540c:	4631      	mov	r1, r6
 800540e:	4620      	mov	r0, r4
 8005410:	3f01      	subs	r7, #1
 8005412:	f7ff fded 	bl	8004ff0 <prvCopyDataFromQueue>
 8005416:	63a7      	str	r7, [r4, #56]	@ 0x38
 8005418:	6923      	ldr	r3, [r4, #16]
 800541a:	b173      	cbz	r3, 800543a <xQueueReceive+0x7a>
 800541c:	f104 0010 	add.w	r0, r4, #16
 8005420:	f000 fc80 	bl	8005d24 <xTaskRemoveFromEventList>
 8005424:	b148      	cbz	r0, 800543a <xQueueReceive+0x7a>
 8005426:	f04f 23e0 	mov.w	r3, #3758153728	@ 0xe000e000
 800542a:	f04f 5280 	mov.w	r2, #268435456	@ 0x10000000
 800542e:	f8c3 2d04 	str.w	r2, [r3, #3332]	@ 0xd04
 8005432:	f3bf 8f4f 	dsb	sy
 8005436:	f3bf 8f6f 	isb	sy
 800543a:	f000 ffc3 	bl	80063c4 <vPortExitCritical>
 800543e:	2001      	movs	r0, #1
 8005440:	b004      	add	sp, #16
 8005442:	e8bd 81f0 	ldmia.w	sp!, {r4, r5, r6, r7, r8, pc}
 8005446:	9b01      	ldr	r3, [sp, #4]
 8005448:	2b00      	cmp	r3, #0
 800544a:	d0d9      	beq.n	8005400 <xQueueReceive+0x40>
 800544c:	f04f 0350 	mov.w	r3, #80	@ 0x50
 8005450:	f383 8811 	msr	BASEPRI, r3
 8005454:	f3bf 8f6f 	isb	sy
 8005458:	f3bf 8f4f 	dsb	sy
 800545c:	e7fe      	b.n	800545c <xQueueReceive+0x9c>
 800545e:	9b01      	ldr	r3, [sp, #4]
 8005460:	b91b      	cbnz	r3, 800546a <xQueueReceive+0xaa>
 8005462:	f000 ffaf 	bl	80063c4 <vPortExitCritical>
 8005466:	2000      	movs	r0, #0
 8005468:	e7ea      	b.n	8005440 <xQueueReceive+0x80>
 800546a:	b915      	cbnz	r5, 8005472 <xQueueReceive+0xb2>
 800546c:	a802      	add	r0, sp, #8
 800546e:	f000 fc99 	bl	8005da4 <vTaskInternalSetTimeOutState>
 8005472:	f000 ffa7 	bl	80063c4 <vPortExitCritical>
 8005476:	f000 faa1 	bl	80059bc <vTaskSuspendAll>
 800547a:	f000 ff83 	bl	8006384 <vPortEnterCritical>
 800547e:	f894 3044 	ldrb.w	r3, [r4, #68]	@ 0x44
 8005482:	2bff      	cmp	r3, #255	@ 0xff
 8005484:	bf08      	it	eq
 8005486:	f884 8044 	strbeq.w	r8, [r4, #68]	@ 0x44
 800548a:	f894 3045 	ldrb.w	r3, [r4, #69]	@ 0x45
 800548e:	2bff      	cmp	r3, #255	@ 0xff
 8005490:	bf08      	it	eq
 8005492:	f884 8045 	strbeq.w	r8, [r4, #69]	@ 0x45
 8005496:	f000 ff95 	bl	80063c4 <vPortExitCritical>
 800549a:	a901      	add	r1, sp, #4
 800549c:	a802      	add	r0, sp, #8
 800549e:	f000 fc8d 	bl	8005dbc <xTaskCheckForTimeOut>
 80054a2:	bb00      	cbnz	r0, 80054e6 <xQueueReceive+0x126>
 80054a4:	4620      	mov	r0, r4
 80054a6:	f7ff fd65 	bl	8004f74 <prvIsQueueEmpty>
 80054aa:	b1b0      	cbz	r0, 80054da <xQueueReceive+0x11a>
 80054ac:	9901      	ldr	r1, [sp, #4]
 80054ae:	f104 0024 	add.w	r0, r4, #36	@ 0x24
 80054b2:	f000 fbff 	bl	8005cb4 <vTaskPlaceOnEventList>
 80054b6:	4620      	mov	r0, r4
 80054b8:	f7ff fdb0 	bl	800501c <prvUnlockQueue>
 80054bc:	f000 fb22 	bl	8005b04 <xTaskResumeAll>
 80054c0:	b948      	cbnz	r0, 80054d6 <xQueueReceive+0x116>
 80054c2:	f04f 23e0 	mov.w	r3, #3758153728	@ 0xe000e000
 80054c6:	f04f 5280 	mov.w	r2, #268435456	@ 0x10000000
 80054ca:	f8c3 2d04 	str.w	r2, [r3, #3332]	@ 0xd04
 80054ce:	f3bf 8f4f 	dsb	sy
 80054d2:	f3bf 8f6f 	isb	sy
 80054d6:	2501      	movs	r5, #1
 80054d8:	e794      	b.n	8005404 <xQueueReceive+0x44>
 80054da:	4620      	mov	r0, r4
 80054dc:	f7ff fd9e 	bl	800501c <prvUnlockQueue>
 80054e0:	f000 fb10 	bl	8005b04 <xTaskResumeAll>
 80054e4:	e7f7      	b.n	80054d6 <xQueueReceive+0x116>
 80054e6:	4620      	mov	r0, r4
 80054e8:	f7ff fd98 	bl	800501c <prvUnlockQueue>
 80054ec:	f000 fb0a 	bl	8005b04 <xTaskResumeAll>
 80054f0:	4620      	mov	r0, r4
 80054f2:	f7ff fd3f 	bl	8004f74 <prvIsQueueEmpty>
 80054f6:	2800      	cmp	r0, #0
 80054f8:	d0ed      	beq.n	80054d6 <xQueueReceive+0x116>
 80054fa:	e7b4      	b.n	8005466 <xQueueReceive+0xa6>

080054fc <vQueueAddToRegistry>:
 80054fc:	b530      	push	{r4, r5, lr}
 80054fe:	4a07      	ldr	r2, [pc, #28]	@ (800551c <vQueueAddToRegistry+0x20>)
 8005500:	2300      	movs	r3, #0
 8005502:	f852 5033 	ldr.w	r5, [r2, r3, lsl #3]
 8005506:	eb02 04c3 	add.w	r4, r2, r3, lsl #3
 800550a:	b91d      	cbnz	r5, 8005514 <vQueueAddToRegistry+0x18>
 800550c:	f842 1033 	str.w	r1, [r2, r3, lsl #3]
 8005510:	6060      	str	r0, [r4, #4]
 8005512:	bd30      	pop	{r4, r5, pc}
 8005514:	3301      	adds	r3, #1
 8005516:	2b08      	cmp	r3, #8
 8005518:	d1f3      	bne.n	8005502 <vQueueAddToRegistry+0x6>
 800551a:	e7fa      	b.n	8005512 <vQueueAddToRegistry+0x16>
 800551c:	20001624 	.word	0x20001624

08005520 <vQueueWaitForMessageRestricted>:
 8005520:	b570      	push	{r4, r5, r6, lr}
 8005522:	4604      	mov	r4, r0
 8005524:	460d      	mov	r5, r1
 8005526:	4616      	mov	r6, r2
 8005528:	f000 ff2c 	bl	8006384 <vPortEnterCritical>
 800552c:	f894 3044 	ldrb.w	r3, [r4, #68]	@ 0x44
 8005530:	2bff      	cmp	r3, #255	@ 0xff
 8005532:	bf04      	itt	eq
 8005534:	2300      	moveq	r3, #0
 8005536:	f884 3044 	strbeq.w	r3, [r4, #68]	@ 0x44
 800553a:	f894 3045 	ldrb.w	r3, [r4, #69]	@ 0x45
 800553e:	2bff      	cmp	r3, #255	@ 0xff
 8005540:	bf04      	itt	eq
 8005542:	2300      	moveq	r3, #0
 8005544:	f884 3045 	strbeq.w	r3, [r4, #69]	@ 0x45
 8005548:	f000 ff3c 	bl	80063c4 <vPortExitCritical>
 800554c:	6ba3      	ldr	r3, [r4, #56]	@ 0x38
 800554e:	b92b      	cbnz	r3, 800555c <vQueueWaitForMessageRestricted+0x3c>
 8005550:	4632      	mov	r2, r6
 8005552:	4629      	mov	r1, r5
 8005554:	f104 0024 	add.w	r0, r4, #36	@ 0x24
 8005558:	f000 fbc6 	bl	8005ce8 <vTaskPlaceOnEventListRestricted>
 800555c:	4620      	mov	r0, r4
 800555e:	e8bd 4070 	ldmia.w	sp!, {r4, r5, r6, lr}
 8005562:	f7ff bd5b 	b.w	800501c <prvUnlockQueue>
	...

08005568 <prvAddNewTaskToReadyList>:
 8005568:	e92d 41f0 	stmdb	sp!, {r4, r5, r6, r7, r8, lr}
 800556c:	4604      	mov	r4, r0
 800556e:	f000 ff09 	bl	8006384 <vPortEnterCritical>
 8005572:	4b30      	ldr	r3, [pc, #192]	@ (8005634 <prvAddNewTaskToReadyList+0xcc>)
 8005574:	4e30      	ldr	r6, [pc, #192]	@ (8005638 <prvAddNewTaskToReadyList+0xd0>)
 8005576:	681a      	ldr	r2, [r3, #0]
 8005578:	4f30      	ldr	r7, [pc, #192]	@ (800563c <prvAddNewTaskToReadyList+0xd4>)
 800557a:	3201      	adds	r2, #1
 800557c:	601a      	str	r2, [r3, #0]
 800557e:	6835      	ldr	r5, [r6, #0]
 8005580:	2d00      	cmp	r5, #0
 8005582:	d14b      	bne.n	800561c <prvAddNewTaskToReadyList+0xb4>
 8005584:	6034      	str	r4, [r6, #0]
 8005586:	681b      	ldr	r3, [r3, #0]
 8005588:	2b01      	cmp	r3, #1
 800558a:	d11f      	bne.n	80055cc <prvAddNewTaskToReadyList+0x64>
 800558c:	46b8      	mov	r8, r7
 800558e:	4640      	mov	r0, r8
 8005590:	3501      	adds	r5, #1
 8005592:	f7ff fcaf 	bl	8004ef4 <vListInitialise>
 8005596:	2d38      	cmp	r5, #56	@ 0x38
 8005598:	f108 0814 	add.w	r8, r8, #20
 800559c:	d1f7      	bne.n	800558e <prvAddNewTaskToReadyList+0x26>
 800559e:	f8df 80c4 	ldr.w	r8, [pc, #196]	@ 8005664 <prvAddNewTaskToReadyList+0xfc>
 80055a2:	4d27      	ldr	r5, [pc, #156]	@ (8005640 <prvAddNewTaskToReadyList+0xd8>)
 80055a4:	4640      	mov	r0, r8
 80055a6:	f7ff fca5 	bl	8004ef4 <vListInitialise>
 80055aa:	4628      	mov	r0, r5
 80055ac:	f7ff fca2 	bl	8004ef4 <vListInitialise>
 80055b0:	4824      	ldr	r0, [pc, #144]	@ (8005644 <prvAddNewTaskToReadyList+0xdc>)
 80055b2:	f7ff fc9f 	bl	8004ef4 <vListInitialise>
 80055b6:	4824      	ldr	r0, [pc, #144]	@ (8005648 <prvAddNewTaskToReadyList+0xe0>)
 80055b8:	f7ff fc9c 	bl	8004ef4 <vListInitialise>
 80055bc:	4823      	ldr	r0, [pc, #140]	@ (800564c <prvAddNewTaskToReadyList+0xe4>)
 80055be:	f7ff fc99 	bl	8004ef4 <vListInitialise>
 80055c2:	4b23      	ldr	r3, [pc, #140]	@ (8005650 <prvAddNewTaskToReadyList+0xe8>)
 80055c4:	f8c3 8000 	str.w	r8, [r3]
 80055c8:	4b22      	ldr	r3, [pc, #136]	@ (8005654 <prvAddNewTaskToReadyList+0xec>)
 80055ca:	601d      	str	r5, [r3, #0]
 80055cc:	4a22      	ldr	r2, [pc, #136]	@ (8005658 <prvAddNewTaskToReadyList+0xf0>)
 80055ce:	6813      	ldr	r3, [r2, #0]
 80055d0:	3301      	adds	r3, #1
 80055d2:	6013      	str	r3, [r2, #0]
 80055d4:	4a21      	ldr	r2, [pc, #132]	@ (800565c <prvAddNewTaskToReadyList+0xf4>)
 80055d6:	6463      	str	r3, [r4, #68]	@ 0x44
 80055d8:	6811      	ldr	r1, [r2, #0]
 80055da:	6ae3      	ldr	r3, [r4, #44]	@ 0x2c
 80055dc:	2014      	movs	r0, #20
 80055de:	428b      	cmp	r3, r1
 80055e0:	fb00 7003 	mla	r0, r0, r3, r7
 80055e4:	f104 0104 	add.w	r1, r4, #4
 80055e8:	bf88      	it	hi
 80055ea:	6013      	strhi	r3, [r2, #0]
 80055ec:	f7ff fc90 	bl	8004f10 <vListInsertEnd>
 80055f0:	f000 fee8 	bl	80063c4 <vPortExitCritical>
 80055f4:	4b1a      	ldr	r3, [pc, #104]	@ (8005660 <prvAddNewTaskToReadyList+0xf8>)
 80055f6:	681b      	ldr	r3, [r3, #0]
 80055f8:	b173      	cbz	r3, 8005618 <prvAddNewTaskToReadyList+0xb0>
 80055fa:	6833      	ldr	r3, [r6, #0]
 80055fc:	6ada      	ldr	r2, [r3, #44]	@ 0x2c
 80055fe:	6ae3      	ldr	r3, [r4, #44]	@ 0x2c
 8005600:	429a      	cmp	r2, r3
 8005602:	d209      	bcs.n	8005618 <prvAddNewTaskToReadyList+0xb0>
 8005604:	f04f 23e0 	mov.w	r3, #3758153728	@ 0xe000e000
 8005608:	f04f 5280 	mov.w	r2, #268435456	@ 0x10000000
 800560c:	f8c3 2d04 	str.w	r2, [r3, #3332]	@ 0xd04
 8005610:	f3bf 8f4f 	dsb	sy
 8005614:	f3bf 8f6f 	isb	sy
 8005618:	e8bd 81f0 	ldmia.w	sp!, {r4, r5, r6, r7, r8, pc}
 800561c:	4b10      	ldr	r3, [pc, #64]	@ (8005660 <prvAddNewTaskToReadyList+0xf8>)
 800561e:	681a      	ldr	r2, [r3, #0]
 8005620:	6ae3      	ldr	r3, [r4, #44]	@ 0x2c
 8005622:	2a00      	cmp	r2, #0
 8005624:	d1d2      	bne.n	80055cc <prvAddNewTaskToReadyList+0x64>
 8005626:	6832      	ldr	r2, [r6, #0]
 8005628:	6ad2      	ldr	r2, [r2, #44]	@ 0x2c
 800562a:	429a      	cmp	r2, r3
 800562c:	bf98      	it	ls
 800562e:	6034      	strls	r4, [r6, #0]
 8005630:	e7cc      	b.n	80055cc <prvAddNewTaskToReadyList+0x64>
 8005632:	bf00      	nop
 8005634:	20001688 	.word	0x20001688
 8005638:	20001b5c 	.word	0x20001b5c
 800563c:	200016fc 	.word	0x200016fc
 8005640:	200016d4 	.word	0x200016d4
 8005644:	200016b8 	.word	0x200016b8
 8005648:	200016a4 	.word	0x200016a4
 800564c:	2000168c 	.word	0x2000168c
 8005650:	200016d0 	.word	0x200016d0
 8005654:	200016cc 	.word	0x200016cc
 8005658:	2000166c 	.word	0x2000166c
 800565c:	20001680 	.word	0x20001680
 8005660:	2000167c 	.word	0x2000167c
 8005664:	200016e8 	.word	0x200016e8

08005668 <prvAddCurrentTaskToDelayedList>:
 8005668:	b5f8      	push	{r3, r4, r5, r6, r7, lr}
 800566a:	4b15      	ldr	r3, [pc, #84]	@ (80056c0 <prvAddCurrentTaskToDelayedList+0x58>)
 800566c:	4d15      	ldr	r5, [pc, #84]	@ (80056c4 <prvAddCurrentTaskToDelayedList+0x5c>)
 800566e:	681c      	ldr	r4, [r3, #0]
 8005670:	4606      	mov	r6, r0
 8005672:	6828      	ldr	r0, [r5, #0]
 8005674:	3004      	adds	r0, #4
 8005676:	460f      	mov	r7, r1
 8005678:	f7ff fc6c 	bl	8004f54 <uxListRemove>
 800567c:	1c73      	adds	r3, r6, #1
 800567e:	d107      	bne.n	8005690 <prvAddCurrentTaskToDelayedList+0x28>
 8005680:	b137      	cbz	r7, 8005690 <prvAddCurrentTaskToDelayedList+0x28>
 8005682:	6829      	ldr	r1, [r5, #0]
 8005684:	4810      	ldr	r0, [pc, #64]	@ (80056c8 <prvAddCurrentTaskToDelayedList+0x60>)
 8005686:	e8bd 40f8 	ldmia.w	sp!, {r3, r4, r5, r6, r7, lr}
 800568a:	3104      	adds	r1, #4
 800568c:	f7ff bc40 	b.w	8004f10 <vListInsertEnd>
 8005690:	682b      	ldr	r3, [r5, #0]
 8005692:	19a4      	adds	r4, r4, r6
 8005694:	605c      	str	r4, [r3, #4]
 8005696:	d307      	bcc.n	80056a8 <prvAddCurrentTaskToDelayedList+0x40>
 8005698:	4b0c      	ldr	r3, [pc, #48]	@ (80056cc <prvAddCurrentTaskToDelayedList+0x64>)
 800569a:	6818      	ldr	r0, [r3, #0]
 800569c:	6829      	ldr	r1, [r5, #0]
 800569e:	e8bd 40f8 	ldmia.w	sp!, {r3, r4, r5, r6, r7, lr}
 80056a2:	3104      	adds	r1, #4
 80056a4:	f7ff bc3f 	b.w	8004f26 <vListInsert>
 80056a8:	4b09      	ldr	r3, [pc, #36]	@ (80056d0 <prvAddCurrentTaskToDelayedList+0x68>)
 80056aa:	6818      	ldr	r0, [r3, #0]
 80056ac:	6829      	ldr	r1, [r5, #0]
 80056ae:	3104      	adds	r1, #4
 80056b0:	f7ff fc39 	bl	8004f26 <vListInsert>
 80056b4:	4b07      	ldr	r3, [pc, #28]	@ (80056d4 <prvAddCurrentTaskToDelayedList+0x6c>)
 80056b6:	681a      	ldr	r2, [r3, #0]
 80056b8:	42a2      	cmp	r2, r4
 80056ba:	bf88      	it	hi
 80056bc:	601c      	strhi	r4, [r3, #0]
 80056be:	bdf8      	pop	{r3, r4, r5, r6, r7, pc}
 80056c0:	20001684 	.word	0x20001684
 80056c4:	20001b5c 	.word	0x20001b5c
 80056c8:	2000168c 	.word	0x2000168c
 80056cc:	200016cc 	.word	0x200016cc
 80056d0:	200016d0 	.word	0x200016d0
 80056d4:	20001668 	.word	0x20001668

080056d8 <prvResetNextTaskUnblockTime>:
 80056d8:	4a06      	ldr	r2, [pc, #24]	@ (80056f4 <prvResetNextTaskUnblockTime+0x1c>)
 80056da:	6813      	ldr	r3, [r2, #0]
 80056dc:	6819      	ldr	r1, [r3, #0]
 80056de:	4b06      	ldr	r3, [pc, #24]	@ (80056f8 <prvResetNextTaskUnblockTime+0x20>)
 80056e0:	b919      	cbnz	r1, 80056ea <prvResetNextTaskUnblockTime+0x12>
 80056e2:	f04f 32ff 	mov.w	r2, #4294967295
 80056e6:	601a      	str	r2, [r3, #0]
 80056e8:	4770      	bx	lr
 80056ea:	6812      	ldr	r2, [r2, #0]
 80056ec:	68d2      	ldr	r2, [r2, #12]
 80056ee:	68d2      	ldr	r2, [r2, #12]
 80056f0:	6852      	ldr	r2, [r2, #4]
 80056f2:	e7f8      	b.n	80056e6 <prvResetNextTaskUnblockTime+0xe>
 80056f4:	200016d0 	.word	0x200016d0
 80056f8:	20001668 	.word	0x20001668

080056fc <prvDeleteTCB>:
 80056fc:	b510      	push	{r4, lr}
 80056fe:	4604      	mov	r4, r0
 8005700:	3054      	adds	r0, #84	@ 0x54
 8005702:	f001 f8ed 	bl	80068e0 <_reclaim_reent>
 8005706:	f894 30a5 	ldrb.w	r3, [r4, #165]	@ 0xa5
 800570a:	b93b      	cbnz	r3, 800571c <prvDeleteTCB+0x20>
 800570c:	6b20      	ldr	r0, [r4, #48]	@ 0x30
 800570e:	f001 f837 	bl	8006780 <vPortFree>
 8005712:	4620      	mov	r0, r4
 8005714:	e8bd 4010 	ldmia.w	sp!, {r4, lr}
 8005718:	f001 b832 	b.w	8006780 <vPortFree>
 800571c:	2b01      	cmp	r3, #1
 800571e:	d0f8      	beq.n	8005712 <prvDeleteTCB+0x16>
 8005720:	2b02      	cmp	r3, #2
 8005722:	d008      	beq.n	8005736 <prvDeleteTCB+0x3a>
 8005724:	f04f 0350 	mov.w	r3, #80	@ 0x50
 8005728:	f383 8811 	msr	BASEPRI, r3
 800572c:	f3bf 8f6f 	isb	sy
 8005730:	f3bf 8f4f 	dsb	sy
 8005734:	e7fe      	b.n	8005734 <prvDeleteTCB+0x38>
 8005736:	bd10      	pop	{r4, pc}

08005738 <prvIdleTask>:
 8005738:	b580      	push	{r7, lr}
 800573a:	4c13      	ldr	r4, [pc, #76]	@ (8005788 <prvIdleTask+0x50>)
 800573c:	4f13      	ldr	r7, [pc, #76]	@ (800578c <prvIdleTask+0x54>)
 800573e:	4d14      	ldr	r5, [pc, #80]	@ (8005790 <prvIdleTask+0x58>)
 8005740:	6823      	ldr	r3, [r4, #0]
 8005742:	b973      	cbnz	r3, 8005762 <prvIdleTask+0x2a>
 8005744:	4b13      	ldr	r3, [pc, #76]	@ (8005794 <prvIdleTask+0x5c>)
 8005746:	681b      	ldr	r3, [r3, #0]
 8005748:	2b01      	cmp	r3, #1
 800574a:	d9f8      	bls.n	800573e <prvIdleTask+0x6>
 800574c:	f04f 23e0 	mov.w	r3, #3758153728	@ 0xe000e000
 8005750:	f04f 5280 	mov.w	r2, #268435456	@ 0x10000000
 8005754:	f8c3 2d04 	str.w	r2, [r3, #3332]	@ 0xd04
 8005758:	f3bf 8f4f 	dsb	sy
 800575c:	f3bf 8f6f 	isb	sy
 8005760:	e7ed      	b.n	800573e <prvIdleTask+0x6>
 8005762:	f000 fe0f 	bl	8006384 <vPortEnterCritical>
 8005766:	68fb      	ldr	r3, [r7, #12]
 8005768:	68de      	ldr	r6, [r3, #12]
 800576a:	1d30      	adds	r0, r6, #4
 800576c:	f7ff fbf2 	bl	8004f54 <uxListRemove>
 8005770:	682b      	ldr	r3, [r5, #0]
 8005772:	3b01      	subs	r3, #1
 8005774:	602b      	str	r3, [r5, #0]
 8005776:	6823      	ldr	r3, [r4, #0]
 8005778:	3b01      	subs	r3, #1
 800577a:	6023      	str	r3, [r4, #0]
 800577c:	f000 fe22 	bl	80063c4 <vPortExitCritical>
 8005780:	4630      	mov	r0, r6
 8005782:	f7ff ffbb 	bl	80056fc <prvDeleteTCB>
 8005786:	e7db      	b.n	8005740 <prvIdleTask+0x8>
 8005788:	200016a0 	.word	0x200016a0
 800578c:	200016a4 	.word	0x200016a4
 8005790:	20001688 	.word	0x20001688
 8005794:	200016fc 	.word	0x200016fc

08005798 <prvInitialiseNewTask.constprop.0>:
 8005798:	e92d 47f0 	stmdb	sp!, {r4, r5, r6, r7, r8, r9, sl, lr}
 800579c:	e9dd 9409 	ldrd	r9, r4, [sp, #36]	@ 0x24
 80057a0:	0096      	lsls	r6, r2, #2
 80057a2:	4632      	mov	r2, r6
 80057a4:	4607      	mov	r7, r0
 80057a6:	460d      	mov	r5, r1
 80057a8:	6b20      	ldr	r0, [r4, #48]	@ 0x30
 80057aa:	21a5      	movs	r1, #165	@ 0xa5
 80057ac:	4698      	mov	r8, r3
 80057ae:	f001 f88f 	bl	80068d0 <memset>
 80057b2:	6b23      	ldr	r3, [r4, #48]	@ 0x30
 80057b4:	3e04      	subs	r6, #4
 80057b6:	441e      	add	r6, r3
 80057b8:	f026 0607 	bic.w	r6, r6, #7
 80057bc:	2d00      	cmp	r5, #0
 80057be:	d041      	beq.n	8005844 <prvInitialiseNewTask.constprop.0+0xac>
 80057c0:	1e6b      	subs	r3, r5, #1
 80057c2:	f104 0233 	add.w	r2, r4, #51	@ 0x33
 80057c6:	350f      	adds	r5, #15
 80057c8:	f813 1f01 	ldrb.w	r1, [r3, #1]!
 80057cc:	f802 1f01 	strb.w	r1, [r2, #1]!
 80057d0:	b109      	cbz	r1, 80057d6 <prvInitialiseNewTask.constprop.0+0x3e>
 80057d2:	42ab      	cmp	r3, r5
 80057d4:	d1f8      	bne.n	80057c8 <prvInitialiseNewTask.constprop.0+0x30>
 80057d6:	2300      	movs	r3, #0
 80057d8:	f884 3043 	strb.w	r3, [r4, #67]	@ 0x43
 80057dc:	9d08      	ldr	r5, [sp, #32]
 80057de:	2d37      	cmp	r5, #55	@ 0x37
 80057e0:	bf28      	it	cs
 80057e2:	2537      	movcs	r5, #55	@ 0x37
 80057e4:	f04f 0a00 	mov.w	sl, #0
 80057e8:	62e5      	str	r5, [r4, #44]	@ 0x2c
 80057ea:	64e5      	str	r5, [r4, #76]	@ 0x4c
 80057ec:	1d20      	adds	r0, r4, #4
 80057ee:	f8c4 a050 	str.w	sl, [r4, #80]	@ 0x50
 80057f2:	f7ff fb8a 	bl	8004f0a <vListInitialiseItem>
 80057f6:	f1c5 0538 	rsb	r5, r5, #56	@ 0x38
 80057fa:	f104 0018 	add.w	r0, r4, #24
 80057fe:	f7ff fb84 	bl	8004f0a <vListInitialiseItem>
 8005802:	f8c4 a0a0 	str.w	sl, [r4, #160]	@ 0xa0
 8005806:	224c      	movs	r2, #76	@ 0x4c
 8005808:	4651      	mov	r1, sl
 800580a:	6124      	str	r4, [r4, #16]
 800580c:	61a5      	str	r5, [r4, #24]
 800580e:	6264      	str	r4, [r4, #36]	@ 0x24
 8005810:	f884 a0a4 	strb.w	sl, [r4, #164]	@ 0xa4
 8005814:	f104 0054 	add.w	r0, r4, #84	@ 0x54
 8005818:	f001 f85a 	bl	80068d0 <memset>
 800581c:	4b0b      	ldr	r3, [pc, #44]	@ (800584c <prvInitialiseNewTask.constprop.0+0xb4>)
 800581e:	65a3      	str	r3, [r4, #88]	@ 0x58
 8005820:	f103 0268 	add.w	r2, r3, #104	@ 0x68
 8005824:	33d0      	adds	r3, #208	@ 0xd0
 8005826:	65e2      	str	r2, [r4, #92]	@ 0x5c
 8005828:	6623      	str	r3, [r4, #96]	@ 0x60
 800582a:	4642      	mov	r2, r8
 800582c:	4639      	mov	r1, r7
 800582e:	4630      	mov	r0, r6
 8005830:	f000 fd7e 	bl	8006330 <pxPortInitialiseStack>
 8005834:	6020      	str	r0, [r4, #0]
 8005836:	f1b9 0f00 	cmp.w	r9, #0
 800583a:	d001      	beq.n	8005840 <prvInitialiseNewTask.constprop.0+0xa8>
 800583c:	f8c9 4000 	str.w	r4, [r9]
 8005840:	e8bd 87f0 	ldmia.w	sp!, {r4, r5, r6, r7, r8, r9, sl, pc}
 8005844:	f884 5034 	strb.w	r5, [r4, #52]	@ 0x34
 8005848:	e7c8      	b.n	80057dc <prvInitialiseNewTask.constprop.0+0x44>
 800584a:	bf00      	nop
 800584c:	200028b4 	.word	0x200028b4

08005850 <xTaskCreateStatic>:
 8005850:	b570      	push	{r4, r5, r6, lr}
 8005852:	b086      	sub	sp, #24
 8005854:	e9dd 540b 	ldrd	r5, r4, [sp, #44]	@ 0x2c
 8005858:	b945      	cbnz	r5, 800586c <xTaskCreateStatic+0x1c>
 800585a:	f04f 0350 	mov.w	r3, #80	@ 0x50
 800585e:	f383 8811 	msr	BASEPRI, r3
 8005862:	f3bf 8f6f 	isb	sy
 8005866:	f3bf 8f4f 	dsb	sy
 800586a:	e7fe      	b.n	800586a <xTaskCreateStatic+0x1a>
 800586c:	b944      	cbnz	r4, 8005880 <xTaskCreateStatic+0x30>
 800586e:	f04f 0350 	mov.w	r3, #80	@ 0x50
 8005872:	f383 8811 	msr	BASEPRI, r3
 8005876:	f3bf 8f6f 	isb	sy
 800587a:	f3bf 8f4f 	dsb	sy
 800587e:	e7fe      	b.n	800587e <xTaskCreateStatic+0x2e>
 8005880:	26a8      	movs	r6, #168	@ 0xa8
 8005882:	9605      	str	r6, [sp, #20]
 8005884:	9e05      	ldr	r6, [sp, #20]
 8005886:	2ea8      	cmp	r6, #168	@ 0xa8
 8005888:	d008      	beq.n	800589c <xTaskCreateStatic+0x4c>
 800588a:	f04f 0350 	mov.w	r3, #80	@ 0x50
 800588e:	f383 8811 	msr	BASEPRI, r3
 8005892:	f3bf 8f6f 	isb	sy
 8005896:	f3bf 8f4f 	dsb	sy
 800589a:	e7fe      	b.n	800589a <xTaskCreateStatic+0x4a>
 800589c:	6325      	str	r5, [r4, #48]	@ 0x30
 800589e:	2502      	movs	r5, #2
 80058a0:	f884 50a5 	strb.w	r5, [r4, #165]	@ 0xa5
 80058a4:	ad04      	add	r5, sp, #16
 80058a6:	9501      	str	r5, [sp, #4]
 80058a8:	9d0a      	ldr	r5, [sp, #40]	@ 0x28
 80058aa:	9402      	str	r4, [sp, #8]
 80058ac:	9500      	str	r5, [sp, #0]
 80058ae:	9e05      	ldr	r6, [sp, #20]
 80058b0:	f7ff ff72 	bl	8005798 <prvInitialiseNewTask.constprop.0>
 80058b4:	4620      	mov	r0, r4
 80058b6:	f7ff fe57 	bl	8005568 <prvAddNewTaskToReadyList>
 80058ba:	9804      	ldr	r0, [sp, #16]
 80058bc:	b006      	add	sp, #24
 80058be:	bd70      	pop	{r4, r5, r6, pc}

080058c0 <xTaskCreate>:
 80058c0:	e92d 43f0 	stmdb	sp!, {r4, r5, r6, r7, r8, r9, lr}
 80058c4:	4607      	mov	r7, r0
 80058c6:	b085      	sub	sp, #20
 80058c8:	0090      	lsls	r0, r2, #2
 80058ca:	4688      	mov	r8, r1
 80058cc:	4616      	mov	r6, r2
 80058ce:	4699      	mov	r9, r3
 80058d0:	f000 febe 	bl	8006650 <pvPortMalloc>
 80058d4:	4605      	mov	r5, r0
 80058d6:	b920      	cbnz	r0, 80058e2 <xTaskCreate+0x22>
 80058d8:	f04f 30ff 	mov.w	r0, #4294967295
 80058dc:	b005      	add	sp, #20
 80058de:	e8bd 83f0 	ldmia.w	sp!, {r4, r5, r6, r7, r8, r9, pc}
 80058e2:	20a8      	movs	r0, #168	@ 0xa8
 80058e4:	f000 feb4 	bl	8006650 <pvPortMalloc>
 80058e8:	4604      	mov	r4, r0
 80058ea:	b198      	cbz	r0, 8005914 <xTaskCreate+0x54>
 80058ec:	2300      	movs	r3, #0
 80058ee:	f880 30a5 	strb.w	r3, [r0, #165]	@ 0xa5
 80058f2:	9b0d      	ldr	r3, [sp, #52]	@ 0x34
 80058f4:	6305      	str	r5, [r0, #48]	@ 0x30
 80058f6:	9301      	str	r3, [sp, #4]
 80058f8:	9b0c      	ldr	r3, [sp, #48]	@ 0x30
 80058fa:	9002      	str	r0, [sp, #8]
 80058fc:	9300      	str	r3, [sp, #0]
 80058fe:	4632      	mov	r2, r6
 8005900:	464b      	mov	r3, r9
 8005902:	4641      	mov	r1, r8
 8005904:	4638      	mov	r0, r7
 8005906:	f7ff ff47 	bl	8005798 <prvInitialiseNewTask.constprop.0>
 800590a:	4620      	mov	r0, r4
 800590c:	f7ff fe2c 	bl	8005568 <prvAddNewTaskToReadyList>
 8005910:	2001      	movs	r0, #1
 8005912:	e7e3      	b.n	80058dc <xTaskCreate+0x1c>
 8005914:	4628      	mov	r0, r5
 8005916:	f000 ff33 	bl	8006780 <vPortFree>
 800591a:	e7dd      	b.n	80058d8 <xTaskCreate+0x18>

0800591c <vTaskStartScheduler>:
 800591c:	b510      	push	{r4, lr}
 800591e:	b088      	sub	sp, #32
 8005920:	2400      	movs	r4, #0
 8005922:	aa07      	add	r2, sp, #28
 8005924:	a906      	add	r1, sp, #24
 8005926:	a805      	add	r0, sp, #20
 8005928:	e9cd 4405 	strd	r4, r4, [sp, #20]
 800592c:	f7ff faca 	bl	8004ec4 <vApplicationGetIdleTaskMemory>
 8005930:	9b05      	ldr	r3, [sp, #20]
 8005932:	9302      	str	r3, [sp, #8]
 8005934:	9b06      	ldr	r3, [sp, #24]
 8005936:	9a07      	ldr	r2, [sp, #28]
 8005938:	4919      	ldr	r1, [pc, #100]	@ (80059a0 <vTaskStartScheduler+0x84>)
 800593a:	481a      	ldr	r0, [pc, #104]	@ (80059a4 <vTaskStartScheduler+0x88>)
 800593c:	e9cd 4300 	strd	r4, r3, [sp]
 8005940:	4623      	mov	r3, r4
 8005942:	f7ff ff85 	bl	8005850 <xTaskCreateStatic>
 8005946:	b340      	cbz	r0, 800599a <vTaskStartScheduler+0x7e>
 8005948:	f000 fb1e 	bl	8005f88 <xTimerCreateTimerTask>
 800594c:	2801      	cmp	r0, #1
 800594e:	d119      	bne.n	8005984 <vTaskStartScheduler+0x68>
 8005950:	f04f 0350 	mov.w	r3, #80	@ 0x50
 8005954:	f383 8811 	msr	BASEPRI, r3
 8005958:	f3bf 8f6f 	isb	sy
 800595c:	f3bf 8f4f 	dsb	sy
 8005960:	4b11      	ldr	r3, [pc, #68]	@ (80059a8 <vTaskStartScheduler+0x8c>)
 8005962:	4a12      	ldr	r2, [pc, #72]	@ (80059ac <vTaskStartScheduler+0x90>)
 8005964:	681b      	ldr	r3, [r3, #0]
 8005966:	3354      	adds	r3, #84	@ 0x54
 8005968:	6013      	str	r3, [r2, #0]
 800596a:	4b11      	ldr	r3, [pc, #68]	@ (80059b0 <vTaskStartScheduler+0x94>)
 800596c:	f04f 32ff 	mov.w	r2, #4294967295
 8005970:	601a      	str	r2, [r3, #0]
 8005972:	4b10      	ldr	r3, [pc, #64]	@ (80059b4 <vTaskStartScheduler+0x98>)
 8005974:	6018      	str	r0, [r3, #0]
 8005976:	4b10      	ldr	r3, [pc, #64]	@ (80059b8 <vTaskStartScheduler+0x9c>)
 8005978:	601c      	str	r4, [r3, #0]
 800597a:	b008      	add	sp, #32
 800597c:	e8bd 4010 	ldmia.w	sp!, {r4, lr}
 8005980:	f000 bd90 	b.w	80064a4 <xPortStartScheduler>
 8005984:	3001      	adds	r0, #1
 8005986:	d108      	bne.n	800599a <vTaskStartScheduler+0x7e>
 8005988:	f04f 0350 	mov.w	r3, #80	@ 0x50
 800598c:	f383 8811 	msr	BASEPRI, r3
 8005990:	f3bf 8f6f 	isb	sy
 8005994:	f3bf 8f4f 	dsb	sy
 8005998:	e7fe      	b.n	8005998 <vTaskStartScheduler+0x7c>
 800599a:	b008      	add	sp, #32
 800599c:	bd10      	pop	{r4, pc}
 800599e:	bf00      	nop
 80059a0:	08006c6f 	.word	0x08006c6f
 80059a4:	08005739 	.word	0x08005739
 80059a8:	20001b5c 	.word	0x20001b5c
 80059ac:	200001f4 	.word	0x200001f4
 80059b0:	20001668 	.word	0x20001668
 80059b4:	2000167c 	.word	0x2000167c
 80059b8:	20001684 	.word	0x20001684

080059bc <vTaskSuspendAll>:
 80059bc:	4a02      	ldr	r2, [pc, #8]	@ (80059c8 <vTaskSuspendAll+0xc>)
 80059be:	6813      	ldr	r3, [r2, #0]
 80059c0:	3301      	adds	r3, #1
 80059c2:	6013      	str	r3, [r2, #0]
 80059c4:	4770      	bx	lr
 80059c6:	bf00      	nop
 80059c8:	20001664 	.word	0x20001664

080059cc <xTaskGetTickCount>:
 80059cc:	4b01      	ldr	r3, [pc, #4]	@ (80059d4 <xTaskGetTickCount+0x8>)
 80059ce:	6818      	ldr	r0, [r3, #0]
 80059d0:	4770      	bx	lr
 80059d2:	bf00      	nop
 80059d4:	20001684 	.word	0x20001684

080059d8 <xTaskIncrementTick>:
 80059d8:	4b3f      	ldr	r3, [pc, #252]	@ (8005ad8 <xTaskIncrementTick+0x100>)
 80059da:	681b      	ldr	r3, [r3, #0]
 80059dc:	e92d 4ff7 	stmdb	sp!, {r0, r1, r2, r4, r5, r6, r7, r8, r9, sl, fp, lr}
 80059e0:	2b00      	cmp	r3, #0
 80059e2:	d172      	bne.n	8005aca <xTaskIncrementTick+0xf2>
 80059e4:	4b3d      	ldr	r3, [pc, #244]	@ (8005adc <xTaskIncrementTick+0x104>)
 80059e6:	681c      	ldr	r4, [r3, #0]
 80059e8:	3401      	adds	r4, #1
 80059ea:	601c      	str	r4, [r3, #0]
 80059ec:	b9bc      	cbnz	r4, 8005a1e <xTaskIncrementTick+0x46>
 80059ee:	4b3c      	ldr	r3, [pc, #240]	@ (8005ae0 <xTaskIncrementTick+0x108>)
 80059f0:	681a      	ldr	r2, [r3, #0]
 80059f2:	6812      	ldr	r2, [r2, #0]
 80059f4:	b142      	cbz	r2, 8005a08 <xTaskIncrementTick+0x30>
 80059f6:	f04f 0350 	mov.w	r3, #80	@ 0x50
 80059fa:	f383 8811 	msr	BASEPRI, r3
 80059fe:	f3bf 8f6f 	isb	sy
 8005a02:	f3bf 8f4f 	dsb	sy
 8005a06:	e7fe      	b.n	8005a06 <xTaskIncrementTick+0x2e>
 8005a08:	4a36      	ldr	r2, [pc, #216]	@ (8005ae4 <xTaskIncrementTick+0x10c>)
 8005a0a:	6819      	ldr	r1, [r3, #0]
 8005a0c:	6810      	ldr	r0, [r2, #0]
 8005a0e:	6018      	str	r0, [r3, #0]
 8005a10:	6011      	str	r1, [r2, #0]
 8005a12:	4a35      	ldr	r2, [pc, #212]	@ (8005ae8 <xTaskIncrementTick+0x110>)
 8005a14:	6813      	ldr	r3, [r2, #0]
 8005a16:	3301      	adds	r3, #1
 8005a18:	6013      	str	r3, [r2, #0]
 8005a1a:	f7ff fe5d 	bl	80056d8 <prvResetNextTaskUnblockTime>
 8005a1e:	4d33      	ldr	r5, [pc, #204]	@ (8005aec <xTaskIncrementTick+0x114>)
 8005a20:	4e33      	ldr	r6, [pc, #204]	@ (8005af0 <xTaskIncrementTick+0x118>)
 8005a22:	682b      	ldr	r3, [r5, #0]
 8005a24:	4f33      	ldr	r7, [pc, #204]	@ (8005af4 <xTaskIncrementTick+0x11c>)
 8005a26:	429c      	cmp	r4, r3
 8005a28:	f04f 0b00 	mov.w	fp, #0
 8005a2c:	d212      	bcs.n	8005a54 <xTaskIncrementTick+0x7c>
 8005a2e:	683a      	ldr	r2, [r7, #0]
 8005a30:	6ad2      	ldr	r2, [r2, #44]	@ 0x2c
 8005a32:	2114      	movs	r1, #20
 8005a34:	434a      	muls	r2, r1
 8005a36:	58b2      	ldr	r2, [r6, r2]
 8005a38:	2a02      	cmp	r2, #2
 8005a3a:	4a2f      	ldr	r2, [pc, #188]	@ (8005af8 <xTaskIncrementTick+0x120>)
 8005a3c:	6812      	ldr	r2, [r2, #0]
 8005a3e:	bf28      	it	cs
 8005a40:	f04f 0b01 	movcs.w	fp, #1
 8005a44:	2a00      	cmp	r2, #0
 8005a46:	bf18      	it	ne
 8005a48:	f04f 0b01 	movne.w	fp, #1
 8005a4c:	4658      	mov	r0, fp
 8005a4e:	b003      	add	sp, #12
 8005a50:	e8bd 8ff0 	ldmia.w	sp!, {r4, r5, r6, r7, r8, r9, sl, fp, pc}
 8005a54:	f8df 9088 	ldr.w	r9, [pc, #136]	@ 8005ae0 <xTaskIncrementTick+0x108>
 8005a58:	f8df a0a4 	ldr.w	sl, [pc, #164]	@ 8005b00 <xTaskIncrementTick+0x128>
 8005a5c:	f8d9 2000 	ldr.w	r2, [r9]
 8005a60:	6812      	ldr	r2, [r2, #0]
 8005a62:	b91a      	cbnz	r2, 8005a6c <xTaskIncrementTick+0x94>
 8005a64:	f04f 32ff 	mov.w	r2, #4294967295
 8005a68:	602a      	str	r2, [r5, #0]
 8005a6a:	e7e0      	b.n	8005a2e <xTaskIncrementTick+0x56>
 8005a6c:	f8d9 2000 	ldr.w	r2, [r9]
 8005a70:	68d2      	ldr	r2, [r2, #12]
 8005a72:	f8d2 800c 	ldr.w	r8, [r2, #12]
 8005a76:	f8d8 1004 	ldr.w	r1, [r8, #4]
 8005a7a:	428c      	cmp	r4, r1
 8005a7c:	d201      	bcs.n	8005a82 <xTaskIncrementTick+0xaa>
 8005a7e:	6029      	str	r1, [r5, #0]
 8005a80:	e7d5      	b.n	8005a2e <xTaskIncrementTick+0x56>
 8005a82:	f108 0304 	add.w	r3, r8, #4
 8005a86:	4618      	mov	r0, r3
 8005a88:	9301      	str	r3, [sp, #4]
 8005a8a:	f7ff fa63 	bl	8004f54 <uxListRemove>
 8005a8e:	f8d8 1028 	ldr.w	r1, [r8, #40]	@ 0x28
 8005a92:	b119      	cbz	r1, 8005a9c <xTaskIncrementTick+0xc4>
 8005a94:	f108 0018 	add.w	r0, r8, #24
 8005a98:	f7ff fa5c 	bl	8004f54 <uxListRemove>
 8005a9c:	f8d8 002c 	ldr.w	r0, [r8, #44]	@ 0x2c
 8005aa0:	f8da 1000 	ldr.w	r1, [sl]
 8005aa4:	2314      	movs	r3, #20
 8005aa6:	4288      	cmp	r0, r1
 8005aa8:	bf88      	it	hi
 8005aaa:	f8ca 0000 	strhi.w	r0, [sl]
 8005aae:	9901      	ldr	r1, [sp, #4]
 8005ab0:	fb03 6000 	mla	r0, r3, r0, r6
 8005ab4:	f7ff fa2c 	bl	8004f10 <vListInsertEnd>
 8005ab8:	6838      	ldr	r0, [r7, #0]
 8005aba:	f8d8 102c 	ldr.w	r1, [r8, #44]	@ 0x2c
 8005abe:	6ac2      	ldr	r2, [r0, #44]	@ 0x2c
 8005ac0:	4291      	cmp	r1, r2
 8005ac2:	bf28      	it	cs
 8005ac4:	f04f 0b01 	movcs.w	fp, #1
 8005ac8:	e7c8      	b.n	8005a5c <xTaskIncrementTick+0x84>
 8005aca:	4a0c      	ldr	r2, [pc, #48]	@ (8005afc <xTaskIncrementTick+0x124>)
 8005acc:	6813      	ldr	r3, [r2, #0]
 8005ace:	3301      	adds	r3, #1
 8005ad0:	6013      	str	r3, [r2, #0]
 8005ad2:	f04f 0b00 	mov.w	fp, #0
 8005ad6:	e7b9      	b.n	8005a4c <xTaskIncrementTick+0x74>
 8005ad8:	20001664 	.word	0x20001664
 8005adc:	20001684 	.word	0x20001684
 8005ae0:	200016d0 	.word	0x200016d0
 8005ae4:	200016cc 	.word	0x200016cc
 8005ae8:	20001670 	.word	0x20001670
 8005aec:	20001668 	.word	0x20001668
 8005af0:	200016fc 	.word	0x200016fc
 8005af4:	20001b5c 	.word	0x20001b5c
 8005af8:	20001674 	.word	0x20001674
 8005afc:	20001678 	.word	0x20001678
 8005b00:	20001680 	.word	0x20001680

08005b04 <xTaskResumeAll>:
 8005b04:	e92d 41f0 	stmdb	sp!, {r4, r5, r6, r7, r8, lr}
 8005b08:	4c30      	ldr	r4, [pc, #192]	@ (8005bcc <xTaskResumeAll+0xc8>)
 8005b0a:	6823      	ldr	r3, [r4, #0]
 8005b0c:	b943      	cbnz	r3, 8005b20 <xTaskResumeAll+0x1c>
 8005b0e:	f04f 0350 	mov.w	r3, #80	@ 0x50
 8005b12:	f383 8811 	msr	BASEPRI, r3
 8005b16:	f3bf 8f6f 	isb	sy
 8005b1a:	f3bf 8f4f 	dsb	sy
 8005b1e:	e7fe      	b.n	8005b1e <xTaskResumeAll+0x1a>
 8005b20:	f000 fc30 	bl	8006384 <vPortEnterCritical>
 8005b24:	6823      	ldr	r3, [r4, #0]
 8005b26:	3b01      	subs	r3, #1
 8005b28:	6023      	str	r3, [r4, #0]
 8005b2a:	6824      	ldr	r4, [r4, #0]
 8005b2c:	b12c      	cbz	r4, 8005b3a <xTaskResumeAll+0x36>
 8005b2e:	2400      	movs	r4, #0
 8005b30:	f000 fc48 	bl	80063c4 <vPortExitCritical>
 8005b34:	4620      	mov	r0, r4
 8005b36:	e8bd 81f0 	ldmia.w	sp!, {r4, r5, r6, r7, r8, pc}
 8005b3a:	4b25      	ldr	r3, [pc, #148]	@ (8005bd0 <xTaskResumeAll+0xcc>)
 8005b3c:	681b      	ldr	r3, [r3, #0]
 8005b3e:	2b00      	cmp	r3, #0
 8005b40:	d0f5      	beq.n	8005b2e <xTaskResumeAll+0x2a>
 8005b42:	4d24      	ldr	r5, [pc, #144]	@ (8005bd4 <xTaskResumeAll+0xd0>)
 8005b44:	4e24      	ldr	r6, [pc, #144]	@ (8005bd8 <xTaskResumeAll+0xd4>)
 8005b46:	f8df 80a0 	ldr.w	r8, [pc, #160]	@ 8005be8 <xTaskResumeAll+0xe4>
 8005b4a:	e01d      	b.n	8005b88 <xTaskResumeAll+0x84>
 8005b4c:	68eb      	ldr	r3, [r5, #12]
 8005b4e:	68dc      	ldr	r4, [r3, #12]
 8005b50:	1d27      	adds	r7, r4, #4
 8005b52:	f104 0018 	add.w	r0, r4, #24
 8005b56:	f7ff f9fd 	bl	8004f54 <uxListRemove>
 8005b5a:	4638      	mov	r0, r7
 8005b5c:	f7ff f9fa 	bl	8004f54 <uxListRemove>
 8005b60:	6ae3      	ldr	r3, [r4, #44]	@ 0x2c
 8005b62:	6832      	ldr	r2, [r6, #0]
 8005b64:	2014      	movs	r0, #20
 8005b66:	4293      	cmp	r3, r2
 8005b68:	fb00 8003 	mla	r0, r0, r3, r8
 8005b6c:	4639      	mov	r1, r7
 8005b6e:	bf88      	it	hi
 8005b70:	6033      	strhi	r3, [r6, #0]
 8005b72:	f7ff f9cd 	bl	8004f10 <vListInsertEnd>
 8005b76:	4b19      	ldr	r3, [pc, #100]	@ (8005bdc <xTaskResumeAll+0xd8>)
 8005b78:	6ae2      	ldr	r2, [r4, #44]	@ 0x2c
 8005b7a:	681b      	ldr	r3, [r3, #0]
 8005b7c:	6adb      	ldr	r3, [r3, #44]	@ 0x2c
 8005b7e:	429a      	cmp	r2, r3
 8005b80:	d302      	bcc.n	8005b88 <xTaskResumeAll+0x84>
 8005b82:	4b17      	ldr	r3, [pc, #92]	@ (8005be0 <xTaskResumeAll+0xdc>)
 8005b84:	2201      	movs	r2, #1
 8005b86:	601a      	str	r2, [r3, #0]
 8005b88:	682b      	ldr	r3, [r5, #0]
 8005b8a:	2b00      	cmp	r3, #0
 8005b8c:	d1de      	bne.n	8005b4c <xTaskResumeAll+0x48>
 8005b8e:	b10c      	cbz	r4, 8005b94 <xTaskResumeAll+0x90>
 8005b90:	f7ff fda2 	bl	80056d8 <prvResetNextTaskUnblockTime>
 8005b94:	4d13      	ldr	r5, [pc, #76]	@ (8005be4 <xTaskResumeAll+0xe0>)
 8005b96:	682c      	ldr	r4, [r5, #0]
 8005b98:	b144      	cbz	r4, 8005bac <xTaskResumeAll+0xa8>
 8005b9a:	4e11      	ldr	r6, [pc, #68]	@ (8005be0 <xTaskResumeAll+0xdc>)
 8005b9c:	2701      	movs	r7, #1
 8005b9e:	f7ff ff1b 	bl	80059d8 <xTaskIncrementTick>
 8005ba2:	b100      	cbz	r0, 8005ba6 <xTaskResumeAll+0xa2>
 8005ba4:	6037      	str	r7, [r6, #0]
 8005ba6:	3c01      	subs	r4, #1
 8005ba8:	d1f9      	bne.n	8005b9e <xTaskResumeAll+0x9a>
 8005baa:	602c      	str	r4, [r5, #0]
 8005bac:	4b0c      	ldr	r3, [pc, #48]	@ (8005be0 <xTaskResumeAll+0xdc>)
 8005bae:	681b      	ldr	r3, [r3, #0]
 8005bb0:	2b00      	cmp	r3, #0
 8005bb2:	d0bc      	beq.n	8005b2e <xTaskResumeAll+0x2a>
 8005bb4:	f04f 23e0 	mov.w	r3, #3758153728	@ 0xe000e000
 8005bb8:	f04f 5280 	mov.w	r2, #268435456	@ 0x10000000
 8005bbc:	f8c3 2d04 	str.w	r2, [r3, #3332]	@ 0xd04
 8005bc0:	f3bf 8f4f 	dsb	sy
 8005bc4:	f3bf 8f6f 	isb	sy
 8005bc8:	2401      	movs	r4, #1
 8005bca:	e7b1      	b.n	8005b30 <xTaskResumeAll+0x2c>
 8005bcc:	20001664 	.word	0x20001664
 8005bd0:	20001688 	.word	0x20001688
 8005bd4:	200016b8 	.word	0x200016b8
 8005bd8:	20001680 	.word	0x20001680
 8005bdc:	20001b5c 	.word	0x20001b5c
 8005be0:	20001674 	.word	0x20001674
 8005be4:	20001678 	.word	0x20001678
 8005be8:	200016fc 	.word	0x200016fc

08005bec <vTaskDelay>:
 8005bec:	b508      	push	{r3, lr}
 8005bee:	b950      	cbnz	r0, 8005c06 <vTaskDelay+0x1a>
 8005bf0:	f04f 23e0 	mov.w	r3, #3758153728	@ 0xe000e000
 8005bf4:	f04f 5280 	mov.w	r2, #268435456	@ 0x10000000
 8005bf8:	f8c3 2d04 	str.w	r2, [r3, #3332]	@ 0xd04
 8005bfc:	f3bf 8f4f 	dsb	sy
 8005c00:	f3bf 8f6f 	isb	sy
 8005c04:	bd08      	pop	{r3, pc}
 8005c06:	4b0a      	ldr	r3, [pc, #40]	@ (8005c30 <vTaskDelay+0x44>)
 8005c08:	6819      	ldr	r1, [r3, #0]
 8005c0a:	b141      	cbz	r1, 8005c1e <vTaskDelay+0x32>
 8005c0c:	f04f 0350 	mov.w	r3, #80	@ 0x50
 8005c10:	f383 8811 	msr	BASEPRI, r3
 8005c14:	f3bf 8f6f 	isb	sy
 8005c18:	f3bf 8f4f 	dsb	sy
 8005c1c:	e7fe      	b.n	8005c1c <vTaskDelay+0x30>
 8005c1e:	f7ff fecd 	bl	80059bc <vTaskSuspendAll>
 8005c22:	f7ff fd21 	bl	8005668 <prvAddCurrentTaskToDelayedList>
 8005c26:	f7ff ff6d 	bl	8005b04 <xTaskResumeAll>
 8005c2a:	2800      	cmp	r0, #0
 8005c2c:	d0e0      	beq.n	8005bf0 <vTaskDelay+0x4>
 8005c2e:	e7e9      	b.n	8005c04 <vTaskDelay+0x18>
 8005c30:	20001664 	.word	0x20001664

08005c34 <vTaskSwitchContext>:
 8005c34:	4b19      	ldr	r3, [pc, #100]	@ (8005c9c <vTaskSwitchContext+0x68>)
 8005c36:	681a      	ldr	r2, [r3, #0]
 8005c38:	4b19      	ldr	r3, [pc, #100]	@ (8005ca0 <vTaskSwitchContext+0x6c>)
 8005c3a:	b570      	push	{r4, r5, r6, lr}
 8005c3c:	b112      	cbz	r2, 8005c44 <vTaskSwitchContext+0x10>
 8005c3e:	2201      	movs	r2, #1
 8005c40:	601a      	str	r2, [r3, #0]
 8005c42:	bd70      	pop	{r4, r5, r6, pc}
 8005c44:	4d17      	ldr	r5, [pc, #92]	@ (8005ca4 <vTaskSwitchContext+0x70>)
 8005c46:	601a      	str	r2, [r3, #0]
 8005c48:	682a      	ldr	r2, [r5, #0]
 8005c4a:	4917      	ldr	r1, [pc, #92]	@ (8005ca8 <vTaskSwitchContext+0x74>)
 8005c4c:	2614      	movs	r6, #20
 8005c4e:	fb06 f302 	mul.w	r3, r6, r2
 8005c52:	18c8      	adds	r0, r1, r3
 8005c54:	58cc      	ldr	r4, [r1, r3]
 8005c56:	b1ac      	cbz	r4, 8005c84 <vTaskSwitchContext+0x50>
 8005c58:	6844      	ldr	r4, [r0, #4]
 8005c5a:	3308      	adds	r3, #8
 8005c5c:	6864      	ldr	r4, [r4, #4]
 8005c5e:	6044      	str	r4, [r0, #4]
 8005c60:	440b      	add	r3, r1
 8005c62:	429c      	cmp	r4, r3
 8005c64:	bf04      	itt	eq
 8005c66:	6863      	ldreq	r3, [r4, #4]
 8005c68:	6043      	streq	r3, [r0, #4]
 8005c6a:	2314      	movs	r3, #20
 8005c6c:	fb03 1102 	mla	r1, r3, r2, r1
 8005c70:	684b      	ldr	r3, [r1, #4]
 8005c72:	68d9      	ldr	r1, [r3, #12]
 8005c74:	4b0d      	ldr	r3, [pc, #52]	@ (8005cac <vTaskSwitchContext+0x78>)
 8005c76:	6019      	str	r1, [r3, #0]
 8005c78:	602a      	str	r2, [r5, #0]
 8005c7a:	681b      	ldr	r3, [r3, #0]
 8005c7c:	4a0c      	ldr	r2, [pc, #48]	@ (8005cb0 <vTaskSwitchContext+0x7c>)
 8005c7e:	3354      	adds	r3, #84	@ 0x54
 8005c80:	6013      	str	r3, [r2, #0]
 8005c82:	e7de      	b.n	8005c42 <vTaskSwitchContext+0xe>
 8005c84:	b942      	cbnz	r2, 8005c98 <vTaskSwitchContext+0x64>
 8005c86:	f04f 0350 	mov.w	r3, #80	@ 0x50
 8005c8a:	f383 8811 	msr	BASEPRI, r3
 8005c8e:	f3bf 8f6f 	isb	sy
 8005c92:	f3bf 8f4f 	dsb	sy
 8005c96:	e7fe      	b.n	8005c96 <vTaskSwitchContext+0x62>
 8005c98:	3a01      	subs	r2, #1
 8005c9a:	e7d8      	b.n	8005c4e <vTaskSwitchContext+0x1a>
 8005c9c:	20001664 	.word	0x20001664
 8005ca0:	20001674 	.word	0x20001674
 8005ca4:	20001680 	.word	0x20001680
 8005ca8:	200016fc 	.word	0x200016fc
 8005cac:	20001b5c 	.word	0x20001b5c
 8005cb0:	200001f4 	.word	0x200001f4

08005cb4 <vTaskPlaceOnEventList>:
 8005cb4:	b510      	push	{r4, lr}
 8005cb6:	460c      	mov	r4, r1
 8005cb8:	b940      	cbnz	r0, 8005ccc <vTaskPlaceOnEventList+0x18>
 8005cba:	f04f 0350 	mov.w	r3, #80	@ 0x50
 8005cbe:	f383 8811 	msr	BASEPRI, r3
 8005cc2:	f3bf 8f6f 	isb	sy
 8005cc6:	f3bf 8f4f 	dsb	sy
 8005cca:	e7fe      	b.n	8005cca <vTaskPlaceOnEventList+0x16>
 8005ccc:	4b05      	ldr	r3, [pc, #20]	@ (8005ce4 <vTaskPlaceOnEventList+0x30>)
 8005cce:	6819      	ldr	r1, [r3, #0]
 8005cd0:	3118      	adds	r1, #24
 8005cd2:	f7ff f928 	bl	8004f26 <vListInsert>
 8005cd6:	4620      	mov	r0, r4
 8005cd8:	2101      	movs	r1, #1
 8005cda:	e8bd 4010 	ldmia.w	sp!, {r4, lr}
 8005cde:	f7ff bcc3 	b.w	8005668 <prvAddCurrentTaskToDelayedList>
 8005ce2:	bf00      	nop
 8005ce4:	20001b5c 	.word	0x20001b5c

08005ce8 <vTaskPlaceOnEventListRestricted>:
 8005ce8:	b538      	push	{r3, r4, r5, lr}
 8005cea:	460d      	mov	r5, r1
 8005cec:	4614      	mov	r4, r2
 8005cee:	b940      	cbnz	r0, 8005d02 <vTaskPlaceOnEventListRestricted+0x1a>
 8005cf0:	f04f 0350 	mov.w	r3, #80	@ 0x50
 8005cf4:	f383 8811 	msr	BASEPRI, r3
 8005cf8:	f3bf 8f6f 	isb	sy
 8005cfc:	f3bf 8f4f 	dsb	sy
 8005d00:	e7fe      	b.n	8005d00 <vTaskPlaceOnEventListRestricted+0x18>
 8005d02:	4b07      	ldr	r3, [pc, #28]	@ (8005d20 <vTaskPlaceOnEventListRestricted+0x38>)
 8005d04:	6819      	ldr	r1, [r3, #0]
 8005d06:	3118      	adds	r1, #24
 8005d08:	f7ff f902 	bl	8004f10 <vListInsertEnd>
 8005d0c:	2c00      	cmp	r4, #0
 8005d0e:	4621      	mov	r1, r4
 8005d10:	bf0c      	ite	eq
 8005d12:	4628      	moveq	r0, r5
 8005d14:	f04f 30ff 	movne.w	r0, #4294967295
 8005d18:	e8bd 4038 	ldmia.w	sp!, {r3, r4, r5, lr}
 8005d1c:	f7ff bca4 	b.w	8005668 <prvAddCurrentTaskToDelayedList>
 8005d20:	20001b5c 	.word	0x20001b5c

08005d24 <xTaskRemoveFromEventList>:
 8005d24:	b538      	push	{r3, r4, r5, lr}
 8005d26:	68c3      	ldr	r3, [r0, #12]
 8005d28:	68dc      	ldr	r4, [r3, #12]
 8005d2a:	b944      	cbnz	r4, 8005d3e <xTaskRemoveFromEventList+0x1a>
 8005d2c:	f04f 0350 	mov.w	r3, #80	@ 0x50
 8005d30:	f383 8811 	msr	BASEPRI, r3
 8005d34:	f3bf 8f6f 	isb	sy
 8005d38:	f3bf 8f4f 	dsb	sy
 8005d3c:	e7fe      	b.n	8005d3c <xTaskRemoveFromEventList+0x18>
 8005d3e:	f104 0518 	add.w	r5, r4, #24
 8005d42:	4628      	mov	r0, r5
 8005d44:	f7ff f906 	bl	8004f54 <uxListRemove>
 8005d48:	4b10      	ldr	r3, [pc, #64]	@ (8005d8c <xTaskRemoveFromEventList+0x68>)
 8005d4a:	681b      	ldr	r3, [r3, #0]
 8005d4c:	b9db      	cbnz	r3, 8005d86 <xTaskRemoveFromEventList+0x62>
 8005d4e:	1d25      	adds	r5, r4, #4
 8005d50:	4628      	mov	r0, r5
 8005d52:	f7ff f8ff 	bl	8004f54 <uxListRemove>
 8005d56:	4a0e      	ldr	r2, [pc, #56]	@ (8005d90 <xTaskRemoveFromEventList+0x6c>)
 8005d58:	6ae3      	ldr	r3, [r4, #44]	@ 0x2c
 8005d5a:	6811      	ldr	r1, [r2, #0]
 8005d5c:	428b      	cmp	r3, r1
 8005d5e:	bf88      	it	hi
 8005d60:	6013      	strhi	r3, [r2, #0]
 8005d62:	4a0c      	ldr	r2, [pc, #48]	@ (8005d94 <xTaskRemoveFromEventList+0x70>)
 8005d64:	2014      	movs	r0, #20
 8005d66:	4629      	mov	r1, r5
 8005d68:	fb00 2003 	mla	r0, r0, r3, r2
 8005d6c:	f7ff f8d0 	bl	8004f10 <vListInsertEnd>
 8005d70:	4b09      	ldr	r3, [pc, #36]	@ (8005d98 <xTaskRemoveFromEventList+0x74>)
 8005d72:	6ae2      	ldr	r2, [r4, #44]	@ 0x2c
 8005d74:	681b      	ldr	r3, [r3, #0]
 8005d76:	6adb      	ldr	r3, [r3, #44]	@ 0x2c
 8005d78:	429a      	cmp	r2, r3
 8005d7a:	bf83      	ittte	hi
 8005d7c:	4b07      	ldrhi	r3, [pc, #28]	@ (8005d9c <xTaskRemoveFromEventList+0x78>)
 8005d7e:	2001      	movhi	r0, #1
 8005d80:	6018      	strhi	r0, [r3, #0]
 8005d82:	2000      	movls	r0, #0
 8005d84:	bd38      	pop	{r3, r4, r5, pc}
 8005d86:	4806      	ldr	r0, [pc, #24]	@ (8005da0 <xTaskRemoveFromEventList+0x7c>)
 8005d88:	4629      	mov	r1, r5
 8005d8a:	e7ef      	b.n	8005d6c <xTaskRemoveFromEventList+0x48>
 8005d8c:	20001664 	.word	0x20001664
 8005d90:	20001680 	.word	0x20001680
 8005d94:	200016fc 	.word	0x200016fc
 8005d98:	20001b5c 	.word	0x20001b5c
 8005d9c:	20001674 	.word	0x20001674
 8005da0:	200016b8 	.word	0x200016b8

08005da4 <vTaskInternalSetTimeOutState>:
 8005da4:	4b03      	ldr	r3, [pc, #12]	@ (8005db4 <vTaskInternalSetTimeOutState+0x10>)
 8005da6:	681b      	ldr	r3, [r3, #0]
 8005da8:	6003      	str	r3, [r0, #0]
 8005daa:	4b03      	ldr	r3, [pc, #12]	@ (8005db8 <vTaskInternalSetTimeOutState+0x14>)
 8005dac:	681b      	ldr	r3, [r3, #0]
 8005dae:	6043      	str	r3, [r0, #4]
 8005db0:	4770      	bx	lr
 8005db2:	bf00      	nop
 8005db4:	20001670 	.word	0x20001670
 8005db8:	20001684 	.word	0x20001684

08005dbc <xTaskCheckForTimeOut>:
 8005dbc:	b570      	push	{r4, r5, r6, lr}
 8005dbe:	460c      	mov	r4, r1
 8005dc0:	4605      	mov	r5, r0
 8005dc2:	b940      	cbnz	r0, 8005dd6 <xTaskCheckForTimeOut+0x1a>
 8005dc4:	f04f 0350 	mov.w	r3, #80	@ 0x50
 8005dc8:	f383 8811 	msr	BASEPRI, r3
 8005dcc:	f3bf 8f6f 	isb	sy
 8005dd0:	f3bf 8f4f 	dsb	sy
 8005dd4:	e7fe      	b.n	8005dd4 <xTaskCheckForTimeOut+0x18>
 8005dd6:	b941      	cbnz	r1, 8005dea <xTaskCheckForTimeOut+0x2e>
 8005dd8:	f04f 0350 	mov.w	r3, #80	@ 0x50
 8005ddc:	f383 8811 	msr	BASEPRI, r3
 8005de0:	f3bf 8f6f 	isb	sy
 8005de4:	f3bf 8f4f 	dsb	sy
 8005de8:	e7fe      	b.n	8005de8 <xTaskCheckForTimeOut+0x2c>
 8005dea:	f000 facb 	bl	8006384 <vPortEnterCritical>
 8005dee:	4b0f      	ldr	r3, [pc, #60]	@ (8005e2c <xTaskCheckForTimeOut+0x70>)
 8005df0:	6819      	ldr	r1, [r3, #0]
 8005df2:	6823      	ldr	r3, [r4, #0]
 8005df4:	1c5a      	adds	r2, r3, #1
 8005df6:	d010      	beq.n	8005e1a <xTaskCheckForTimeOut+0x5e>
 8005df8:	480d      	ldr	r0, [pc, #52]	@ (8005e30 <xTaskCheckForTimeOut+0x74>)
 8005dfa:	682e      	ldr	r6, [r5, #0]
 8005dfc:	6800      	ldr	r0, [r0, #0]
 8005dfe:	686a      	ldr	r2, [r5, #4]
 8005e00:	4286      	cmp	r6, r0
 8005e02:	d001      	beq.n	8005e08 <xTaskCheckForTimeOut+0x4c>
 8005e04:	428a      	cmp	r2, r1
 8005e06:	d90f      	bls.n	8005e28 <xTaskCheckForTimeOut+0x6c>
 8005e08:	1a88      	subs	r0, r1, r2
 8005e0a:	4283      	cmp	r3, r0
 8005e0c:	d90a      	bls.n	8005e24 <xTaskCheckForTimeOut+0x68>
 8005e0e:	1a5b      	subs	r3, r3, r1
 8005e10:	4413      	add	r3, r2
 8005e12:	6023      	str	r3, [r4, #0]
 8005e14:	4628      	mov	r0, r5
 8005e16:	f7ff ffc5 	bl	8005da4 <vTaskInternalSetTimeOutState>
 8005e1a:	2400      	movs	r4, #0
 8005e1c:	f000 fad2 	bl	80063c4 <vPortExitCritical>
 8005e20:	4620      	mov	r0, r4
 8005e22:	bd70      	pop	{r4, r5, r6, pc}
 8005e24:	2300      	movs	r3, #0
 8005e26:	6023      	str	r3, [r4, #0]
 8005e28:	2401      	movs	r4, #1
 8005e2a:	e7f7      	b.n	8005e1c <xTaskCheckForTimeOut+0x60>
 8005e2c:	20001684 	.word	0x20001684
 8005e30:	20001670 	.word	0x20001670

08005e34 <vTaskMissedYield>:
 8005e34:	4b01      	ldr	r3, [pc, #4]	@ (8005e3c <vTaskMissedYield+0x8>)
 8005e36:	2201      	movs	r2, #1
 8005e38:	601a      	str	r2, [r3, #0]
 8005e3a:	4770      	bx	lr
 8005e3c:	20001674 	.word	0x20001674

08005e40 <xTaskGetSchedulerState>:
 8005e40:	4b05      	ldr	r3, [pc, #20]	@ (8005e58 <xTaskGetSchedulerState+0x18>)
 8005e42:	681b      	ldr	r3, [r3, #0]
 8005e44:	b133      	cbz	r3, 8005e54 <xTaskGetSchedulerState+0x14>
 8005e46:	4b05      	ldr	r3, [pc, #20]	@ (8005e5c <xTaskGetSchedulerState+0x1c>)
 8005e48:	6818      	ldr	r0, [r3, #0]
 8005e4a:	fab0 f080 	clz	r0, r0
 8005e4e:	0940      	lsrs	r0, r0, #5
 8005e50:	0040      	lsls	r0, r0, #1
 8005e52:	4770      	bx	lr
 8005e54:	2001      	movs	r0, #1
 8005e56:	4770      	bx	lr
 8005e58:	2000167c 	.word	0x2000167c
 8005e5c:	20001664 	.word	0x20001664

08005e60 <xTaskPriorityDisinherit>:
 8005e60:	b538      	push	{r3, r4, r5, lr}
 8005e62:	b908      	cbnz	r0, 8005e68 <xTaskPriorityDisinherit+0x8>
 8005e64:	2000      	movs	r0, #0
 8005e66:	bd38      	pop	{r3, r4, r5, pc}
 8005e68:	4b1b      	ldr	r3, [pc, #108]	@ (8005ed8 <xTaskPriorityDisinherit+0x78>)
 8005e6a:	681c      	ldr	r4, [r3, #0]
 8005e6c:	4284      	cmp	r4, r0
 8005e6e:	d008      	beq.n	8005e82 <xTaskPriorityDisinherit+0x22>
 8005e70:	f04f 0350 	mov.w	r3, #80	@ 0x50
 8005e74:	f383 8811 	msr	BASEPRI, r3
 8005e78:	f3bf 8f6f 	isb	sy
 8005e7c:	f3bf 8f4f 	dsb	sy
 8005e80:	e7fe      	b.n	8005e80 <xTaskPriorityDisinherit+0x20>
 8005e82:	6d23      	ldr	r3, [r4, #80]	@ 0x50
 8005e84:	b943      	cbnz	r3, 8005e98 <xTaskPriorityDisinherit+0x38>
 8005e86:	f04f 0350 	mov.w	r3, #80	@ 0x50
 8005e8a:	f383 8811 	msr	BASEPRI, r3
 8005e8e:	f3bf 8f6f 	isb	sy
 8005e92:	f3bf 8f4f 	dsb	sy
 8005e96:	e7fe      	b.n	8005e96 <xTaskPriorityDisinherit+0x36>
 8005e98:	6ae1      	ldr	r1, [r4, #44]	@ 0x2c
 8005e9a:	6ce2      	ldr	r2, [r4, #76]	@ 0x4c
 8005e9c:	3b01      	subs	r3, #1
 8005e9e:	4291      	cmp	r1, r2
 8005ea0:	6523      	str	r3, [r4, #80]	@ 0x50
 8005ea2:	d0df      	beq.n	8005e64 <xTaskPriorityDisinherit+0x4>
 8005ea4:	2b00      	cmp	r3, #0
 8005ea6:	d1dd      	bne.n	8005e64 <xTaskPriorityDisinherit+0x4>
 8005ea8:	1d25      	adds	r5, r4, #4
 8005eaa:	4628      	mov	r0, r5
 8005eac:	f7ff f852 	bl	8004f54 <uxListRemove>
 8005eb0:	6ce3      	ldr	r3, [r4, #76]	@ 0x4c
 8005eb2:	62e3      	str	r3, [r4, #44]	@ 0x2c
 8005eb4:	f1c3 0238 	rsb	r2, r3, #56	@ 0x38
 8005eb8:	61a2      	str	r2, [r4, #24]
 8005eba:	4a08      	ldr	r2, [pc, #32]	@ (8005edc <xTaskPriorityDisinherit+0x7c>)
 8005ebc:	6811      	ldr	r1, [r2, #0]
 8005ebe:	428b      	cmp	r3, r1
 8005ec0:	bf88      	it	hi
 8005ec2:	6013      	strhi	r3, [r2, #0]
 8005ec4:	4a06      	ldr	r2, [pc, #24]	@ (8005ee0 <xTaskPriorityDisinherit+0x80>)
 8005ec6:	2014      	movs	r0, #20
 8005ec8:	fb00 2003 	mla	r0, r0, r3, r2
 8005ecc:	4629      	mov	r1, r5
 8005ece:	f7ff f81f 	bl	8004f10 <vListInsertEnd>
 8005ed2:	2001      	movs	r0, #1
 8005ed4:	e7c7      	b.n	8005e66 <xTaskPriorityDisinherit+0x6>
 8005ed6:	bf00      	nop
 8005ed8:	20001b5c 	.word	0x20001b5c
 8005edc:	20001680 	.word	0x20001680
 8005ee0:	200016fc 	.word	0x200016fc

08005ee4 <prvInsertTimerInActiveList>:
 8005ee4:	4291      	cmp	r1, r2
 8005ee6:	b508      	push	{r3, lr}
 8005ee8:	6041      	str	r1, [r0, #4]
 8005eea:	6100      	str	r0, [r0, #16]
 8005eec:	d80a      	bhi.n	8005f04 <prvInsertTimerInActiveList+0x20>
 8005eee:	1ad2      	subs	r2, r2, r3
 8005ef0:	6983      	ldr	r3, [r0, #24]
 8005ef2:	429a      	cmp	r2, r3
 8005ef4:	d20d      	bcs.n	8005f12 <prvInsertTimerInActiveList+0x2e>
 8005ef6:	4b08      	ldr	r3, [pc, #32]	@ (8005f18 <prvInsertTimerInActiveList+0x34>)
 8005ef8:	1d01      	adds	r1, r0, #4
 8005efa:	6818      	ldr	r0, [r3, #0]
 8005efc:	f7ff f813 	bl	8004f26 <vListInsert>
 8005f00:	2000      	movs	r0, #0
 8005f02:	bd08      	pop	{r3, pc}
 8005f04:	429a      	cmp	r2, r3
 8005f06:	d201      	bcs.n	8005f0c <prvInsertTimerInActiveList+0x28>
 8005f08:	4299      	cmp	r1, r3
 8005f0a:	d202      	bcs.n	8005f12 <prvInsertTimerInActiveList+0x2e>
 8005f0c:	4b03      	ldr	r3, [pc, #12]	@ (8005f1c <prvInsertTimerInActiveList+0x38>)
 8005f0e:	1d01      	adds	r1, r0, #4
 8005f10:	e7f3      	b.n	8005efa <prvInsertTimerInActiveList+0x16>
 8005f12:	2001      	movs	r0, #1
 8005f14:	e7f5      	b.n	8005f02 <prvInsertTimerInActiveList+0x1e>
 8005f16:	bf00      	nop
 8005f18:	20001c5c 	.word	0x20001c5c
 8005f1c:	20001c60 	.word	0x20001c60

08005f20 <prvCheckForValidListAndQueue>:
 8005f20:	b5f7      	push	{r0, r1, r2, r4, r5, r6, r7, lr}
 8005f22:	4c11      	ldr	r4, [pc, #68]	@ (8005f68 <prvCheckForValidListAndQueue+0x48>)
 8005f24:	f000 fa2e 	bl	8006384 <vPortEnterCritical>
 8005f28:	6825      	ldr	r5, [r4, #0]
 8005f2a:	b9bd      	cbnz	r5, 8005f5c <prvCheckForValidListAndQueue+0x3c>
 8005f2c:	4f0f      	ldr	r7, [pc, #60]	@ (8005f6c <prvCheckForValidListAndQueue+0x4c>)
 8005f2e:	4e10      	ldr	r6, [pc, #64]	@ (8005f70 <prvCheckForValidListAndQueue+0x50>)
 8005f30:	4638      	mov	r0, r7
 8005f32:	f7fe ffdf 	bl	8004ef4 <vListInitialise>
 8005f36:	4630      	mov	r0, r6
 8005f38:	f7fe ffdc 	bl	8004ef4 <vListInitialise>
 8005f3c:	4b0d      	ldr	r3, [pc, #52]	@ (8005f74 <prvCheckForValidListAndQueue+0x54>)
 8005f3e:	4a0e      	ldr	r2, [pc, #56]	@ (8005f78 <prvCheckForValidListAndQueue+0x58>)
 8005f40:	601f      	str	r7, [r3, #0]
 8005f42:	4b0e      	ldr	r3, [pc, #56]	@ (8005f7c <prvCheckForValidListAndQueue+0x5c>)
 8005f44:	2110      	movs	r1, #16
 8005f46:	601e      	str	r6, [r3, #0]
 8005f48:	200a      	movs	r0, #10
 8005f4a:	4b0d      	ldr	r3, [pc, #52]	@ (8005f80 <prvCheckForValidListAndQueue+0x60>)
 8005f4c:	9500      	str	r5, [sp, #0]
 8005f4e:	f7ff f8da 	bl	8005106 <xQueueGenericCreateStatic>
 8005f52:	6020      	str	r0, [r4, #0]
 8005f54:	b110      	cbz	r0, 8005f5c <prvCheckForValidListAndQueue+0x3c>
 8005f56:	490b      	ldr	r1, [pc, #44]	@ (8005f84 <prvCheckForValidListAndQueue+0x64>)
 8005f58:	f7ff fad0 	bl	80054fc <vQueueAddToRegistry>
 8005f5c:	b003      	add	sp, #12
 8005f5e:	e8bd 40f0 	ldmia.w	sp!, {r4, r5, r6, r7, lr}
 8005f62:	f000 ba2f 	b.w	80063c4 <vPortExitCritical>
 8005f66:	bf00      	nop
 8005f68:	20001c58 	.word	0x20001c58
 8005f6c:	20001c78 	.word	0x20001c78
 8005f70:	20001c64 	.word	0x20001c64
 8005f74:	20001c60 	.word	0x20001c60
 8005f78:	20001bb0 	.word	0x20001bb0
 8005f7c:	20001c5c 	.word	0x20001c5c
 8005f80:	20001b60 	.word	0x20001b60
 8005f84:	08006c74 	.word	0x08006c74

08005f88 <xTimerCreateTimerTask>:
 8005f88:	b510      	push	{r4, lr}
 8005f8a:	b088      	sub	sp, #32
 8005f8c:	f7ff ffc8 	bl	8005f20 <prvCheckForValidListAndQueue>
 8005f90:	4b12      	ldr	r3, [pc, #72]	@ (8005fdc <xTimerCreateTimerTask+0x54>)
 8005f92:	681b      	ldr	r3, [r3, #0]
 8005f94:	b1b3      	cbz	r3, 8005fc4 <xTimerCreateTimerTask+0x3c>
 8005f96:	2400      	movs	r4, #0
 8005f98:	aa07      	add	r2, sp, #28
 8005f9a:	a906      	add	r1, sp, #24
 8005f9c:	a805      	add	r0, sp, #20
 8005f9e:	e9cd 4405 	strd	r4, r4, [sp, #20]
 8005fa2:	f7fe ff9b 	bl	8004edc <vApplicationGetTimerTaskMemory>
 8005fa6:	9b05      	ldr	r3, [sp, #20]
 8005fa8:	9302      	str	r3, [sp, #8]
 8005faa:	9b06      	ldr	r3, [sp, #24]
 8005fac:	9301      	str	r3, [sp, #4]
 8005fae:	2302      	movs	r3, #2
 8005fb0:	9300      	str	r3, [sp, #0]
 8005fb2:	9a07      	ldr	r2, [sp, #28]
 8005fb4:	490a      	ldr	r1, [pc, #40]	@ (8005fe0 <xTimerCreateTimerTask+0x58>)
 8005fb6:	480b      	ldr	r0, [pc, #44]	@ (8005fe4 <xTimerCreateTimerTask+0x5c>)
 8005fb8:	4623      	mov	r3, r4
 8005fba:	f7ff fc49 	bl	8005850 <xTaskCreateStatic>
 8005fbe:	4b0a      	ldr	r3, [pc, #40]	@ (8005fe8 <xTimerCreateTimerTask+0x60>)
 8005fc0:	6018      	str	r0, [r3, #0]
 8005fc2:	b940      	cbnz	r0, 8005fd6 <xTimerCreateTimerTask+0x4e>
 8005fc4:	f04f 0350 	mov.w	r3, #80	@ 0x50
 8005fc8:	f383 8811 	msr	BASEPRI, r3
 8005fcc:	f3bf 8f6f 	isb	sy
 8005fd0:	f3bf 8f4f 	dsb	sy
 8005fd4:	e7fe      	b.n	8005fd4 <xTimerCreateTimerTask+0x4c>
 8005fd6:	2001      	movs	r0, #1
 8005fd8:	b008      	add	sp, #32
 8005fda:	bd10      	pop	{r4, pc}
 8005fdc:	20001c58 	.word	0x20001c58
 8005fe0:	08006c79 	.word	0x08006c79
 8005fe4:	080060e9 	.word	0x080060e9
 8005fe8:	20001c54 	.word	0x20001c54

08005fec <xTimerGenericCommand>:
 8005fec:	b57f      	push	{r0, r1, r2, r3, r4, r5, r6, lr}
 8005fee:	4616      	mov	r6, r2
 8005ff0:	4604      	mov	r4, r0
 8005ff2:	461a      	mov	r2, r3
 8005ff4:	b940      	cbnz	r0, 8006008 <xTimerGenericCommand+0x1c>
 8005ff6:	f04f 0350 	mov.w	r3, #80	@ 0x50
 8005ffa:	f383 8811 	msr	BASEPRI, r3
 8005ffe:	f3bf 8f6f 	isb	sy
 8006002:	f3bf 8f4f 	dsb	sy
 8006006:	e7fe      	b.n	8006006 <xTimerGenericCommand+0x1a>
 8006008:	4d0d      	ldr	r5, [pc, #52]	@ (8006040 <xTimerGenericCommand+0x54>)
 800600a:	6828      	ldr	r0, [r5, #0]
 800600c:	b180      	cbz	r0, 8006030 <xTimerGenericCommand+0x44>
 800600e:	2905      	cmp	r1, #5
 8006010:	e9cd 1600 	strd	r1, r6, [sp]
 8006014:	9402      	str	r4, [sp, #8]
 8006016:	dc0d      	bgt.n	8006034 <xTimerGenericCommand+0x48>
 8006018:	f7ff ff12 	bl	8005e40 <xTaskGetSchedulerState>
 800601c:	2300      	movs	r3, #0
 800601e:	2802      	cmp	r0, #2
 8006020:	bf08      	it	eq
 8006022:	9a08      	ldreq	r2, [sp, #32]
 8006024:	6828      	ldr	r0, [r5, #0]
 8006026:	bf18      	it	ne
 8006028:	461a      	movne	r2, r3
 800602a:	4669      	mov	r1, sp
 800602c:	f7ff f8b9 	bl	80051a2 <xQueueGenericSend>
 8006030:	b004      	add	sp, #16
 8006032:	bd70      	pop	{r4, r5, r6, pc}
 8006034:	2300      	movs	r3, #0
 8006036:	4669      	mov	r1, sp
 8006038:	f7ff f965 	bl	8005306 <xQueueGenericSendFromISR>
 800603c:	e7f8      	b.n	8006030 <xTimerGenericCommand+0x44>
 800603e:	bf00      	nop
 8006040:	20001c58 	.word	0x20001c58

08006044 <prvSampleTimeNow>:
 8006044:	e92d 47f3 	stmdb	sp!, {r0, r1, r4, r5, r6, r7, r8, r9, sl, lr}
 8006048:	f8df 8098 	ldr.w	r8, [pc, #152]	@ 80060e4 <prvSampleTimeNow+0xa0>
 800604c:	4606      	mov	r6, r0
 800604e:	f7ff fcbd 	bl	80059cc <xTaskGetTickCount>
 8006052:	f8d8 3000 	ldr.w	r3, [r8]
 8006056:	4283      	cmp	r3, r0
 8006058:	4605      	mov	r5, r0
 800605a:	d909      	bls.n	8006070 <prvSampleTimeNow+0x2c>
 800605c:	4f1f      	ldr	r7, [pc, #124]	@ (80060dc <prvSampleTimeNow+0x98>)
 800605e:	683b      	ldr	r3, [r7, #0]
 8006060:	681a      	ldr	r2, [r3, #0]
 8006062:	b96a      	cbnz	r2, 8006080 <prvSampleTimeNow+0x3c>
 8006064:	4a1e      	ldr	r2, [pc, #120]	@ (80060e0 <prvSampleTimeNow+0x9c>)
 8006066:	6811      	ldr	r1, [r2, #0]
 8006068:	6039      	str	r1, [r7, #0]
 800606a:	6013      	str	r3, [r2, #0]
 800606c:	2301      	movs	r3, #1
 800606e:	e000      	b.n	8006072 <prvSampleTimeNow+0x2e>
 8006070:	2300      	movs	r3, #0
 8006072:	4628      	mov	r0, r5
 8006074:	6033      	str	r3, [r6, #0]
 8006076:	f8c8 5000 	str.w	r5, [r8]
 800607a:	b002      	add	sp, #8
 800607c:	e8bd 87f0 	ldmia.w	sp!, {r4, r5, r6, r7, r8, r9, sl, pc}
 8006080:	68db      	ldr	r3, [r3, #12]
 8006082:	68dc      	ldr	r4, [r3, #12]
 8006084:	f8d3 9000 	ldr.w	r9, [r3]
 8006088:	f104 0a04 	add.w	sl, r4, #4
 800608c:	4650      	mov	r0, sl
 800608e:	f7fe ff61 	bl	8004f54 <uxListRemove>
 8006092:	6a23      	ldr	r3, [r4, #32]
 8006094:	4620      	mov	r0, r4
 8006096:	4798      	blx	r3
 8006098:	f894 3028 	ldrb.w	r3, [r4, #40]	@ 0x28
 800609c:	075b      	lsls	r3, r3, #29
 800609e:	d5de      	bpl.n	800605e <prvSampleTimeNow+0x1a>
 80060a0:	69a3      	ldr	r3, [r4, #24]
 80060a2:	444b      	add	r3, r9
 80060a4:	4599      	cmp	r9, r3
 80060a6:	d206      	bcs.n	80060b6 <prvSampleTimeNow+0x72>
 80060a8:	6838      	ldr	r0, [r7, #0]
 80060aa:	6063      	str	r3, [r4, #4]
 80060ac:	6124      	str	r4, [r4, #16]
 80060ae:	4651      	mov	r1, sl
 80060b0:	f7fe ff39 	bl	8004f26 <vListInsert>
 80060b4:	e7d3      	b.n	800605e <prvSampleTimeNow+0x1a>
 80060b6:	2300      	movs	r3, #0
 80060b8:	9300      	str	r3, [sp, #0]
 80060ba:	464a      	mov	r2, r9
 80060bc:	4619      	mov	r1, r3
 80060be:	4620      	mov	r0, r4
 80060c0:	f7ff ff94 	bl	8005fec <xTimerGenericCommand>
 80060c4:	2800      	cmp	r0, #0
 80060c6:	d1ca      	bne.n	800605e <prvSampleTimeNow+0x1a>
 80060c8:	f04f 0350 	mov.w	r3, #80	@ 0x50
 80060cc:	f383 8811 	msr	BASEPRI, r3
 80060d0:	f3bf 8f6f 	isb	sy
 80060d4:	f3bf 8f4f 	dsb	sy
 80060d8:	e7fe      	b.n	80060d8 <prvSampleTimeNow+0x94>
 80060da:	bf00      	nop
 80060dc:	20001c60 	.word	0x20001c60
 80060e0:	20001c5c 	.word	0x20001c5c
 80060e4:	20001c50 	.word	0x20001c50

080060e8 <prvTimerTask>:
 80060e8:	e92d 43f0 	stmdb	sp!, {r4, r5, r6, r7, r8, r9, lr}
 80060ec:	4d6e      	ldr	r5, [pc, #440]	@ (80062a8 <prvTimerTask+0x1c0>)
 80060ee:	4e6f      	ldr	r6, [pc, #444]	@ (80062ac <prvTimerTask+0x1c4>)
 80060f0:	b089      	sub	sp, #36	@ 0x24
 80060f2:	682b      	ldr	r3, [r5, #0]
 80060f4:	f8d3 8000 	ldr.w	r8, [r3]
 80060f8:	f1b8 0f00 	cmp.w	r8, #0
 80060fc:	d035      	beq.n	800616a <prvTimerTask+0x82>
 80060fe:	68db      	ldr	r3, [r3, #12]
 8006100:	f8d3 8000 	ldr.w	r8, [r3]
 8006104:	2400      	movs	r4, #0
 8006106:	f7ff fc59 	bl	80059bc <vTaskSuspendAll>
 800610a:	a804      	add	r0, sp, #16
 800610c:	f7ff ff9a 	bl	8006044 <prvSampleTimeNow>
 8006110:	9b04      	ldr	r3, [sp, #16]
 8006112:	4681      	mov	r9, r0
 8006114:	2b00      	cmp	r3, #0
 8006116:	d169      	bne.n	80061ec <prvTimerTask+0x104>
 8006118:	2c00      	cmp	r4, #0
 800611a:	d14c      	bne.n	80061b6 <prvTimerTask+0xce>
 800611c:	4540      	cmp	r0, r8
 800611e:	d350      	bcc.n	80061c2 <prvTimerTask+0xda>
 8006120:	f7ff fcf0 	bl	8005b04 <xTaskResumeAll>
 8006124:	682b      	ldr	r3, [r5, #0]
 8006126:	68db      	ldr	r3, [r3, #12]
 8006128:	68df      	ldr	r7, [r3, #12]
 800612a:	1d38      	adds	r0, r7, #4
 800612c:	f7fe ff12 	bl	8004f54 <uxListRemove>
 8006130:	f897 3028 	ldrb.w	r3, [r7, #40]	@ 0x28
 8006134:	0758      	lsls	r0, r3, #29
 8006136:	d51a      	bpl.n	800616e <prvTimerTask+0x86>
 8006138:	69b9      	ldr	r1, [r7, #24]
 800613a:	4643      	mov	r3, r8
 800613c:	464a      	mov	r2, r9
 800613e:	4441      	add	r1, r8
 8006140:	4638      	mov	r0, r7
 8006142:	f7ff fecf 	bl	8005ee4 <prvInsertTimerInActiveList>
 8006146:	b1b0      	cbz	r0, 8006176 <prvTimerTask+0x8e>
 8006148:	9400      	str	r4, [sp, #0]
 800614a:	4623      	mov	r3, r4
 800614c:	4642      	mov	r2, r8
 800614e:	4621      	mov	r1, r4
 8006150:	4638      	mov	r0, r7
 8006152:	f7ff ff4b 	bl	8005fec <xTimerGenericCommand>
 8006156:	b970      	cbnz	r0, 8006176 <prvTimerTask+0x8e>
 8006158:	f04f 0350 	mov.w	r3, #80	@ 0x50
 800615c:	f383 8811 	msr	BASEPRI, r3
 8006160:	f3bf 8f6f 	isb	sy
 8006164:	f3bf 8f4f 	dsb	sy
 8006168:	e7fe      	b.n	8006168 <prvTimerTask+0x80>
 800616a:	2401      	movs	r4, #1
 800616c:	e7cb      	b.n	8006106 <prvTimerTask+0x1e>
 800616e:	f023 0301 	bic.w	r3, r3, #1
 8006172:	f887 3028 	strb.w	r3, [r7, #40]	@ 0x28
 8006176:	6a3b      	ldr	r3, [r7, #32]
 8006178:	4638      	mov	r0, r7
 800617a:	4798      	blx	r3
 800617c:	6830      	ldr	r0, [r6, #0]
 800617e:	2200      	movs	r2, #0
 8006180:	a904      	add	r1, sp, #16
 8006182:	f7ff f91d 	bl	80053c0 <xQueueReceive>
 8006186:	2800      	cmp	r0, #0
 8006188:	d0b3      	beq.n	80060f2 <prvTimerTask+0xa>
 800618a:	9b04      	ldr	r3, [sp, #16]
 800618c:	9806      	ldr	r0, [sp, #24]
 800618e:	2b00      	cmp	r3, #0
 8006190:	db2f      	blt.n	80061f2 <prvTimerTask+0x10a>
 8006192:	9c06      	ldr	r4, [sp, #24]
 8006194:	6963      	ldr	r3, [r4, #20]
 8006196:	2b00      	cmp	r3, #0
 8006198:	d132      	bne.n	8006200 <prvTimerTask+0x118>
 800619a:	a803      	add	r0, sp, #12
 800619c:	f7ff ff52 	bl	8006044 <prvSampleTimeNow>
 80061a0:	9b04      	ldr	r3, [sp, #16]
 80061a2:	4602      	mov	r2, r0
 80061a4:	2b09      	cmp	r3, #9
 80061a6:	d8e9      	bhi.n	800617c <prvTimerTask+0x94>
 80061a8:	e8df f003 	tbb	[pc, r3]
 80061ac:	572e2e2e 	.word	0x572e2e2e
 80061b0:	2e2e765e 	.word	0x2e2e765e
 80061b4:	5e57      	.short	0x5e57
 80061b6:	4b3e      	ldr	r3, [pc, #248]	@ (80062b0 <prvTimerTask+0x1c8>)
 80061b8:	681b      	ldr	r3, [r3, #0]
 80061ba:	681c      	ldr	r4, [r3, #0]
 80061bc:	fab4 f484 	clz	r4, r4
 80061c0:	0964      	lsrs	r4, r4, #5
 80061c2:	6830      	ldr	r0, [r6, #0]
 80061c4:	4622      	mov	r2, r4
 80061c6:	eba8 0109 	sub.w	r1, r8, r9
 80061ca:	f7ff f9a9 	bl	8005520 <vQueueWaitForMessageRestricted>
 80061ce:	f7ff fc99 	bl	8005b04 <xTaskResumeAll>
 80061d2:	2800      	cmp	r0, #0
 80061d4:	d1d2      	bne.n	800617c <prvTimerTask+0x94>
 80061d6:	f04f 23e0 	mov.w	r3, #3758153728	@ 0xe000e000
 80061da:	f04f 5280 	mov.w	r2, #268435456	@ 0x10000000
 80061de:	f8c3 2d04 	str.w	r2, [r3, #3332]	@ 0xd04
 80061e2:	f3bf 8f4f 	dsb	sy
 80061e6:	f3bf 8f6f 	isb	sy
 80061ea:	e7c7      	b.n	800617c <prvTimerTask+0x94>
 80061ec:	f7ff fc8a 	bl	8005b04 <xTaskResumeAll>
 80061f0:	e7c4      	b.n	800617c <prvTimerTask+0x94>
 80061f2:	9b05      	ldr	r3, [sp, #20]
 80061f4:	9907      	ldr	r1, [sp, #28]
 80061f6:	4798      	blx	r3
 80061f8:	9b04      	ldr	r3, [sp, #16]
 80061fa:	2b00      	cmp	r3, #0
 80061fc:	dbbe      	blt.n	800617c <prvTimerTask+0x94>
 80061fe:	e7c8      	b.n	8006192 <prvTimerTask+0xaa>
 8006200:	1d20      	adds	r0, r4, #4
 8006202:	f7fe fea7 	bl	8004f54 <uxListRemove>
 8006206:	e7c8      	b.n	800619a <prvTimerTask+0xb2>
 8006208:	f894 3028 	ldrb.w	r3, [r4, #40]	@ 0x28
 800620c:	69a1      	ldr	r1, [r4, #24]
 800620e:	f043 0301 	orr.w	r3, r3, #1
 8006212:	f884 3028 	strb.w	r3, [r4, #40]	@ 0x28
 8006216:	9b05      	ldr	r3, [sp, #20]
 8006218:	4620      	mov	r0, r4
 800621a:	4419      	add	r1, r3
 800621c:	f7ff fe62 	bl	8005ee4 <prvInsertTimerInActiveList>
 8006220:	2800      	cmp	r0, #0
 8006222:	d0ab      	beq.n	800617c <prvTimerTask+0x94>
 8006224:	6a23      	ldr	r3, [r4, #32]
 8006226:	4620      	mov	r0, r4
 8006228:	4798      	blx	r3
 800622a:	f894 3028 	ldrb.w	r3, [r4, #40]	@ 0x28
 800622e:	0759      	lsls	r1, r3, #29
 8006230:	d5a4      	bpl.n	800617c <prvTimerTask+0x94>
 8006232:	69a2      	ldr	r2, [r4, #24]
 8006234:	9905      	ldr	r1, [sp, #20]
 8006236:	2300      	movs	r3, #0
 8006238:	440a      	add	r2, r1
 800623a:	9300      	str	r3, [sp, #0]
 800623c:	4619      	mov	r1, r3
 800623e:	4620      	mov	r0, r4
 8006240:	f7ff fed4 	bl	8005fec <xTimerGenericCommand>
 8006244:	2800      	cmp	r0, #0
 8006246:	d199      	bne.n	800617c <prvTimerTask+0x94>
 8006248:	f04f 0350 	mov.w	r3, #80	@ 0x50
 800624c:	f383 8811 	msr	BASEPRI, r3
 8006250:	f3bf 8f6f 	isb	sy
 8006254:	f3bf 8f4f 	dsb	sy
 8006258:	e7fe      	b.n	8006258 <prvTimerTask+0x170>
 800625a:	f894 3028 	ldrb.w	r3, [r4, #40]	@ 0x28
 800625e:	f023 0301 	bic.w	r3, r3, #1
 8006262:	f884 3028 	strb.w	r3, [r4, #40]	@ 0x28
 8006266:	e789      	b.n	800617c <prvTimerTask+0x94>
 8006268:	f894 3028 	ldrb.w	r3, [r4, #40]	@ 0x28
 800626c:	f043 0301 	orr.w	r3, r3, #1
 8006270:	f884 3028 	strb.w	r3, [r4, #40]	@ 0x28
 8006274:	9905      	ldr	r1, [sp, #20]
 8006276:	61a1      	str	r1, [r4, #24]
 8006278:	b941      	cbnz	r1, 800628c <prvTimerTask+0x1a4>
 800627a:	f04f 0350 	mov.w	r3, #80	@ 0x50
 800627e:	f383 8811 	msr	BASEPRI, r3
 8006282:	f3bf 8f6f 	isb	sy
 8006286:	f3bf 8f4f 	dsb	sy
 800628a:	e7fe      	b.n	800628a <prvTimerTask+0x1a2>
 800628c:	4603      	mov	r3, r0
 800628e:	4401      	add	r1, r0
 8006290:	4620      	mov	r0, r4
 8006292:	f7ff fe27 	bl	8005ee4 <prvInsertTimerInActiveList>
 8006296:	e771      	b.n	800617c <prvTimerTask+0x94>
 8006298:	f894 3028 	ldrb.w	r3, [r4, #40]	@ 0x28
 800629c:	079a      	lsls	r2, r3, #30
 800629e:	d4de      	bmi.n	800625e <prvTimerTask+0x176>
 80062a0:	4620      	mov	r0, r4
 80062a2:	f000 fa6d 	bl	8006780 <vPortFree>
 80062a6:	e769      	b.n	800617c <prvTimerTask+0x94>
 80062a8:	20001c60 	.word	0x20001c60
 80062ac:	20001c58 	.word	0x20001c58
 80062b0:	20001c5c 	.word	0x20001c5c

080062b4 <prvPortStartFirstTask>:
 80062b4:	4808      	ldr	r0, [pc, #32]	@ (80062d8 <prvPortStartFirstTask+0x24>)
 80062b6:	6800      	ldr	r0, [r0, #0]
 80062b8:	6800      	ldr	r0, [r0, #0]
 80062ba:	f380 8808 	msr	MSP, r0
 80062be:	f04f 0000 	mov.w	r0, #0
 80062c2:	f380 8814 	msr	CONTROL, r0
 80062c6:	b662      	cpsie	i
 80062c8:	b661      	cpsie	f
 80062ca:	f3bf 8f4f 	dsb	sy
 80062ce:	f3bf 8f6f 	isb	sy
 80062d2:	df00      	svc	0
 80062d4:	bf00      	nop
 80062d6:	0000      	.short	0x0000
 80062d8:	e000ed08 	.word	0xe000ed08

080062dc <vPortEnableVFP>:
 80062dc:	f8df 000c 	ldr.w	r0, [pc, #12]	@ 80062ec <vPortEnableVFP+0x10>
 80062e0:	6801      	ldr	r1, [r0, #0]
 80062e2:	f441 0170 	orr.w	r1, r1, #15728640	@ 0xf00000
 80062e6:	6001      	str	r1, [r0, #0]
 80062e8:	4770      	bx	lr
 80062ea:	0000      	.short	0x0000
 80062ec:	e000ed88 	.word	0xe000ed88

080062f0 <prvTaskExitError>:
 80062f0:	b082      	sub	sp, #8
 80062f2:	2300      	movs	r3, #0
 80062f4:	9301      	str	r3, [sp, #4]
 80062f6:	4b0d      	ldr	r3, [pc, #52]	@ (800632c <prvTaskExitError+0x3c>)
 80062f8:	681b      	ldr	r3, [r3, #0]
 80062fa:	3301      	adds	r3, #1
 80062fc:	d008      	beq.n	8006310 <prvTaskExitError+0x20>
 80062fe:	f04f 0350 	mov.w	r3, #80	@ 0x50
 8006302:	f383 8811 	msr	BASEPRI, r3
 8006306:	f3bf 8f6f 	isb	sy
 800630a:	f3bf 8f4f 	dsb	sy
 800630e:	e7fe      	b.n	800630e <prvTaskExitError+0x1e>
 8006310:	f04f 0350 	mov.w	r3, #80	@ 0x50
 8006314:	f383 8811 	msr	BASEPRI, r3
 8006318:	f3bf 8f6f 	isb	sy
 800631c:	f3bf 8f4f 	dsb	sy
 8006320:	9b01      	ldr	r3, [sp, #4]
 8006322:	2b00      	cmp	r3, #0
 8006324:	d0fc      	beq.n	8006320 <prvTaskExitError+0x30>
 8006326:	b002      	add	sp, #8
 8006328:	4770      	bx	lr
 800632a:	bf00      	nop
 800632c:	200001f0 	.word	0x200001f0

08006330 <pxPortInitialiseStack>:
 8006330:	f04f 7380 	mov.w	r3, #16777216	@ 0x1000000
 8006334:	f840 3c04 	str.w	r3, [r0, #-4]
 8006338:	4b07      	ldr	r3, [pc, #28]	@ (8006358 <pxPortInitialiseStack+0x28>)
 800633a:	f840 3c0c 	str.w	r3, [r0, #-12]
 800633e:	f021 0101 	bic.w	r1, r1, #1
 8006342:	f06f 0302 	mvn.w	r3, #2
 8006346:	f840 1c08 	str.w	r1, [r0, #-8]
 800634a:	f840 2c20 	str.w	r2, [r0, #-32]
 800634e:	f840 3c24 	str.w	r3, [r0, #-36]
 8006352:	3844      	subs	r0, #68	@ 0x44
 8006354:	4770      	bx	lr
 8006356:	bf00      	nop
 8006358:	080062f1 	.word	0x080062f1
 800635c:	00000000 	.word	0x00000000

08006360 <SVC_Handler>:
 8006360:	4b07      	ldr	r3, [pc, #28]	@ (8006380 <pxCurrentTCBConst2>)
 8006362:	6819      	ldr	r1, [r3, #0]
 8006364:	6808      	ldr	r0, [r1, #0]
 8006366:	e8b0 4ff0 	ldmia.w	r0!, {r4, r5, r6, r7, r8, r9, sl, fp, lr}
 800636a:	f380 8809 	msr	PSP, r0
 800636e:	f3bf 8f6f 	isb	sy
 8006372:	f04f 0000 	mov.w	r0, #0
 8006376:	f380 8811 	msr	BASEPRI, r0
 800637a:	4770      	bx	lr
 800637c:	f3af 8000 	nop.w

08006380 <pxCurrentTCBConst2>:
 8006380:	20001b5c 	.word	0x20001b5c

08006384 <vPortEnterCritical>:
 8006384:	f04f 0350 	mov.w	r3, #80	@ 0x50
 8006388:	f383 8811 	msr	BASEPRI, r3
 800638c:	f3bf 8f6f 	isb	sy
 8006390:	f3bf 8f4f 	dsb	sy
 8006394:	4a0a      	ldr	r2, [pc, #40]	@ (80063c0 <vPortEnterCritical+0x3c>)
 8006396:	6813      	ldr	r3, [r2, #0]
 8006398:	3301      	adds	r3, #1
 800639a:	2b01      	cmp	r3, #1
 800639c:	6013      	str	r3, [r2, #0]
 800639e:	d10e      	bne.n	80063be <vPortEnterCritical+0x3a>
 80063a0:	f04f 23e0 	mov.w	r3, #3758153728	@ 0xe000e000
 80063a4:	f8d3 3d04 	ldr.w	r3, [r3, #3332]	@ 0xd04
 80063a8:	b2db      	uxtb	r3, r3
 80063aa:	b143      	cbz	r3, 80063be <vPortEnterCritical+0x3a>
 80063ac:	f04f 0350 	mov.w	r3, #80	@ 0x50
 80063b0:	f383 8811 	msr	BASEPRI, r3
 80063b4:	f3bf 8f6f 	isb	sy
 80063b8:	f3bf 8f4f 	dsb	sy
 80063bc:	e7fe      	b.n	80063bc <vPortEnterCritical+0x38>
 80063be:	4770      	bx	lr
 80063c0:	200001f0 	.word	0x200001f0

080063c4 <vPortExitCritical>:
 80063c4:	4a08      	ldr	r2, [pc, #32]	@ (80063e8 <vPortExitCritical+0x24>)
 80063c6:	6813      	ldr	r3, [r2, #0]
 80063c8:	b943      	cbnz	r3, 80063dc <vPortExitCritical+0x18>
 80063ca:	f04f 0350 	mov.w	r3, #80	@ 0x50
 80063ce:	f383 8811 	msr	BASEPRI, r3
 80063d2:	f3bf 8f6f 	isb	sy
 80063d6:	f3bf 8f4f 	dsb	sy
 80063da:	e7fe      	b.n	80063da <vPortExitCritical+0x16>
 80063dc:	3b01      	subs	r3, #1
 80063de:	6013      	str	r3, [r2, #0]
 80063e0:	b90b      	cbnz	r3, 80063e6 <vPortExitCritical+0x22>
 80063e2:	f383 8811 	msr	BASEPRI, r3
 80063e6:	4770      	bx	lr
 80063e8:	200001f0 	.word	0x200001f0
 80063ec:	00000000 	.word	0x00000000

080063f0 <PendSV_Handler>:
 80063f0:	f3ef 8009 	mrs	r0, PSP
 80063f4:	f3bf 8f6f 	isb	sy
 80063f8:	4b15      	ldr	r3, [pc, #84]	@ (8006450 <pxCurrentTCBConst>)
 80063fa:	681a      	ldr	r2, [r3, #0]
 80063fc:	f01e 0f10 	tst.w	lr, #16
 8006400:	bf08      	it	eq
 8006402:	ed20 8a10 	vstmdbeq	r0!, {s16-s31}
 8006406:	e920 4ff0 	stmdb	r0!, {r4, r5, r6, r7, r8, r9, sl, fp, lr}
 800640a:	6010      	str	r0, [r2, #0]
 800640c:	e92d 0009 	stmdb	sp!, {r0, r3}
 8006410:	f04f 0050 	mov.w	r0, #80	@ 0x50
 8006414:	f380 8811 	msr	BASEPRI, r0
 8006418:	f3bf 8f4f 	dsb	sy
 800641c:	f3bf 8f6f 	isb	sy
 8006420:	f7ff fc08 	bl	8005c34 <vTaskSwitchContext>
 8006424:	f04f 0000 	mov.w	r0, #0
 8006428:	f380 8811 	msr	BASEPRI, r0
 800642c:	bc09      	pop	{r0, r3}
 800642e:	6819      	ldr	r1, [r3, #0]
 8006430:	6808      	ldr	r0, [r1, #0]
 8006432:	e8b0 4ff0 	ldmia.w	r0!, {r4, r5, r6, r7, r8, r9, sl, fp, lr}
 8006436:	f01e 0f10 	tst.w	lr, #16
 800643a:	bf08      	it	eq
 800643c:	ecb0 8a10 	vldmiaeq	r0!, {s16-s31}
 8006440:	f380 8809 	msr	PSP, r0
 8006444:	f3bf 8f6f 	isb	sy
 8006448:	4770      	bx	lr
 800644a:	bf00      	nop
 800644c:	f3af 8000 	nop.w

08006450 <pxCurrentTCBConst>:
 8006450:	20001b5c 	.word	0x20001b5c

08006454 <xPortSysTickHandler>:
 8006454:	b508      	push	{r3, lr}
 8006456:	f04f 0350 	mov.w	r3, #80	@ 0x50
 800645a:	f383 8811 	msr	BASEPRI, r3
 800645e:	f3bf 8f6f 	isb	sy
 8006462:	f3bf 8f4f 	dsb	sy
 8006466:	f7ff fab7 	bl	80059d8 <xTaskIncrementTick>
 800646a:	b128      	cbz	r0, 8006478 <xPortSysTickHandler+0x24>
 800646c:	f04f 23e0 	mov.w	r3, #3758153728	@ 0xe000e000
 8006470:	f04f 5280 	mov.w	r2, #268435456	@ 0x10000000
 8006474:	f8c3 2d04 	str.w	r2, [r3, #3332]	@ 0xd04
 8006478:	2300      	movs	r3, #0
 800647a:	f383 8811 	msr	BASEPRI, r3
 800647e:	bd08      	pop	{r3, pc}

08006480 <vPortSetupTimerInterrupt>:
 8006480:	f04f 22e0 	mov.w	r2, #3758153728	@ 0xe000e000
 8006484:	2300      	movs	r3, #0
 8006486:	6113      	str	r3, [r2, #16]
 8006488:	6193      	str	r3, [r2, #24]
 800648a:	4b05      	ldr	r3, [pc, #20]	@ (80064a0 <vPortSetupTimerInterrupt+0x20>)
 800648c:	f44f 717a 	mov.w	r1, #1000	@ 0x3e8
 8006490:	681b      	ldr	r3, [r3, #0]
 8006492:	fbb3 f3f1 	udiv	r3, r3, r1
 8006496:	3b01      	subs	r3, #1
 8006498:	6153      	str	r3, [r2, #20]
 800649a:	2307      	movs	r3, #7
 800649c:	6113      	str	r3, [r2, #16]
 800649e:	4770      	bx	lr
 80064a0:	200001e4 	.word	0x200001e4

080064a4 <xPortStartScheduler>:
 80064a4:	f04f 23e0 	mov.w	r3, #3758153728	@ 0xe000e000
 80064a8:	b537      	push	{r0, r1, r2, r4, r5, lr}
 80064aa:	f8d3 1d00 	ldr.w	r1, [r3, #3328]	@ 0xd00
 80064ae:	4a38      	ldr	r2, [pc, #224]	@ (8006590 <xPortStartScheduler+0xec>)
 80064b0:	4291      	cmp	r1, r2
 80064b2:	d108      	bne.n	80064c6 <xPortStartScheduler+0x22>
 80064b4:	f04f 0350 	mov.w	r3, #80	@ 0x50
 80064b8:	f383 8811 	msr	BASEPRI, r3
 80064bc:	f3bf 8f6f 	isb	sy
 80064c0:	f3bf 8f4f 	dsb	sy
 80064c4:	e7fe      	b.n	80064c4 <xPortStartScheduler+0x20>
 80064c6:	f8d3 2d00 	ldr.w	r2, [r3, #3328]	@ 0xd00
 80064ca:	4b32      	ldr	r3, [pc, #200]	@ (8006594 <xPortStartScheduler+0xf0>)
 80064cc:	429a      	cmp	r2, r3
 80064ce:	d108      	bne.n	80064e2 <xPortStartScheduler+0x3e>
 80064d0:	f04f 0350 	mov.w	r3, #80	@ 0x50
 80064d4:	f383 8811 	msr	BASEPRI, r3
 80064d8:	f3bf 8f6f 	isb	sy
 80064dc:	f3bf 8f4f 	dsb	sy
 80064e0:	e7fe      	b.n	80064e0 <xPortStartScheduler+0x3c>
 80064e2:	4b2d      	ldr	r3, [pc, #180]	@ (8006598 <xPortStartScheduler+0xf4>)
 80064e4:	781a      	ldrb	r2, [r3, #0]
 80064e6:	b2d2      	uxtb	r2, r2
 80064e8:	9201      	str	r2, [sp, #4]
 80064ea:	22ff      	movs	r2, #255	@ 0xff
 80064ec:	701a      	strb	r2, [r3, #0]
 80064ee:	781b      	ldrb	r3, [r3, #0]
 80064f0:	4a2a      	ldr	r2, [pc, #168]	@ (800659c <xPortStartScheduler+0xf8>)
 80064f2:	b2db      	uxtb	r3, r3
 80064f4:	f88d 3003 	strb.w	r3, [sp, #3]
 80064f8:	f89d 3003 	ldrb.w	r3, [sp, #3]
 80064fc:	f003 0350 	and.w	r3, r3, #80	@ 0x50
 8006500:	7013      	strb	r3, [r2, #0]
 8006502:	4a27      	ldr	r2, [pc, #156]	@ (80065a0 <xPortStartScheduler+0xfc>)
 8006504:	2307      	movs	r3, #7
 8006506:	6013      	str	r3, [r2, #0]
 8006508:	f89d 1003 	ldrb.w	r1, [sp, #3]
 800650c:	6813      	ldr	r3, [r2, #0]
 800650e:	0609      	lsls	r1, r1, #24
 8006510:	d40a      	bmi.n	8006528 <xPortStartScheduler+0x84>
 8006512:	2b03      	cmp	r3, #3
 8006514:	d011      	beq.n	800653a <xPortStartScheduler+0x96>
 8006516:	f04f 0350 	mov.w	r3, #80	@ 0x50
 800651a:	f383 8811 	msr	BASEPRI, r3
 800651e:	f3bf 8f6f 	isb	sy
 8006522:	f3bf 8f4f 	dsb	sy
 8006526:	e7fe      	b.n	8006526 <xPortStartScheduler+0x82>
 8006528:	3b01      	subs	r3, #1
 800652a:	6013      	str	r3, [r2, #0]
 800652c:	f89d 3003 	ldrb.w	r3, [sp, #3]
 8006530:	005b      	lsls	r3, r3, #1
 8006532:	b2db      	uxtb	r3, r3
 8006534:	f88d 3003 	strb.w	r3, [sp, #3]
 8006538:	e7e6      	b.n	8006508 <xPortStartScheduler+0x64>
 800653a:	f44f 7340 	mov.w	r3, #768	@ 0x300
 800653e:	6013      	str	r3, [r2, #0]
 8006540:	9b01      	ldr	r3, [sp, #4]
 8006542:	4a15      	ldr	r2, [pc, #84]	@ (8006598 <xPortStartScheduler+0xf4>)
 8006544:	f04f 24e0 	mov.w	r4, #3758153728	@ 0xe000e000
 8006548:	b2db      	uxtb	r3, r3
 800654a:	7013      	strb	r3, [r2, #0]
 800654c:	f8d4 3d20 	ldr.w	r3, [r4, #3360]	@ 0xd20
 8006550:	f443 0370 	orr.w	r3, r3, #15728640	@ 0xf00000
 8006554:	f8c4 3d20 	str.w	r3, [r4, #3360]	@ 0xd20
 8006558:	f8d4 3d20 	ldr.w	r3, [r4, #3360]	@ 0xd20
 800655c:	f043 4370 	orr.w	r3, r3, #4026531840	@ 0xf0000000
 8006560:	f8c4 3d20 	str.w	r3, [r4, #3360]	@ 0xd20
 8006564:	f7ff ff8c 	bl	8006480 <vPortSetupTimerInterrupt>
 8006568:	4b0e      	ldr	r3, [pc, #56]	@ (80065a4 <xPortStartScheduler+0x100>)
 800656a:	2500      	movs	r5, #0
 800656c:	601d      	str	r5, [r3, #0]
 800656e:	f7ff feb5 	bl	80062dc <vPortEnableVFP>
 8006572:	f8d4 3f34 	ldr.w	r3, [r4, #3892]	@ 0xf34
 8006576:	f043 4340 	orr.w	r3, r3, #3221225472	@ 0xc0000000
 800657a:	f8c4 3f34 	str.w	r3, [r4, #3892]	@ 0xf34
 800657e:	f7ff fe99 	bl	80062b4 <prvPortStartFirstTask>
 8006582:	f7ff fb57 	bl	8005c34 <vTaskSwitchContext>
 8006586:	f7ff feb3 	bl	80062f0 <prvTaskExitError>
 800658a:	4628      	mov	r0, r5
 800658c:	b003      	add	sp, #12
 800658e:	bd30      	pop	{r4, r5, pc}
 8006590:	410fc271 	.word	0x410fc271
 8006594:	410fc270 	.word	0x410fc270
 8006598:	e000e400 	.word	0xe000e400
 800659c:	20001c90 	.word	0x20001c90
 80065a0:	20001c8c 	.word	0x20001c8c
 80065a4:	200001f0 	.word	0x200001f0

080065a8 <vPortValidateInterruptPriority>:
 80065a8:	f3ef 8305 	mrs	r3, IPSR
 80065ac:	2b0f      	cmp	r3, #15
 80065ae:	d90e      	bls.n	80065ce <vPortValidateInterruptPriority+0x26>
 80065b0:	4a11      	ldr	r2, [pc, #68]	@ (80065f8 <vPortValidateInterruptPriority+0x50>)
 80065b2:	5c9b      	ldrb	r3, [r3, r2]
 80065b4:	4a11      	ldr	r2, [pc, #68]	@ (80065fc <vPortValidateInterruptPriority+0x54>)
 80065b6:	7812      	ldrb	r2, [r2, #0]
 80065b8:	429a      	cmp	r2, r3
 80065ba:	d908      	bls.n	80065ce <vPortValidateInterruptPriority+0x26>
 80065bc:	f04f 0350 	mov.w	r3, #80	@ 0x50
 80065c0:	f383 8811 	msr	BASEPRI, r3
 80065c4:	f3bf 8f6f 	isb	sy
 80065c8:	f3bf 8f4f 	dsb	sy
 80065cc:	e7fe      	b.n	80065cc <vPortValidateInterruptPriority+0x24>
 80065ce:	f04f 23e0 	mov.w	r3, #3758153728	@ 0xe000e000
 80065d2:	4a0b      	ldr	r2, [pc, #44]	@ (8006600 <vPortValidateInterruptPriority+0x58>)
 80065d4:	f8d3 3d0c 	ldr.w	r3, [r3, #3340]	@ 0xd0c
 80065d8:	6812      	ldr	r2, [r2, #0]
 80065da:	f403 63e0 	and.w	r3, r3, #1792	@ 0x700
 80065de:	4293      	cmp	r3, r2
 80065e0:	d908      	bls.n	80065f4 <vPortValidateInterruptPriority+0x4c>
 80065e2:	f04f 0350 	mov.w	r3, #80	@ 0x50
 80065e6:	f383 8811 	msr	BASEPRI, r3
 80065ea:	f3bf 8f6f 	isb	sy
 80065ee:	f3bf 8f4f 	dsb	sy
 80065f2:	e7fe      	b.n	80065f2 <vPortValidateInterruptPriority+0x4a>
 80065f4:	4770      	bx	lr
 80065f6:	bf00      	nop
 80065f8:	e000e3f0 	.word	0xe000e3f0
 80065fc:	20001c90 	.word	0x20001c90
 8006600:	20001c8c 	.word	0x20001c8c

08006604 <prvInsertBlockIntoFreeList>:
 8006604:	b510      	push	{r4, lr}
 8006606:	4b10      	ldr	r3, [pc, #64]	@ (8006648 <prvInsertBlockIntoFreeList+0x44>)
 8006608:	461a      	mov	r2, r3
 800660a:	681b      	ldr	r3, [r3, #0]
 800660c:	4283      	cmp	r3, r0
 800660e:	d3fb      	bcc.n	8006608 <prvInsertBlockIntoFreeList+0x4>
 8006610:	6854      	ldr	r4, [r2, #4]
 8006612:	1911      	adds	r1, r2, r4
 8006614:	4288      	cmp	r0, r1
 8006616:	bf01      	itttt	eq
 8006618:	6841      	ldreq	r1, [r0, #4]
 800661a:	4610      	moveq	r0, r2
 800661c:	1909      	addeq	r1, r1, r4
 800661e:	6051      	streq	r1, [r2, #4]
 8006620:	6844      	ldr	r4, [r0, #4]
 8006622:	1901      	adds	r1, r0, r4
 8006624:	428b      	cmp	r3, r1
 8006626:	d10c      	bne.n	8006642 <prvInsertBlockIntoFreeList+0x3e>
 8006628:	4908      	ldr	r1, [pc, #32]	@ (800664c <prvInsertBlockIntoFreeList+0x48>)
 800662a:	6809      	ldr	r1, [r1, #0]
 800662c:	428b      	cmp	r3, r1
 800662e:	d003      	beq.n	8006638 <prvInsertBlockIntoFreeList+0x34>
 8006630:	6859      	ldr	r1, [r3, #4]
 8006632:	4421      	add	r1, r4
 8006634:	6041      	str	r1, [r0, #4]
 8006636:	6819      	ldr	r1, [r3, #0]
 8006638:	6001      	str	r1, [r0, #0]
 800663a:	4290      	cmp	r0, r2
 800663c:	bf18      	it	ne
 800663e:	6010      	strne	r0, [r2, #0]
 8006640:	bd10      	pop	{r4, pc}
 8006642:	4619      	mov	r1, r3
 8006644:	e7f8      	b.n	8006638 <prvInsertBlockIntoFreeList+0x34>
 8006646:	bf00      	nop
 8006648:	20001cac 	.word	0x20001cac
 800664c:	20001ca8 	.word	0x20001ca8

08006650 <pvPortMalloc>:
 8006650:	e92d 41f0 	stmdb	sp!, {r4, r5, r6, r7, r8, lr}
 8006654:	4604      	mov	r4, r0
 8006656:	f7ff f9b1 	bl	80059bc <vTaskSuspendAll>
 800665a:	4942      	ldr	r1, [pc, #264]	@ (8006764 <pvPortMalloc+0x114>)
 800665c:	4d42      	ldr	r5, [pc, #264]	@ (8006768 <pvPortMalloc+0x118>)
 800665e:	680b      	ldr	r3, [r1, #0]
 8006660:	bb0b      	cbnz	r3, 80066a6 <pvPortMalloc+0x56>
 8006662:	4a42      	ldr	r2, [pc, #264]	@ (800676c <pvPortMalloc+0x11c>)
 8006664:	0756      	lsls	r6, r2, #29
 8006666:	bf1f      	itttt	ne
 8006668:	1dd0      	addne	r0, r2, #7
 800666a:	f020 0007 	bicne.w	r0, r0, #7
 800666e:	f502 6240 	addne.w	r2, r2, #3072	@ 0xc00
 8006672:	1a13      	subne	r3, r2, r0
 8006674:	bf0c      	ite	eq
 8006676:	f44f 6340 	moveq.w	r3, #3072	@ 0xc00
 800667a:	4602      	movne	r2, r0
 800667c:	4413      	add	r3, r2
 800667e:	4e3c      	ldr	r6, [pc, #240]	@ (8006770 <pvPortMalloc+0x120>)
 8006680:	3b08      	subs	r3, #8
 8006682:	f023 0307 	bic.w	r3, r3, #7
 8006686:	2000      	movs	r0, #0
 8006688:	6070      	str	r0, [r6, #4]
 800668a:	6032      	str	r2, [r6, #0]
 800668c:	e9c3 0000 	strd	r0, r0, [r3]
 8006690:	1a98      	subs	r0, r3, r2
 8006692:	e9c2 3000 	strd	r3, r0, [r2]
 8006696:	600b      	str	r3, [r1, #0]
 8006698:	4b36      	ldr	r3, [pc, #216]	@ (8006774 <pvPortMalloc+0x124>)
 800669a:	6018      	str	r0, [r3, #0]
 800669c:	4b36      	ldr	r3, [pc, #216]	@ (8006778 <pvPortMalloc+0x128>)
 800669e:	6018      	str	r0, [r3, #0]
 80066a0:	f04f 4300 	mov.w	r3, #2147483648	@ 0x80000000
 80066a4:	602b      	str	r3, [r5, #0]
 80066a6:	682e      	ldr	r6, [r5, #0]
 80066a8:	4226      	tst	r6, r4
 80066aa:	d155      	bne.n	8006758 <pvPortMalloc+0x108>
 80066ac:	2c00      	cmp	r4, #0
 80066ae:	d046      	beq.n	800673e <pvPortMalloc+0xee>
 80066b0:	f104 0308 	add.w	r3, r4, #8
 80066b4:	0760      	lsls	r0, r4, #29
 80066b6:	bf1c      	itt	ne
 80066b8:	f023 0307 	bicne.w	r3, r3, #7
 80066bc:	3308      	addne	r3, #8
 80066be:	2b00      	cmp	r3, #0
 80066c0:	d04a      	beq.n	8006758 <pvPortMalloc+0x108>
 80066c2:	4f2d      	ldr	r7, [pc, #180]	@ (8006778 <pvPortMalloc+0x128>)
 80066c4:	683c      	ldr	r4, [r7, #0]
 80066c6:	429c      	cmp	r4, r3
 80066c8:	d346      	bcc.n	8006758 <pvPortMalloc+0x108>
 80066ca:	4a29      	ldr	r2, [pc, #164]	@ (8006770 <pvPortMalloc+0x120>)
 80066cc:	6815      	ldr	r5, [r2, #0]
 80066ce:	6868      	ldr	r0, [r5, #4]
 80066d0:	4298      	cmp	r0, r3
 80066d2:	d204      	bcs.n	80066de <pvPortMalloc+0x8e>
 80066d4:	f8d5 c000 	ldr.w	ip, [r5]
 80066d8:	f1bc 0f00 	cmp.w	ip, #0
 80066dc:	d115      	bne.n	800670a <pvPortMalloc+0xba>
 80066de:	6809      	ldr	r1, [r1, #0]
 80066e0:	42a9      	cmp	r1, r5
 80066e2:	d039      	beq.n	8006758 <pvPortMalloc+0x108>
 80066e4:	6829      	ldr	r1, [r5, #0]
 80066e6:	f8d2 8000 	ldr.w	r8, [r2]
 80066ea:	6011      	str	r1, [r2, #0]
 80066ec:	1ac2      	subs	r2, r0, r3
 80066ee:	2a10      	cmp	r2, #16
 80066f0:	d912      	bls.n	8006718 <pvPortMalloc+0xc8>
 80066f2:	18e8      	adds	r0, r5, r3
 80066f4:	0741      	lsls	r1, r0, #29
 80066f6:	d00b      	beq.n	8006710 <pvPortMalloc+0xc0>
 80066f8:	f04f 0350 	mov.w	r3, #80	@ 0x50
 80066fc:	f383 8811 	msr	BASEPRI, r3
 8006700:	f3bf 8f6f 	isb	sy
 8006704:	f3bf 8f4f 	dsb	sy
 8006708:	e7fe      	b.n	8006708 <pvPortMalloc+0xb8>
 800670a:	462a      	mov	r2, r5
 800670c:	4665      	mov	r5, ip
 800670e:	e7de      	b.n	80066ce <pvPortMalloc+0x7e>
 8006710:	6042      	str	r2, [r0, #4]
 8006712:	606b      	str	r3, [r5, #4]
 8006714:	f7ff ff76 	bl	8006604 <prvInsertBlockIntoFreeList>
 8006718:	686a      	ldr	r2, [r5, #4]
 800671a:	4916      	ldr	r1, [pc, #88]	@ (8006774 <pvPortMalloc+0x124>)
 800671c:	1aa4      	subs	r4, r4, r2
 800671e:	4316      	orrs	r6, r2
 8006720:	4a16      	ldr	r2, [pc, #88]	@ (800677c <pvPortMalloc+0x12c>)
 8006722:	6808      	ldr	r0, [r1, #0]
 8006724:	603c      	str	r4, [r7, #0]
 8006726:	2300      	movs	r3, #0
 8006728:	602b      	str	r3, [r5, #0]
 800672a:	6813      	ldr	r3, [r2, #0]
 800672c:	606e      	str	r6, [r5, #4]
 800672e:	4284      	cmp	r4, r0
 8006730:	f103 0301 	add.w	r3, r3, #1
 8006734:	bf38      	it	cc
 8006736:	600c      	strcc	r4, [r1, #0]
 8006738:	6013      	str	r3, [r2, #0]
 800673a:	f108 0408 	add.w	r4, r8, #8
 800673e:	f7ff f9e1 	bl	8005b04 <xTaskResumeAll>
 8006742:	0763      	lsls	r3, r4, #29
 8006744:	d00a      	beq.n	800675c <pvPortMalloc+0x10c>
 8006746:	f04f 0350 	mov.w	r3, #80	@ 0x50
 800674a:	f383 8811 	msr	BASEPRI, r3
 800674e:	f3bf 8f6f 	isb	sy
 8006752:	f3bf 8f4f 	dsb	sy
 8006756:	e7fe      	b.n	8006756 <pvPortMalloc+0x106>
 8006758:	2400      	movs	r4, #0
 800675a:	e7f0      	b.n	800673e <pvPortMalloc+0xee>
 800675c:	4620      	mov	r0, r4
 800675e:	e8bd 81f0 	ldmia.w	sp!, {r4, r5, r6, r7, r8, pc}
 8006762:	bf00      	nop
 8006764:	20001ca8 	.word	0x20001ca8
 8006768:	20001c94 	.word	0x20001c94
 800676c:	20001cb4 	.word	0x20001cb4
 8006770:	20001cac 	.word	0x20001cac
 8006774:	20001ca0 	.word	0x20001ca0
 8006778:	20001ca4 	.word	0x20001ca4
 800677c:	20001c9c 	.word	0x20001c9c

08006780 <vPortFree>:
 8006780:	b510      	push	{r4, lr}
 8006782:	4604      	mov	r4, r0
 8006784:	b390      	cbz	r0, 80067ec <vPortFree+0x6c>
 8006786:	4a1a      	ldr	r2, [pc, #104]	@ (80067f0 <vPortFree+0x70>)
 8006788:	f850 3c04 	ldr.w	r3, [r0, #-4]
 800678c:	6812      	ldr	r2, [r2, #0]
 800678e:	4213      	tst	r3, r2
 8006790:	d108      	bne.n	80067a4 <vPortFree+0x24>
 8006792:	f04f 0350 	mov.w	r3, #80	@ 0x50
 8006796:	f383 8811 	msr	BASEPRI, r3
 800679a:	f3bf 8f6f 	isb	sy
 800679e:	f3bf 8f4f 	dsb	sy
 80067a2:	e7fe      	b.n	80067a2 <vPortFree+0x22>
 80067a4:	f850 1c08 	ldr.w	r1, [r0, #-8]
 80067a8:	b141      	cbz	r1, 80067bc <vPortFree+0x3c>
 80067aa:	f04f 0350 	mov.w	r3, #80	@ 0x50
 80067ae:	f383 8811 	msr	BASEPRI, r3
 80067b2:	f3bf 8f6f 	isb	sy
 80067b6:	f3bf 8f4f 	dsb	sy
 80067ba:	e7fe      	b.n	80067ba <vPortFree+0x3a>
 80067bc:	ea23 0302 	bic.w	r3, r3, r2
 80067c0:	f840 3c04 	str.w	r3, [r0, #-4]
 80067c4:	f7ff f8fa 	bl	80059bc <vTaskSuspendAll>
 80067c8:	4a0a      	ldr	r2, [pc, #40]	@ (80067f4 <vPortFree+0x74>)
 80067ca:	f854 3c04 	ldr.w	r3, [r4, #-4]
 80067ce:	6811      	ldr	r1, [r2, #0]
 80067d0:	f1a4 0008 	sub.w	r0, r4, #8
 80067d4:	440b      	add	r3, r1
 80067d6:	6013      	str	r3, [r2, #0]
 80067d8:	f7ff ff14 	bl	8006604 <prvInsertBlockIntoFreeList>
 80067dc:	4a06      	ldr	r2, [pc, #24]	@ (80067f8 <vPortFree+0x78>)
 80067de:	6813      	ldr	r3, [r2, #0]
 80067e0:	e8bd 4010 	ldmia.w	sp!, {r4, lr}
 80067e4:	3301      	adds	r3, #1
 80067e6:	6013      	str	r3, [r2, #0]
 80067e8:	f7ff b98c 	b.w	8005b04 <xTaskResumeAll>
 80067ec:	bd10      	pop	{r4, pc}
 80067ee:	bf00      	nop
 80067f0:	20001c94 	.word	0x20001c94
 80067f4:	20001ca4 	.word	0x20001ca4
 80067f8:	20001c98 	.word	0x20001c98

080067fc <round>:
 80067fc:	ec51 0b10 	vmov	r0, r1, d0
 8006800:	b570      	push	{r4, r5, r6, lr}
 8006802:	f3c1 540a 	ubfx	r4, r1, #20, #11
 8006806:	f2a4 32ff 	subw	r2, r4, #1023	@ 0x3ff
 800680a:	2a13      	cmp	r2, #19
 800680c:	460b      	mov	r3, r1
 800680e:	4605      	mov	r5, r0
 8006810:	dc1b      	bgt.n	800684a <round+0x4e>
 8006812:	2a00      	cmp	r2, #0
 8006814:	da0b      	bge.n	800682e <round+0x32>
 8006816:	f001 4300 	and.w	r3, r1, #2147483648	@ 0x80000000
 800681a:	3201      	adds	r2, #1
 800681c:	bf04      	itt	eq
 800681e:	f043 537f 	orreq.w	r3, r3, #1069547520	@ 0x3fc00000
 8006822:	f443 1340 	orreq.w	r3, r3, #3145728	@ 0x300000
 8006826:	2200      	movs	r2, #0
 8006828:	4619      	mov	r1, r3
 800682a:	4610      	mov	r0, r2
 800682c:	e015      	b.n	800685a <round+0x5e>
 800682e:	4c15      	ldr	r4, [pc, #84]	@ (8006884 <round+0x88>)
 8006830:	4114      	asrs	r4, r2
 8006832:	ea04 0601 	and.w	r6, r4, r1
 8006836:	4306      	orrs	r6, r0
 8006838:	d00f      	beq.n	800685a <round+0x5e>
 800683a:	f44f 2100 	mov.w	r1, #524288	@ 0x80000
 800683e:	fa41 f202 	asr.w	r2, r1, r2
 8006842:	4413      	add	r3, r2
 8006844:	ea23 0304 	bic.w	r3, r3, r4
 8006848:	e7ed      	b.n	8006826 <round+0x2a>
 800684a:	2a33      	cmp	r2, #51	@ 0x33
 800684c:	dd08      	ble.n	8006860 <round+0x64>
 800684e:	f5b2 6f80 	cmp.w	r2, #1024	@ 0x400
 8006852:	d102      	bne.n	800685a <round+0x5e>
 8006854:	4602      	mov	r2, r0
 8006856:	f7f9 fe13 	bl	8000480 <__adddf3>
 800685a:	ec41 0b10 	vmov	d0, r0, r1
 800685e:	bd70      	pop	{r4, r5, r6, pc}
 8006860:	f2a4 4613 	subw	r6, r4, #1043	@ 0x413
 8006864:	f04f 34ff 	mov.w	r4, #4294967295
 8006868:	40f4      	lsrs	r4, r6
 800686a:	4204      	tst	r4, r0
 800686c:	d0f5      	beq.n	800685a <round+0x5e>
 800686e:	f1c2 0133 	rsb	r1, r2, #51	@ 0x33
 8006872:	2201      	movs	r2, #1
 8006874:	408a      	lsls	r2, r1
 8006876:	1952      	adds	r2, r2, r5
 8006878:	bf28      	it	cs
 800687a:	3301      	addcs	r3, #1
 800687c:	ea22 0204 	bic.w	r2, r2, r4
 8006880:	e7d2      	b.n	8006828 <round+0x2c>
 8006882:	bf00      	nop
 8006884:	000fffff 	.word	0x000fffff

08006888 <roundf>:
 8006888:	ee10 0a10 	vmov	r0, s0
 800688c:	f3c0 52c7 	ubfx	r2, r0, #23, #8
 8006890:	3a7f      	subs	r2, #127	@ 0x7f
 8006892:	2a16      	cmp	r2, #22
 8006894:	dc15      	bgt.n	80068c2 <roundf+0x3a>
 8006896:	2a00      	cmp	r2, #0
 8006898:	da08      	bge.n	80068ac <roundf+0x24>
 800689a:	3201      	adds	r2, #1
 800689c:	f000 4300 	and.w	r3, r0, #2147483648	@ 0x80000000
 80068a0:	d101      	bne.n	80068a6 <roundf+0x1e>
 80068a2:	f043 537e 	orr.w	r3, r3, #1065353216	@ 0x3f800000
 80068a6:	ee00 3a10 	vmov	s0, r3
 80068aa:	4770      	bx	lr
 80068ac:	4907      	ldr	r1, [pc, #28]	@ (80068cc <roundf+0x44>)
 80068ae:	4111      	asrs	r1, r2
 80068b0:	4201      	tst	r1, r0
 80068b2:	d0fa      	beq.n	80068aa <roundf+0x22>
 80068b4:	f44f 0380 	mov.w	r3, #4194304	@ 0x400000
 80068b8:	4113      	asrs	r3, r2
 80068ba:	4403      	add	r3, r0
 80068bc:	ea23 0301 	bic.w	r3, r3, r1
 80068c0:	e7f1      	b.n	80068a6 <roundf+0x1e>
 80068c2:	2a80      	cmp	r2, #128	@ 0x80
 80068c4:	d1f1      	bne.n	80068aa <roundf+0x22>
 80068c6:	ee30 0a00 	vadd.f32	s0, s0, s0
 80068ca:	4770      	bx	lr
 80068cc:	007fffff 	.word	0x007fffff

080068d0 <memset>:
 80068d0:	4402      	add	r2, r0
 80068d2:	4603      	mov	r3, r0
 80068d4:	4293      	cmp	r3, r2
 80068d6:	d100      	bne.n	80068da <memset+0xa>
 80068d8:	4770      	bx	lr
 80068da:	f803 1b01 	strb.w	r1, [r3], #1
 80068de:	e7f9      	b.n	80068d4 <memset+0x4>

080068e0 <_reclaim_reent>:
 80068e0:	4b2d      	ldr	r3, [pc, #180]	@ (8006998 <_reclaim_reent+0xb8>)
 80068e2:	681b      	ldr	r3, [r3, #0]
 80068e4:	4283      	cmp	r3, r0
 80068e6:	b570      	push	{r4, r5, r6, lr}
 80068e8:	4604      	mov	r4, r0
 80068ea:	d053      	beq.n	8006994 <_reclaim_reent+0xb4>
 80068ec:	69c3      	ldr	r3, [r0, #28]
 80068ee:	b31b      	cbz	r3, 8006938 <_reclaim_reent+0x58>
 80068f0:	68db      	ldr	r3, [r3, #12]
 80068f2:	b163      	cbz	r3, 800690e <_reclaim_reent+0x2e>
 80068f4:	2500      	movs	r5, #0
 80068f6:	69e3      	ldr	r3, [r4, #28]
 80068f8:	68db      	ldr	r3, [r3, #12]
 80068fa:	5959      	ldr	r1, [r3, r5]
 80068fc:	b9b1      	cbnz	r1, 800692c <_reclaim_reent+0x4c>
 80068fe:	3504      	adds	r5, #4
 8006900:	2d80      	cmp	r5, #128	@ 0x80
 8006902:	d1f8      	bne.n	80068f6 <_reclaim_reent+0x16>
 8006904:	69e3      	ldr	r3, [r4, #28]
 8006906:	4620      	mov	r0, r4
 8006908:	68d9      	ldr	r1, [r3, #12]
 800690a:	f000 f87b 	bl	8006a04 <_free_r>
 800690e:	69e3      	ldr	r3, [r4, #28]
 8006910:	6819      	ldr	r1, [r3, #0]
 8006912:	b111      	cbz	r1, 800691a <_reclaim_reent+0x3a>
 8006914:	4620      	mov	r0, r4
 8006916:	f000 f875 	bl	8006a04 <_free_r>
 800691a:	69e3      	ldr	r3, [r4, #28]
 800691c:	689d      	ldr	r5, [r3, #8]
 800691e:	b15d      	cbz	r5, 8006938 <_reclaim_reent+0x58>
 8006920:	4629      	mov	r1, r5
 8006922:	4620      	mov	r0, r4
 8006924:	682d      	ldr	r5, [r5, #0]
 8006926:	f000 f86d 	bl	8006a04 <_free_r>
 800692a:	e7f8      	b.n	800691e <_reclaim_reent+0x3e>
 800692c:	680e      	ldr	r6, [r1, #0]
 800692e:	4620      	mov	r0, r4
 8006930:	f000 f868 	bl	8006a04 <_free_r>
 8006934:	4631      	mov	r1, r6
 8006936:	e7e1      	b.n	80068fc <_reclaim_reent+0x1c>
 8006938:	6961      	ldr	r1, [r4, #20]
 800693a:	b111      	cbz	r1, 8006942 <_reclaim_reent+0x62>
 800693c:	4620      	mov	r0, r4
 800693e:	f000 f861 	bl	8006a04 <_free_r>
 8006942:	69e1      	ldr	r1, [r4, #28]
 8006944:	b111      	cbz	r1, 800694c <_reclaim_reent+0x6c>
 8006946:	4620      	mov	r0, r4
 8006948:	f000 f85c 	bl	8006a04 <_free_r>
 800694c:	6b21      	ldr	r1, [r4, #48]	@ 0x30
 800694e:	b111      	cbz	r1, 8006956 <_reclaim_reent+0x76>
 8006950:	4620      	mov	r0, r4
 8006952:	f000 f857 	bl	8006a04 <_free_r>
 8006956:	6b61      	ldr	r1, [r4, #52]	@ 0x34
 8006958:	b111      	cbz	r1, 8006960 <_reclaim_reent+0x80>
 800695a:	4620      	mov	r0, r4
 800695c:	f000 f852 	bl	8006a04 <_free_r>
 8006960:	6ba1      	ldr	r1, [r4, #56]	@ 0x38
 8006962:	b111      	cbz	r1, 800696a <_reclaim_reent+0x8a>
 8006964:	4620      	mov	r0, r4
 8006966:	f000 f84d 	bl	8006a04 <_free_r>
 800696a:	6ca1      	ldr	r1, [r4, #72]	@ 0x48
 800696c:	b111      	cbz	r1, 8006974 <_reclaim_reent+0x94>
 800696e:	4620      	mov	r0, r4
 8006970:	f000 f848 	bl	8006a04 <_free_r>
 8006974:	6c61      	ldr	r1, [r4, #68]	@ 0x44
 8006976:	b111      	cbz	r1, 800697e <_reclaim_reent+0x9e>
 8006978:	4620      	mov	r0, r4
 800697a:	f000 f843 	bl	8006a04 <_free_r>
 800697e:	6ae1      	ldr	r1, [r4, #44]	@ 0x2c
 8006980:	b111      	cbz	r1, 8006988 <_reclaim_reent+0xa8>
 8006982:	4620      	mov	r0, r4
 8006984:	f000 f83e 	bl	8006a04 <_free_r>
 8006988:	6a23      	ldr	r3, [r4, #32]
 800698a:	b11b      	cbz	r3, 8006994 <_reclaim_reent+0xb4>
 800698c:	4620      	mov	r0, r4
 800698e:	e8bd 4070 	ldmia.w	sp!, {r4, r5, r6, lr}
 8006992:	4718      	bx	r3
 8006994:	bd70      	pop	{r4, r5, r6, pc}
 8006996:	bf00      	nop
 8006998:	200001f4 	.word	0x200001f4

0800699c <__libc_init_array>:
 800699c:	b570      	push	{r4, r5, r6, lr}
 800699e:	4d0d      	ldr	r5, [pc, #52]	@ (80069d4 <__libc_init_array+0x38>)
 80069a0:	4c0d      	ldr	r4, [pc, #52]	@ (80069d8 <__libc_init_array+0x3c>)
 80069a2:	1b64      	subs	r4, r4, r5
 80069a4:	10a4      	asrs	r4, r4, #2
 80069a6:	2600      	movs	r6, #0
 80069a8:	42a6      	cmp	r6, r4
 80069aa:	d109      	bne.n	80069c0 <__libc_init_array+0x24>
 80069ac:	4d0b      	ldr	r5, [pc, #44]	@ (80069dc <__libc_init_array+0x40>)
 80069ae:	4c0c      	ldr	r4, [pc, #48]	@ (80069e0 <__libc_init_array+0x44>)
 80069b0:	f000 f87e 	bl	8006ab0 <_init>
 80069b4:	1b64      	subs	r4, r4, r5
 80069b6:	10a4      	asrs	r4, r4, #2
 80069b8:	2600      	movs	r6, #0
 80069ba:	42a6      	cmp	r6, r4
 80069bc:	d105      	bne.n	80069ca <__libc_init_array+0x2e>
 80069be:	bd70      	pop	{r4, r5, r6, pc}
 80069c0:	f855 3b04 	ldr.w	r3, [r5], #4
 80069c4:	4798      	blx	r3
 80069c6:	3601      	adds	r6, #1
 80069c8:	e7ee      	b.n	80069a8 <__libc_init_array+0xc>
 80069ca:	f855 3b04 	ldr.w	r3, [r5], #4
 80069ce:	4798      	blx	r3
 80069d0:	3601      	adds	r6, #1
 80069d2:	e7f2      	b.n	80069ba <__libc_init_array+0x1e>
 80069d4:	08006d3c 	.word	0x08006d3c
 80069d8:	08006d3c 	.word	0x08006d3c
 80069dc:	08006d3c 	.word	0x08006d3c
 80069e0:	08006d44 	.word	0x08006d44

080069e4 <__retarget_lock_acquire_recursive>:
 80069e4:	4770      	bx	lr

080069e6 <__retarget_lock_release_recursive>:
 80069e6:	4770      	bx	lr

080069e8 <memcpy>:
 80069e8:	440a      	add	r2, r1
 80069ea:	4291      	cmp	r1, r2
 80069ec:	f100 33ff 	add.w	r3, r0, #4294967295
 80069f0:	d100      	bne.n	80069f4 <memcpy+0xc>
 80069f2:	4770      	bx	lr
 80069f4:	b510      	push	{r4, lr}
 80069f6:	f811 4b01 	ldrb.w	r4, [r1], #1
 80069fa:	f803 4f01 	strb.w	r4, [r3, #1]!
 80069fe:	4291      	cmp	r1, r2
 8006a00:	d1f9      	bne.n	80069f6 <memcpy+0xe>
 8006a02:	bd10      	pop	{r4, pc}

08006a04 <_free_r>:
 8006a04:	b538      	push	{r3, r4, r5, lr}
 8006a06:	4605      	mov	r5, r0
 8006a08:	2900      	cmp	r1, #0
 8006a0a:	d041      	beq.n	8006a90 <_free_r+0x8c>
 8006a0c:	f851 3c04 	ldr.w	r3, [r1, #-4]
 8006a10:	1f0c      	subs	r4, r1, #4
 8006a12:	2b00      	cmp	r3, #0
 8006a14:	bfb8      	it	lt
 8006a16:	18e4      	addlt	r4, r4, r3
 8006a18:	f000 f83e 	bl	8006a98 <__malloc_lock>
 8006a1c:	4a1d      	ldr	r2, [pc, #116]	@ (8006a94 <_free_r+0x90>)
 8006a1e:	6813      	ldr	r3, [r2, #0]
 8006a20:	b933      	cbnz	r3, 8006a30 <_free_r+0x2c>
 8006a22:	6063      	str	r3, [r4, #4]
 8006a24:	6014      	str	r4, [r2, #0]
 8006a26:	4628      	mov	r0, r5
 8006a28:	e8bd 4038 	ldmia.w	sp!, {r3, r4, r5, lr}
 8006a2c:	f000 b83a 	b.w	8006aa4 <__malloc_unlock>
 8006a30:	42a3      	cmp	r3, r4
 8006a32:	d908      	bls.n	8006a46 <_free_r+0x42>
 8006a34:	6820      	ldr	r0, [r4, #0]
 8006a36:	1821      	adds	r1, r4, r0
 8006a38:	428b      	cmp	r3, r1
 8006a3a:	bf01      	itttt	eq
 8006a3c:	6819      	ldreq	r1, [r3, #0]
 8006a3e:	685b      	ldreq	r3, [r3, #4]
 8006a40:	1809      	addeq	r1, r1, r0
 8006a42:	6021      	streq	r1, [r4, #0]
 8006a44:	e7ed      	b.n	8006a22 <_free_r+0x1e>
 8006a46:	461a      	mov	r2, r3
 8006a48:	685b      	ldr	r3, [r3, #4]
 8006a4a:	b10b      	cbz	r3, 8006a50 <_free_r+0x4c>
 8006a4c:	42a3      	cmp	r3, r4
 8006a4e:	d9fa      	bls.n	8006a46 <_free_r+0x42>
 8006a50:	6811      	ldr	r1, [r2, #0]
 8006a52:	1850      	adds	r0, r2, r1
 8006a54:	42a0      	cmp	r0, r4
 8006a56:	d10b      	bne.n	8006a70 <_free_r+0x6c>
 8006a58:	6820      	ldr	r0, [r4, #0]
 8006a5a:	4401      	add	r1, r0
 8006a5c:	1850      	adds	r0, r2, r1
 8006a5e:	4283      	cmp	r3, r0
 8006a60:	6011      	str	r1, [r2, #0]
 8006a62:	d1e0      	bne.n	8006a26 <_free_r+0x22>
 8006a64:	6818      	ldr	r0, [r3, #0]
 8006a66:	685b      	ldr	r3, [r3, #4]
 8006a68:	6053      	str	r3, [r2, #4]
 8006a6a:	4408      	add	r0, r1
 8006a6c:	6010      	str	r0, [r2, #0]
 8006a6e:	e7da      	b.n	8006a26 <_free_r+0x22>
 8006a70:	d902      	bls.n	8006a78 <_free_r+0x74>
 8006a72:	230c      	movs	r3, #12
 8006a74:	602b      	str	r3, [r5, #0]
 8006a76:	e7d6      	b.n	8006a26 <_free_r+0x22>
 8006a78:	6820      	ldr	r0, [r4, #0]
 8006a7a:	1821      	adds	r1, r4, r0
 8006a7c:	428b      	cmp	r3, r1
 8006a7e:	bf04      	itt	eq
 8006a80:	6819      	ldreq	r1, [r3, #0]
 8006a82:	685b      	ldreq	r3, [r3, #4]
 8006a84:	6063      	str	r3, [r4, #4]
 8006a86:	bf04      	itt	eq
 8006a88:	1809      	addeq	r1, r1, r0
 8006a8a:	6021      	streq	r1, [r4, #0]
 8006a8c:	6054      	str	r4, [r2, #4]
 8006a8e:	e7ca      	b.n	8006a26 <_free_r+0x22>
 8006a90:	bd38      	pop	{r3, r4, r5, pc}
 8006a92:	bf00      	nop
 8006a94:	200029f0 	.word	0x200029f0

08006a98 <__malloc_lock>:
 8006a98:	4801      	ldr	r0, [pc, #4]	@ (8006aa0 <__malloc_lock+0x8>)
 8006a9a:	f7ff bfa3 	b.w	80069e4 <__retarget_lock_acquire_recursive>
 8006a9e:	bf00      	nop
 8006aa0:	200029ec 	.word	0x200029ec

08006aa4 <__malloc_unlock>:
 8006aa4:	4801      	ldr	r0, [pc, #4]	@ (8006aac <__malloc_unlock+0x8>)
 8006aa6:	f7ff bf9e 	b.w	80069e6 <__retarget_lock_release_recursive>
 8006aaa:	bf00      	nop
 8006aac:	200029ec 	.word	0x200029ec

08006ab0 <_init>:
 8006ab0:	b5f8      	push	{r3, r4, r5, r6, r7, lr}
 8006ab2:	bf00      	nop
 8006ab4:	bcf8      	pop	{r3, r4, r5, r6, r7}
 8006ab6:	bc08      	pop	{r3}
 8006ab8:	469e      	mov	lr, r3
 8006aba:	4770      	bx	lr

08006abc <_fini>:
 8006abc:	b5f8      	push	{r3, r4, r5, r6, r7, lr}
 8006abe:	bf00      	nop
 8006ac0:	bcf8      	pop	{r3, r4, r5, r6, r7}
 8006ac2:	bc08      	pop	{r3}
 8006ac4:	469e      	mov	lr, r3
 8006ac6:	4770      	bx	lr
